cdebian_linux.config
ConfigCore
p0
(tRp1
(Vbase
p2
tp3
(dp4
Varches
p5
(lp6
Valpha
p7
aVamd64
p8
aVarm64
p9
aVarmel
p10
aVarmhf
p11
aVhppa
p12
aVi386
p13
aVm68k
p14
aVmips
p15
aVmipsel
p16
aVmipsn32
p17
aVmipsn32el
p18
aVmips64
p19
aVmips64el
p20
aVpowerpc
p21
aVpowerpcspe
p22
aVppc64
p23
aVppc64el
p24
aVs390
p25
aVs390x
p26
aVsh3
p27
aVsh4
p28
aVsparc
p29
aVsparc64
p30
aVtilegx
p31
aVx32
p32
asVfeaturesets
p33
(lp34
Vnone
p35
aVrt
p36
asVcompiler
p37
Vgcc-6
p38
ss(Vbuild
p39
tp40
(dp41
Vsigned-modules
p42
I01
sVdebug-info
p43
I01
ss(Vbase
p44
NVrt
p45
tp46
(dp47
Venabled
p48
I01
ss(Vdescription
p49
tp50
(dp51
Vpart-long-up
p52
VThis kernel is not suitable for SMP (multi-processor,\u000amulti-core or hyper-threaded) systems.
p53
sVpart-long-xen
p54
VThis kernel also runs on a Xen hypervisor.\u000aIt supports both privileged (dom0) and unprivileged (domU) operation.
p55
ss(Vrelations
p56
tp57
(dp58
Vinitramfs-tools
p59
Vinitramfs-tools (>= 0.120+deb8u2)
p60
sVgcc-6
p61
Vgcc-6 <!stage1 !cross>, gcc-6-@gnu-type-package@:native <!stage1 cross>
p62
sVinitramfs-fallback
p63
Vlinux-initramfs-tool
p64
ss(Vimage
p65
tp66
(dp67
Vinitramfs-generators
p68
(lp69
Vinitramfs-tools
p70
aVinitramfs-fallback
p71
ass(Vabi
p72
tp73
(dp74
Vabiname
p75
V2
p76
sVignore-changes
p77
(lp78
V__cpuhp_*
p79
aVbpf_analyzer
p80
aVcxl_*
p81
aVmm_iommu_*
p82
aVregister_cxl_calls
p83
aVunregister_cxl_calls
p84
aVmodule:arch/x86/kvm/*
p85
aVmodule:drivers/hv/*
p86
aVmodule:drivers/iio/common/st_sensors/**
p87
aVmodule:drivers/net/wireless/**
p88
aVmodule:drivers/nvdimm/*
p89
aVmodule:drivers/power/supply/bq27xxx_battery
p90
aVmodule:drivers/scsi/cxgbi/*
p91
aVmodule:drivers/scsi/libiscs*
p92
aVmodule:drivers/scsi/qla2xxx/qla2xxx
p93
aVmodule:drivers/scsi/ufs/*
p94
aVmodule:drivers/target/**
p95
aVmodule:drivers/usb/host/**
p96
aVmodule:drivers/usb/musb/**
p97
aVmodule:net/ceph/libceph
p98
aVbtree_*
p99
aVvisitor*
p100
aVcan_rx_register
p101
aVip6_xmit
p102
aVmodule:net/dccp/dccp
p103
aVmodule:net/rds/rds
p104
aVdevfreq_*
p105
aVdevm_devfreq_*
p106
aVupdate_devfreq
p107
aVmodule:drivers/infiniband/**
p108
aVacpi_ec_add_query_handler
p109
aVacpi_ec_remove_query_handler
p110
aVfirst_ec
p111
aVdebugfs_create_automount
p112
ass(Vbase
p113
Valpha
p114
tp115
(dp116
Vfeaturesets
p117
(lp118
Vnone
p119
asVkernel-arch
p120
Valpha
p121
ss(Vdescription
p122
g114
NValpha-smp
p123
tp124
(dp125
Vhardware
p126
VAlpha SMP
p127
sVhardware-long
p128
VDEC Alpha SMP systems with extended kernel start address (Wildfire, Titan, Marvel)
p129
ss(Vbuild
p130
g114
tp131
(dp132
Vsigned-modules
p133
I00
sVimage-file
p134
Varch/alpha/boot/vmlinux.gz
p135
ss(Vdescription
p136
g114
NValpha-generic
p137
tp138
(dp139
Vhardware
p140
VAlpha
p141
sVhardware-long
p142
VDEC Alpha systems with extended kernel start address (Wildfire, Titan, Marvel)
p143
ss(Vimage
p144
g114
tp145
(dp146
Vsuggests
p147
Vaboot, fdutils
p148
sVinstall-stem
p149
Vvmlinuz
p150
ss(Vbase
p151
g114
g119
tp152
(dp153
Vflavours
p154
(lp155
Valpha-generic
p156
aValpha-smp
p157
asVimplicit-flavour
p158
I01
ss(Vbase
p159
Vamd64
p160
tp161
(dp162
Vfeaturesets
p163
(lp164
Vnone
p165
aVrt
p166
asVkernel-arch
p167
Vx86
p168
ss(Vdescription
p169
g160
NVamd64
p170
tp171
(dp172
Vhardware
p173
V64-bit PCs
p174
sVhardware-long
p175
VPCs with AMD64, Intel 64 or VIA Nano processors
p176
ss(Vbuild
p177
g160
tp178
(dp179
Vvdso
p180
I01
sVimage-file
p181
Varch/x86/boot/bzImage
p182
sVdebug-info
p183
I01
ss(Vrelations
p184
g160
tp185
(dp186
Vheaders%gcc-6
p187
Vlinux-compiler-gcc-6-x86
p188
ss(Vimage
p189
g160
tp190
(dp191
Vbreaks
p192
Vxserver-xorg-input-vmmouse (<< 1:13.0.99)
p193
sVinstall-stem
p194
Vvmlinuz
p195
sVbootloaders
p196
(lp197
Vgrub-pc
p198
aVgrub-efi-amd64
p199
aVextlinux
p200
ass(Vbase
p201
g160
Vnone
p202
tp203
(dp204
Vflavours
p205
(lp206
Vamd64
p207
ass(Vdescription
p208
g160
g202
Vamd64
p209
tp210
(dp211
Vparts
p212
(lp213
Vxen
p214
ass(Vbase
p215
g160
Vrt
p216
tp217
(dp218
Vflavours
p219
(lp220
Vamd64
p221
ass(Vbase
p222
Varm64
p223
tp224
(dp225
Vfeaturesets
p226
(lp227
Vnone
p228
asVkernel-arch
p229
Varm64
p230
ss(Vdescription
p231
g223
NVarm64
p232
tp233
(dp234
Vhardware
p235
V64-bit ARMv8 machines
p236
ss(Vbuild
p237
g223
tp238
(dp239
Vvdso
p240
I01
sVimage-file
p241
Varch/arm64/boot/Image
p242
sVdebug-info
p243
I01
ss(Vimage
p244
g223
NVarm64
p245
tp246
(dp247
s(Vimage
p248
g223
tp249
(dp250
Vbreaks
p251
Vlibmozjs185-1.0, libmozjs-24-0 (<< 24.2.0-5.1~)
p252
sVinstall-stem
p253
Vvmlinuz
p254
ss(Vbase
p255
g223
Vnone
p256
tp257
(dp258
Vflavours
p259
(lp260
Varm64
p261
ass(Vbase
p262
Varmel
p263
tp264
(dp265
g117
(lp266
g119
asVkernel-arch
p267
Varm
p268
ss(Vbuild
p269
g263
tp270
(dp271
Vsigned-modules
p272
I00
sVimage-file
p273
Varch/arm/boot/zImage
p274
ss(Vimage
p275
g263
NVmarvell
p276
tp277
(dp278
Vrecommends
p279
Vu-boot-tools
p280
sVbreaks
p281
Vflash-kernel (<< 3.57~)
p282
sVcheck-size-with-dtb
p283
I01
sVcheck-size
p284
L2097080L
ss(Vdescription
p285
g263
NVmarvell
p286
tp287
(dp288
Vhardware
p289
VMarvell Kirkwood/Orion
p290
sVhardware-long
p291
VMarvell Kirkwood based systems (SheevaPlug, QNAP TS-119/TS-219, etc)\u000aand Orion 5181, 5182 and 5281 based systems (QNAP TS-109/TS-209, etc)
p292
ss(Vrelations
p293
g263
tp294
(dp295
Vheaders%gcc-6
p296
Vlinux-compiler-gcc-6-arm
p297
ss(Vimage
p298
g263
tp299
(dp300
Vinstall-stem
p301
Vvmlinuz
p302
ss(g151
g263
g119
tp303
(dp304
g154
(lp305
Vmarvell
p306
asg158
I01
ss(Vbase
p307
Varmhf
p308
tp309
(dp310
g117
(lp311
g119
asVkernel-arch
p312
Varm
p313
ss(Vdescription
p314
g308
NVarmmp
p315
tp316
(dp317
Vhardware
p318
VARMv7 multiplatform compatible SoCs
p319
sVhardware-long
p320
VARMv7 multiplatform kernel. See\u000ahttps://wiki.debian.org/DebianKernel/ARMMP for details of supported\u000aplatforms
p321
ss(Vbuild
p322
g308
tp323
(dp324
Vvdso
p325
I01
sVimage-file
p326
Varch/arm/boot/zImage
p327
ss(Vdescription
p328
g308
NVarmmp-lpae
p329
tp330
(dp331
Vhardware
p332
VARMv7 multiplatform compatible SoCs supporting LPAE
p333
sVhardware-long
p334
VARMv7 multiplatform kernel supporting LPAE. See\u000ahttps://wiki.debian.org/DebianKernel/ARMMP for details of supported\u000aplatforms.
p335
ss(Vrelations
p336
g308
tp337
(dp338
Vheaders%gcc-6
p339
Vlinux-compiler-gcc-6-arm
p340
ss(Vimage
p341
g308
tp342
(dp343
Vinstall-stem
p344
Vvmlinuz
p345
ss(g151
g308
g119
tp346
(dp347
g154
(lp348
Varmmp
p349
aVarmmp-lpae
p350
asg158
I01
ss(Vbase
p351
Vhppa
p352
tp353
(dp354
g117
(lp355
g119
asVkernel-arch
p356
Vparisc
p357
ss(Vbuild
p358
g352
tp359
(dp360
Vsigned-modules
p361
I00
sVimage-file
p362
Vvmlinux
p363
ss(Vdescription
p364
g352
NVparisc64-smp
p365
tp366
(dp367
Vhardware
p368
Vmultiprocessor 64-bit PA-RISC
p369
sVhardware-long
p370
VHP PA-RISC 64-bit SMP systems with support for more than 4 GB RAM
p371
ss(Vbase
p372
g352
NVparisc64-smp
p373
tp374
(dp375
Vcflags
p376
V-fno-cse-follow-jumps
p377
sVoverride-host-type
p378
Vhppa64-linux-gnu
p379
ss(Vrelations
p380
g352
tp381
(dp382
Vgcc-6
p383
Vgcc-6 <!stage1 !cross>, binutils-hppa64-linux-gnu <!stage1 !cross>, gcc-6-hppa64-linux-gnu <!stage1 !cross>, gcc-6-hppa-linux-gnu:native <!stage1 cross>, binutils-hppa64-linux-gnu:native <!stage1 cross>, gcc-6-hppa64-linux-gnu:native <!stage1 cross>
p384
ss(Vdescription
p385
g352
NVparisc
p386
tp387
(dp388
Vhardware
p389
V32-bit PA-RISC
p390
sVhardware-long
p391
VHP PA-RISC 32-bit systems with max 4 GB RAM
p392
ss(Vimage
p393
g352
tp394
(dp395
Vsuggests
p396
Vpalo
p397
sVinstall-stem
p398
Vvmlinux
p399
ss(g151
g352
g119
tp400
(dp401
g154
(lp402
Vparisc
p403
aVparisc64-smp
p404
asg158
I01
ss(Vbase
p405
Vi386
p406
tp407
(dp408
Vfeaturesets
p409
(lp410
Vnone
p411
aVrt
p412
asVkernel-arch
p413
Vx86
p414
ss(Vbuild
p415
g406
tp416
(dp417
Vvdso
p418
I01
sVimage-file
p419
Varch/x86/boot/bzImage
p420
ss(Vdescription
p421
g406
NV686-pae
p422
tp423
(dp424
Vhardware
p425
Vmodern PCs
p426
sVhardware-long
p427
VPCs with one or more processors supporting PAE
p428
sVparts
p429
(lp430
Vpae
p431
ass(Vdescription
p432
g406
tp433
(dp434
Vpart-long-pae
p435
VThis kernel requires PAE (Physical Address Extension).\u000aThis feature is supported by the Intel Pentium Pro/II/III/4/4M/D, Xeon,\u000aCore and Atom; AMD Geode NX, Athlon (K7), Duron, Opteron, Sempron,\u000aTurion or Phenom; Transmeta Efficeon; VIA C7; and some other processors.
p436
ss(Vbuild
p437
g406
NV686-pae
p438
tp439
(dp440
Vdebug-info
p441
I01
ss(Vdescription
p442
g406
NV686
p443
tp444
(dp445
Vhardware
p446
Volder PCs
p447
sVhardware-long
p448
VPCs with one or more processors not supporting PAE
p449
ss(Vrelations
p450
g406
tp451
(dp452
Vheaders%gcc-6
p453
Vlinux-compiler-gcc-6-x86
p454
ss(Vimage
p455
g406
tp456
(dp457
Vbreaks
p458
Vxserver-xorg-input-vmmouse (<< 1:13.0.99)
p459
sVinstall-stem
p460
Vvmlinuz
p461
sVbootloaders
p462
(lp463
Vgrub-pc
p464
aVextlinux
p465
ass(Vbase
p466
g406
Vnone
p467
tp468
(dp469
Vflavours
p470
(lp471
V686
p472
aV686-pae
p473
ass(Vdescription
p474
g406
g467
V686-pae
p475
tp476
(dp477
Vparts
p478
(lp479
Vxen
p480
ass(Vbase
p481
g406
Vrt
p482
tp483
(dp484
Vflavours
p485
(lp486
V686-pae
p487
ass(Vbase
p488
Vm68k
p489
tp490
(dp491
Vcflags
p492
V-ffreestanding
p493
sg117
(lp494
g119
asVkernel-arch
p495
Vm68k
p496
ss(Vbuild
p497
g489
tp498
(dp499
Vsigned-modules
p500
I00
sVimage-file
p501
Vvmlinux.gz
p502
ss(Vdescription
p503
g489
NVm68k
p504
tp505
(dp506
Vhardware
p507
VMotorola MC68020+ family
p508
ss(Vimage
p509
g489
tp510
(dp511
Vsuggests
p512
Vvmelilo, fdutils
p513
sVinstall-stem
p514
Vvmlinuz
p515
ss(g151
g489
g119
tp516
(dp517
g154
(lp518
Vm68k
p519
asg158
I01
ss(Vbase
p520
Vmips
p521
tp522
(dp523
g117
(lp524
g119
asVkernel-arch
p525
Vmips
p526
ss(Vbuild
p527
g521
tp528
(dp529
Vsigned-modules
p530
I00
sVimage-file
p531
Vvmlinux
p532
ss(Vimage
p533
g521
NV4kc-malta
p534
tp535
(dp536
Vconfigs
p537
(lp538
Vkernelarch-mips/config.malta
p539
aVkernelarch-mips/config.mips32r2
p540
ass(Vimage
p541
g521
NV5kc-malta
p542
tp543
(dp544
Vconfigs
p545
(lp546
Vkernelarch-mips/config.malta
p547
aVkernelarch-mips/config.mips64r2
p548
ass(Vdescription
p549
g521
NVocteon
p550
tp551
(dp552
Vhardware
p553
VOcteon
p554
sVhardware-long
p555
VCavium Networks Octeon
p556
ss(Vimage
p557
g521
NVocteon
p558
tp559
(dp560
Vconfigs
p561
(lp562
Vkernelarch-mips/config.octeon
p563
ass(Vimage
p564
g521
tp565
(dp566
Vinstall-stem
p567
Vvmlinux
p568
ss(Vdescription
p569
g521
NV5kc-malta
p570
tp571
(dp572
Vhardware
p573
VMIPS Malta (64-bit)
p574
sVhardware-long
p575
VMIPS Malta boards (64-bit)
p576
ss(Vdescription
p577
g521
NV4kc-malta
p578
tp579
(dp580
Vhardware
p581
VMIPS Malta
p582
sVhardware-long
p583
VMIPS Malta boards
p584
ss(g151
g521
g119
tp585
(dp586
g154
(lp587
V4kc-malta
p588
aV5kc-malta
p589
aVocteon
p590
asg158
I01
ss(Vbase
p591
Vmipsel
p592
tp593
(dp594
g117
(lp595
g119
asVkernel-arch
p596
Vmips
p597
ss(Vimage
p598
g592
NVloongson-3
p599
tp600
(dp601
Vconfigs
p602
(lp603
Vkernelarch-mips/config.loongson-3
p604
ass(Vbuild
p605
g592
tp606
(dp607
Vsigned-modules
p608
I00
sVimage-file
p609
Vvmlinux
p610
ss(Vimage
p611
g592
NV4kc-malta
p612
tp613
(dp614
Vconfigs
p615
(lp616
Vkernelarch-mips/config.malta
p617
aVkernelarch-mips/config.mips32r2
p618
ass(Vimage
p619
g592
NV5kc-malta
p620
tp621
(dp622
Vconfigs
p623
(lp624
Vkernelarch-mips/config.malta
p625
aVkernelarch-mips/config.mips64r2
p626
ass(Vdescription
p627
g592
NVocteon
p628
tp629
(dp630
Vhardware
p631
VOcteon
p632
sVhardware-long
p633
VCavium Networks Octeon
p634
ss(Vdescription
p635
g592
NVloongson-3
p636
tp637
(dp638
Vhardware
p639
VLoongson 3A/3B
p640
sVhardware-long
p641
VLoongson 3A or 3B based systems (e.g. from Loongson or Lemote)
p642
ss(Vimage
p643
g592
NVocteon
p644
tp645
(dp646
Vconfigs
p647
(lp648
Vkernelarch-mips/config.octeon
p649
ass(Vimage
p650
g592
tp651
(dp652
Vinstall-stem
p653
Vvmlinux
p654
ss(Vdescription
p655
g592
NV5kc-malta
p656
tp657
(dp658
Vhardware
p659
VMIPS Malta (64-bit)
p660
sVhardware-long
p661
VMIPS Malta boards (64-bit)
p662
ss(Vdescription
p663
g592
NV4kc-malta
p664
tp665
(dp666
Vhardware
p667
VMIPS Malta
p668
sVhardware-long
p669
VMIPS Malta boards
p670
ss(g151
g592
g119
tp671
(dp672
g154
(lp673
V4kc-malta
p674
aV5kc-malta
p675
aVloongson-3
p676
aVocteon
p677
asg158
I01
ss(Vbase
p678
Vmipsn32
p679
tp680
(dp681
Vfeaturesets
p682
(lp683
sVkernel-arch
p684
Vmips
p685
ss(Vbase
p686
Vmipsn32el
p687
tp688
(dp689
Vfeaturesets
p690
(lp691
sVkernel-arch
p692
Vmips
p693
ss(Vbase
p694
Vmips64
p695
tp696
(dp697
g117
(lp698
g119
asVkernel-arch
p699
Vmips
p700
ss(Vbuild
p701
g695
tp702
(dp703
Vsigned-modules
p704
I00
sVimage-file
p705
Vvmlinux
p706
ss(Vimage
p707
g695
NV5kc-malta
p708
tp709
(dp710
Vconfigs
p711
(lp712
Vkernelarch-mips/config.malta
p713
aVkernelarch-mips/config.mips64r2
p714
ass(Vdescription
p715
g695
NVocteon
p716
tp717
(dp718
Vhardware
p719
VOcteon
p720
sVhardware-long
p721
VCavium Networks Octeon
p722
ss(Vimage
p723
g695
tp724
(dp725
Vinstall-stem
p726
Vvmlinux
p727
ss(Vdescription
p728
g695
NV5kc-malta
p729
tp730
(dp731
Vhardware
p732
VMIPS Malta
p733
sVhardware-long
p734
VMIPS Malta boards
p735
ss(Vimage
p736
g695
NVocteon
p737
tp738
(dp739
Vconfigs
p740
(lp741
Vkernelarch-mips/config.octeon
p742
ass(g151
g695
g119
tp743
(dp744
g154
(lp745
V5kc-malta
p746
aVocteon
p747
asg158
I01
ss(Vbase
p748
Vmips64el
p749
tp750
(dp751
g117
(lp752
g119
asVkernel-arch
p753
Vmips
p754
ss(Vimage
p755
g749
NVloongson-3
p756
tp757
(dp758
Vconfigs
p759
(lp760
Vkernelarch-mips/config.loongson-3
p761
ass(Vbuild
p762
g749
tp763
(dp764
Vsigned-modules
p765
I00
sVimage-file
p766
Vvmlinux
p767
ss(Vimage
p768
g749
NV5kc-malta
p769
tp770
(dp771
Vconfigs
p772
(lp773
Vkernelarch-mips/config.malta
p774
aVkernelarch-mips/config.mips64r2
p775
ass(Vdescription
p776
g749
NVocteon
p777
tp778
(dp779
Vhardware
p780
VOcteon
p781
sVhardware-long
p782
VCavium Networks Octeon
p783
ss(Vdescription
p784
g749
NVloongson-3
p785
tp786
(dp787
Vhardware
p788
VLoongson 3A/3B
p789
sVhardware-long
p790
VLoongson 3A or 3B based systems (e.g. from Loongson or Lemote)
p791
ss(Vimage
p792
g749
tp793
(dp794
Vinstall-stem
p795
Vvmlinux
p796
ss(Vdescription
p797
g749
NV5kc-malta
p798
tp799
(dp800
Vhardware
p801
VMIPS Malta
p802
sVhardware-long
p803
VMIPS Malta boards
p804
ss(Vimage
p805
g749
NVocteon
p806
tp807
(dp808
Vconfigs
p809
(lp810
Vkernelarch-mips/config.octeon
p811
ass(g151
g749
g119
tp812
(dp813
g154
(lp814
V5kc-malta
p815
aVloongson-3
p816
aVocteon
p817
asg158
I01
ss(Vbase
p818
Vpowerpc
p819
tp820
(dp821
g117
(lp822
g119
asVkernel-arch
p823
Vpowerpc
p824
ss(Vdescription
p825
g819
NVpowerpc64
p826
tp827
(dp828
Vhardware
p829
V64-bit PowerPC
p830
ss(Vbuild
p831
g819
tp832
(dp833
Vvdso
p834
I01
sVimage-file
p835
Vvmlinux
p836
ss(Vimage
p837
g819
NVpowerpc-smp
p838
tp839
(dp840
Vconfigs
p841
(lp842
Vpowerpc/config.powerpc
p843
aVpowerpc/config.powerpc-smp
p844
ass(Vdescription
p845
g819
NVpowerpc
p846
tp847
(dp848
Vhardware
p849
Vuniprocessor 32-bit PowerPC
p850
ss(Vimage
p851
g819
NVpowerpc64
p852
tp853
(dp854
Vconfigs
p855
(lp856
Vkernelarch-powerpc/config-arch-64
p857
aVkernelarch-powerpc/config-arch-64-be
p858
ass(Vdescription
p859
g819
NVpowerpc-smp
p860
tp861
(dp862
Vhardware
p863
Vmultiprocessor 32-bit PowerPC
p864
ss(Vimage
p865
g819
tp866
(dp867
Vsuggests
p868
Vmkvmlinuz
p869
sVinstall-stem
p870
Vvmlinux
p871
sVconfigs
p872
(lp873
ss(g151
g819
g119
tp874
(dp875
g154
(lp876
Vpowerpc
p877
aVpowerpc-smp
p878
aVpowerpc64
p879
asg158
I01
ss(Vbase
p880
Vpowerpcspe
p881
tp882
(dp883
g117
(lp884
g119
asVkernel-arch
p885
Vpowerpc
p886
ss(Vbuild
p887
g881
tp888
(dp889
Vsigned-modules
p890
I00
sVimage-file
p891
Vvmlinux
p892
sVvdso
p893
I01
ss(Vimage
p894
g881
tp895
(dp896
Vsuggests
p897
Vmkvmlinuz
p898
sVinstall-stem
p899
Vvmlinux
p900
ss(Vdescription
p901
g881
tp902
(dp903
Vhardware
p904
V32-bit PowerPC with SPE (instead of AltiVec) with SMP support
p905
ss(g151
g881
g119
tp906
(dp907
g154
(lp908
Vpowerpcspe
p909
asg158
I01
ss(Vbase
p910
Vppc64
p911
tp912
(dp913
g117
(lp914
g119
asVkernel-arch
p915
Vpowerpc
p916
ss(Vdescription
p917
g911
NVpowerpc64
p918
tp919
(dp920
Vhardware
p921
V64-bit PowerPC
p922
ss(Vbuild
p923
g911
tp924
(dp925
Vsigned-modules
p926
I00
sVimage-file
p927
Vvmlinux
p928
sVvdso
p929
I01
ss(Vimage
p930
g911
NVpowerpc64
p931
tp932
(dp933
Vconfigs
p934
(lp935
Vkernelarch-powerpc/config-arch-64
p936
aVkernelarch-powerpc/config-arch-64-be
p937
ass(Vimage
p938
g911
tp939
(dp940
Vsuggests
p941
Vmkvmlinuz
p942
sVinstall-stem
p943
Vvmlinux
p944
sVconfigs
p945
(lp946
ss(g151
g911
g119
tp947
(dp948
g154
(lp949
Vpowerpc64
p950
asg158
I01
ss(Vbase
p951
Vppc64el
p952
tp953
(dp954
g117
(lp955
g119
asVkernel-arch
p956
Vpowerpc
p957
ss(Vdescription
p958
g952
NVpowerpc64le
p959
tp960
(dp961
Vhardware
p962
VLittle-endian 64-bit PowerPC
p963
ss(Vbuild
p964
g952
tp965
(dp966
Vvdso
p967
I01
sVimage-file
p968
Vvmlinux
p969
ss(Vimage
p970
g952
tp971
(dp972
Vsuggests
p973
Vmkvmlinuz
p974
sVinstall-stem
p975
Vvmlinux
p976
sVconfigs
p977
(lp978
ss(Vimage
p979
g952
NVpowerpc64le
p980
tp981
(dp982
Vconfigs
p983
(lp984
Vkernelarch-powerpc/config-arch-64
p985
aVkernelarch-powerpc/config-arch-64-le
p986
ass(g151
g952
g119
tp987
(dp988
g154
(lp989
Vpowerpc64le
p990
asg158
I01
ss(Vbase
p991
Vs390
p992
tp993
(dp994
Vfeaturesets
p995
(lp996
sVkernel-arch
p997
Vs390
p998
ss(Vbase
p999
Vs390x
p1000
tp1001
(dp1002
g117
(lp1003
g119
asVkernel-arch
p1004
Vs390
p1005
ss(Vdescription
p1006
g1000
NVs390x
p1007
tp1008
(dp1009
Vhardware
p1010
VIBM zSeries
p1011
ss(Vbuild
p1012
g1000
tp1013
(dp1014
Vvdso
p1015
I01
sVimage-file
p1016
Varch/s390/boot/image
p1017
ss(Vbuild
p1018
g1000
NVs390x
p1019
tp1020
(dp1021
Vdebug-info
p1022
I01
ss(Vrelations
p1023
g1000
tp1024
(dp1025
Vheaders%gcc-6
p1026
Vlinux-compiler-gcc-6-s390
p1027
ss(Vimage
p1028
g1000
tp1029
(dp1030
Vinstall-stem
p1031
Vvmlinuz
p1032
sVbootloaders
p1033
(lp1034
Vs390-tools
p1035
ass(g151
g1000
g119
tp1036
(dp1037
g154
(lp1038
Vs390x
p1039
asg158
I01
ss(Vbase
p1040
Vsh3
p1041
tp1042
(dp1043
Vfeaturesets
p1044
(lp1045
sVkernel-arch
p1046
Vsh
p1047
ss(Vbase
p1048
Vsh4
p1049
tp1050
(dp1051
g117
(lp1052
g119
asVkernel-arch
p1053
Vsh
p1054
ss(Vbuild
p1055
g1049
tp1056
(dp1057
Vsigned-modules
p1058
I00
sVimage-file
p1059
Varch/sh/boot/zImage
p1060
ss(Vdescription
p1061
g1049
NVsh7751r
p1062
tp1063
(dp1064
Vhardware
p1065
Vsh7751r
p1066
sVhardware-long
p1067
VRenesas SH7751R R2D plus board
p1068
ss(Vdescription
p1069
g1049
NVsh7785lcr
p1070
tp1071
(dp1072
Vhardware
p1073
Vsh7785lcr
p1074
sVhardware-long
p1075
VRenesas SH7785 reference board
p1076
ss(Vimage
p1077
g1049
tp1078
(dp1079
Vinstall-stem
p1080
Vvmlinuz
p1081
ss(Vimage
p1082
g1049
NVsh7785lcr
p1083
tp1084
(dp1085
Vrecommends
p1086
Vu-boot-tools
p1087
sVcheck-size
p1088
L4194304L
ss(g151
g1049
g119
tp1089
(dp1090
g154
(lp1091
Vsh7751r
p1092
aVsh7785lcr
p1093
asg158
I01
ss(Vbase
p1094
Vsparc
p1095
tp1096
(dp1097
Vfeaturesets
p1098
(lp1099
sVkernel-arch
p1100
Vsparc
p1101
ss(Vbase
p1102
Vsparc64
p1103
tp1104
(dp1105
g117
(lp1106
g119
asVkernel-arch
p1107
Vsparc
p1108
ss(Vbuild
p1109
g1103
tp1110
(dp1111
Vsigned-modules
p1112
I00
sVimage-file
p1113
Varch/sparc/boot/zImage
p1114
ss(Vimage
p1115
g1103
NVsparc64
p1116
tp1117
(dp1118
Vconfigs
p1119
(lp1120
Vkernelarch-sparc/config-up
p1121
ass(Vimage
p1122
g1103
NVsparc64-smp
p1123
tp1124
(dp1125
Vconfigs
p1126
(lp1127
Vkernelarch-sparc/config-smp
p1128
ass(Vimage
p1129
g1103
tp1130
(dp1131
Vsuggests
p1132
Vsilo, fdutils
p1133
sVinstall-stem
p1134
Vvmlinuz
p1135
sVconfigs
p1136
(lp1137
ss(Vdescription
p1138
g1103
NVsparc64-smp
p1139
tp1140
(dp1141
Vhardware
p1142
Vmultiprocessor 64-bit UltraSPARC
p1143
ss(Vdescription
p1144
g1103
NVsparc64
p1145
tp1146
(dp1147
Vhardware
p1148
Vuniprocessor 64-bit UltraSPARC
p1149
ss(g151
g1103
g119
tp1150
(dp1151
g154
(lp1152
Vsparc64
p1153
aVsparc64-smp
p1154
asg158
I01
ss(Vbase
p1155
Vtilegx
p1156
tp1157
(dp1158
Vfeaturesets
p1159
(lp1160
sVkernel-arch
p1161
Vtile
p1162
ss(Vbase
p1163
Vx32
p1164
tp1165
(dp1166
Vfeaturesets
p1167
(lp1168
sVkernel-arch
p1169
Vx86
p1170
ss(Vdescription
p1171
NVrt
p1172
tp1173
(dp1174
Vparts
p1175
(lp1176
Vrt
p1177
asVpart-long-rt
p1178
VThis kernel includes the PREEMPT_RT realtime patch set.
p1179
sVpart-short-rt
p1180
VPREEMPT_RT
p1181
ss(Vabi
p1182
Ng1172
tp1183
(dp1184
Vignore-changes
p1185
(lp1186
V*
p1187
ass(Vversion
p1188
tp1189
(dp1190
Vupstream
p1191
V4.9
p1192
sVsource
p1193
V4.9.18-1
p1194
sVabiname
p1195
V4.9.0-2
p1196
sVabiname_base
p1197
V4.9.0
p1198
ss.