ccopy_reg
_reconstructor
p0
(cdebian_linux.config
ConfigCore
p1
c__builtin__
dict
p2
(dp3
(Vbase
p4
Vi386
p5
Vrt
p6
tp7
(dp8
Vflavours
p9
(lp10
V686-pae
p11
ass(Vbase
p12
Vmips
p13
Vnone
p14
tp15
(dp16
Vflavours
p17
(lp18
V4kc-malta
p19
aV5kc-malta
p20
aVocteon
p21
asVimplicit-flavour
p22
I01
ss(Vbase
p23
Vamd64
p24
tp25
(dp26
Vfeaturesets
p27
(lp28
Vnone
p29
aVrt
p30
asVkernel-arch
p31
Vx86
p32
ss(Vdescription
p33
g24
Vnone
p34
Vamd64
p35
tp36
(dp37
Vparts
p38
(lp39
Vxen
p40
ass(Vimage
p41
Vmipsel
p42
NVocteon
p43
tp44
(dp45
Vconfigs
p46
(lp47
Vkernelarch-mips/config.octeon
p48
ass(Vbuild
p49
Vpowerpcspe
p50
tp51
(dp52
Vvdso
p53
I01
sVsigned-modules
p54
I00
sVimage-file
p55
Vvmlinux
p56
ss(Vbuild
p57
Vs390x
p58
tp59
(dp60
Vvdso
p61
I01
sVimage-file
p62
Varch/s390/boot/image
p63
ss(Vbase
p64
Vppc64el
p65
tp66
(dp67
Vfeaturesets
p68
(lp69
g14
asVkernel-arch
p70
Vpowerpc
p71
ss(Vbase
p72
g5
Vnone
p73
tp74
(dp75
Vflavours
p76
(lp77
V686
p78
aV686-pae
p79
ass(Vdescription
p80
Varmel
p81
NVmarvell
p82
tp83
(dp84
Vhardware-long
p85
VMarvell Kirkwood based systems (SheevaPlug, QNAP TS-119/TS-219, etc)\u000aand Orion 5181, 5182 and 5281 based systems (QNAP TS-109/TS-209, etc)
p86
sVhardware
p87
VMarvell Kirkwood/Orion
p88
ss(Vdescription
p89
g42
NVocteon
p90
tp91
(dp92
Vhardware-long
p93
VCavium Networks Octeon
p94
sVhardware
p95
VOcteon
p96
ss(Vimage
p97
g42
NV4kc-malta
p98
tp99
(dp100
Vconfigs
p101
(lp102
Vkernelarch-mips/config.malta
p103
aVkernelarch-mips/config.mips32r2
p104
ass(Vdescription
p105
g65
NVpowerpc64le
p106
tp107
(dp108
Vhardware
p109
VLittle-endian 64-bit PowerPC
p110
ss(Vbase
p111
g42
tp112
(dp113
g68
(lp114
g14
asVkernel-arch
p115
Vmips
p116
ss(Vimage
p117
Vppc64
p118
tp119
(dp120
Vinstall-stem
p121
Vvmlinux
p122
sVconfigs
p123
(lp124
sVsuggests
p125
Vmkvmlinuz
p126
ss(g12
g81
g14
tp127
(dp128
g17
(lp129
Vmarvell
p130
aVversatile
p131
asg22
I01
ss(Vimage
p132
Vpowerpc
p133
NVpowerpc64
p134
tp135
(dp136
Vconfigs
p137
(lp138
Vkernelarch-powerpc/config-arch-64
p139
aVkernelarch-powerpc/config-arch-64-be
p140
ass(Vimage
p141
g81
NVmarvell
p142
tp143
(dp144
Vbreaks
p145
Vflash-kernel (<< 3.57~)
p146
sVcheck-size
p147
L2097080L
sVrecommends
p148
Vu-boot-tools
p149
sVcheck-size-with-dtb
p150
I01
ss(Vbase
p151
Varm64
p152
tp153
(dp154
Vfeaturesets
p155
(lp156
Vnone
p157
asVkernel-arch
p158
Varm64
p159
ss(Vdescription
p160
Vsparc64
p161
NVsparc64-smp
p162
tp163
(dp164
Vhardware
p165
Vmultiprocessor 64-bit UltraSPARC
p166
ss(Vimage
p167
g13
NVocteon
p168
tp169
(dp170
Vconfigs
p171
(lp172
Vkernelarch-mips/config.octeon
p173
ass(Vdescription
p174
g24
NVamd64
p175
tp176
(dp177
Vhardware-long
p178
VPCs with AMD64, Intel 64 or VIA Nano processors
p179
sVhardware
p180
V64-bit PCs
p181
ss(g12
g118
g14
tp182
(dp183
g17
(lp184
Vpowerpc64
p185
asg22
I01
ss(g12
Valpha
p186
g14
tp187
(dp188
g17
(lp189
Valpha-generic
p190
aValpha-smp
p191
asg22
I01
ss(Vdescription
p192
g5
NV686
p193
tp194
(dp195
Vhardware-long
p196
VPCs with one or more processors not supporting PAE
p197
sVhardware
p198
Volder PCs
p199
ss(Vimage
p200
Vsh4
p201
tp202
(dp203
Vinstall-stem
p204
Vvmlinuz
p205
ss(Vimage
p206
Vhppa
p207
tp208
(dp209
Vinstall-stem
p210
Vvmlinux
p211
sVsuggests
p212
Vpalo
p213
ss(Vbase
p214
Vx32
p215
tp216
(dp217
Vfeaturesets
p218
(lp219
sVkernel-arch
p220
Vx86
p221
ss(Vdescription
p222
Vmips64el
p223
NV5kc-malta
p224
tp225
(dp226
Vhardware-long
p227
VMIPS Malta boards
p228
sVhardware
p229
VMIPS Malta
p230
ss(Vdescription
p231
tp232
(dp233
Vpart-long-up
p234
VThis kernel is not suitable for SMP (multi-processor,\u000amulti-core or hyper-threaded) systems.
p235
sVpart-long-xen
p236
VThis kernel also runs on a Xen hypervisor.\u000aIt supports both privileged (dom0) and unprivileged (domU) operation.
p237
ss(Vbase
p238
g58
tp239
(dp240
g68
(lp241
g14
asVkernel-arch
p242
Vs390
p243
ss(Vimage
p244
g201
NVsh7785lcr
p245
tp246
(dp247
Vcheck-size
p248
L4194304L
sVrecommends
p249
Vu-boot-tools
p250
ss(Vdescription
p251
Vm68k
p252
NVm68k
p253
tp254
(dp255
Vhardware
p256
VMotorola MC68020+ family
p257
ss(Vbase
p258
g186
tp259
(dp260
g68
(lp261
g14
asVkernel-arch
p262
Valpha
p263
ss(Vdescription
p264
g5
NV686-pae
p265
tp266
(dp267
Vparts
p268
(lp269
Vpae
p270
asVhardware-long
p271
VPCs with one or more processors supporting PAE
p272
sVhardware
p273
Vmodern PCs
p274
ss(Vbase
p275
Vmipsn32el
p276
tp277
(dp278
Vfeaturesets
p279
(lp280
sVkernel-arch
p281
Vmips
p282
ss(Vbuild
p283
g81
tp284
(dp285
Vsigned-modules
p286
I00
sVimage-file
p287
Varch/arm/boot/zImage
p288
ss(Vimage
p289
g13
tp290
(dp291
Vinstall-stem
p292
Vvmlinux
p293
ss(Vimage
p294
g42
tp295
(dp296
Vinstall-stem
p297
Vvmlinux
p298
ss(Vdescription
p299
g42
NVloongson-3
p300
tp301
(dp302
Vhardware-long
p303
VLoongson 3A or 3B based systems (e.g. from Loongson or Lemote)
p304
sVhardware
p305
VLoongson 3A/3B
p306
ss(g12
g161
g14
tp307
(dp308
g17
(lp309
Vsparc64
p310
aVsparc64-smp
p311
asg22
I01
ss(Vimage
p312
g65
tp313
(dp314
Vinstall-stem
p315
Vvmlinux
p316
sVconfigs
p317
(lp318
sVsuggests
p319
Vmkvmlinuz
p320
ss(Vbase
p321
NVrt
p322
tp323
(dp324
Venabled
p325
I00
ss(g12
g65
g14
tp326
(dp327
g17
(lp328
Vpowerpc64le
p329
asg22
I01
ss(Vdescription
p330
g81
NVversatile
p331
tp332
(dp333
Vhardware-long
p334
VVersatile systems (PB, AB, Qemu)
p335
sVhardware
p336
VVersatile
p337
ss(Vbase
p338
g207
NVparisc64-smp
p339
tp340
(dp341
Voverride-host-type
p342
Vhppa64-linux-gnu
p343
sVcflags
p344
V-fno-cse-follow-jumps
p345
ss(Vbase
p346
g161
tp347
(dp348
g68
(lp349
g14
asVkernel-arch
p350
Vsparc
p351
ss(Vimage
p352
Vmips64
p353
NV5kc-malta
p354
tp355
(dp356
Vconfigs
p357
(lp358
Vkernelarch-mips/config.malta
p359
aVkernelarch-mips/config.mips64r2
p360
ass(Vdescription
p361
g161
NVsparc64
p362
tp363
(dp364
Vhardware
p365
Vuniprocessor 64-bit UltraSPARC
p366
ss(Vdescription
p367
g133
NVpowerpc-smp
p368
tp369
(dp370
Vhardware
p371
Vmultiprocessor 32-bit PowerPC
p372
ss(Vrelations
p373
g24
tp374
(dp375
Vheaders%gcc-5
p376
Vlinux-compiler-gcc-5-x86
p377
ss(Vbuild
p378
tp379
(dp380
Vsigned-modules
p381
I01
sVdebug-info
p382
I01
ss(g12
g58
g14
tp383
(dp384
g17
(lp385
Vs390x
p386
asg22
I01
ss(Vdescription
p387
g133
NVpowerpc
p388
tp389
(dp390
Vhardware
p391
Vuniprocessor 32-bit PowerPC
p392
ss(Vimage
p393
g223
NVocteon
p394
tp395
(dp396
Vconfigs
p397
(lp398
Vkernelarch-mips/config.octeon
p399
ass(Vimage
p400
g13
NV4kc-malta
p401
tp402
(dp403
Vconfigs
p404
(lp405
Vkernelarch-mips/config.malta
p406
aVkernelarch-mips/config.mips32r2
p407
ass(g12
g207
g14
tp408
(dp409
g17
(lp410
Vparisc
p411
aVparisc64-smp
p412
asg22
I01
ss(Vdescription
p413
g118
NVpowerpc64
p414
tp415
(dp416
Vhardware
p417
V64-bit PowerPC
p418
ss(Vdescription
p419
g201
NVsh7751r
p420
tp421
(dp422
Vhardware-long
p423
VRenesas SH7751R R2D plus board
p424
sVhardware
p425
Vsh7751r
p426
ss(Vimage
p427
g353
tp428
(dp429
Vinstall-stem
p430
Vvmlinux
p431
ss(Vimage
p432
g152
NVarm64
p433
tp434
(dp435
s(Vdescription
p436
g13
NV5kc-malta
p437
tp438
(dp439
Vhardware-long
p440
VMIPS Malta boards (64-bit)
p441
sVhardware
p442
VMIPS Malta (64-bit)
p443
ss(Vimage
p444
Varmhf
p445
tp446
(dp447
Vinstall-stem
p448
Vvmlinuz
p449
ss(Vdescription
p450
g58
NVs390x
p451
tp452
(dp453
Vhardware
p454
VIBM zSeries
p455
ss(Vrelations
p456
g58
tp457
(dp458
Vheaders%gcc-5
p459
Vlinux-compiler-gcc-5-s390
p460
ss(Vbase
p461
g118
tp462
(dp463
g68
(lp464
g14
asVkernel-arch
p465
Vpowerpc
p466
ss(Vdescription
p467
g186
NValpha-generic
p468
tp469
(dp470
Vhardware-long
p471
VDEC Alpha systems with extended kernel start address (Wildfire, Titan, Marvel)
p472
sVhardware
p473
VAlpha
p474
ss(Vxen
p475
g24
g34
Vamd64
p476
tp477
(dp478
Vflavours
p479
(lp480
Vamd64
p481
ass(Vabi
p482
NVrt
p483
tp484
(dp485
Vignore-changes
p486
(lp487
V*
p488
ass(Vdescription
p489
g13
NV4kc-malta
p490
tp491
(dp492
Vhardware-long
p493
VMIPS Malta boards
p494
sVhardware
p495
VMIPS Malta
p496
ss(Vbase
p497
g353
tp498
(dp499
g68
(lp500
g14
asVkernel-arch
p501
Vmips
p502
ss(Vdescription
p503
g223
NVocteon
p504
tp505
(dp506
Vhardware-long
p507
VCavium Networks Octeon
p508
sVhardware
p509
VOcteon
p510
ss(Vimage
p511
g118
NVpowerpc64
p512
tp513
(dp514
Vconfigs
p515
(lp516
Vkernelarch-powerpc/config-arch-64
p517
aVkernelarch-powerpc/config-arch-64-be
p518
ass(Vbase
p519
Vtilegx
p520
tp521
(dp522
Vfeaturesets
p523
(lp524
sVkernel-arch
p525
Vtile
p526
ss(Vbuild
p527
g5
NV686-pae
p528
tp529
(dp530
Vdebug-info
p531
I01
ss(Vdescription
p532
Ng483
tp533
(dp534
Vpart-short-rt
p535
VPREEMPT_RT
p536
sVparts
p537
(lp538
Vrt
p539
asVpart-long-rt
p540
VThis kernel includes the PREEMPT_RT realtime patch set.
p541
ss(Vbuild
p542
g161
tp543
(dp544
Vsigned-modules
p545
I00
sVimage-file
p546
Varch/sparc/boot/zImage
p547
ss(g12
g353
g14
tp548
(dp549
g17
(lp550
V5kc-malta
p551
aVocteon
p552
asg22
I01
ss(g12
g50
g14
tp553
(dp554
g17
(lp555
Vpowerpcspe
p556
asg22
I01
ss(Vdescription
p557
g353
NVocteon
p558
tp559
(dp560
Vhardware-long
p561
VCavium Networks Octeon
p562
sVhardware
p563
VOcteon
p564
ss(Vimage
p565
g5
tp566
(dp567
Vinstall-stem
p568
Vvmlinuz
p569
sVbreaks
p570
Vxserver-xorg-input-vmmouse (<< 1:13.0.99)
p571
sVbootloaders
p572
(lp573
Vgrub-pc
p574
aVextlinux
p575
ass(Vrelations
p576
g5
tp577
(dp578
Vheaders%gcc-5
p579
Vlinux-compiler-gcc-5-x86
p580
ss(Vdescription
p581
g445
NVarmmp-lpae
p582
tp583
(dp584
Vhardware-long
p585
VARMv7 multiplatform kernel supporting LPAE. See\u000ahttps://wiki.debian.org/DebianKernel/ARMMP for details of supported\u000aplatforms.
p586
sVhardware
p587
VARMv7 multiplatform compatible SoCs supporting LPAE
p588
ss(Vbase
p589
Vs390
p590
tp591
(dp592
Vfeaturesets
p593
(lp594
sVkernel-arch
p595
Vs390
p596
ss(Vdescription
p597
g223
NVloongson-3
p598
tp599
(dp600
Vhardware-long
p601
VLoongson 3A or 3B based systems (e.g. from Loongson or Lemote)
p602
sVhardware
p603
VLoongson 3A/3B
p604
ss(Vbase
p605
g13
tp606
(dp607
g68
(lp608
g14
asVkernel-arch
p609
Vmips
p610
ss(Vbuild
p611
g58
NVs390x
p612
tp613
(dp614
Vdebug-info
p615
I01
ss(Vbase
p616
g133
tp617
(dp618
g68
(lp619
g14
asVkernel-arch
p620
Vpowerpc
p621
ss(Vimage
p622
g161
NVsparc64-smp
p623
tp624
(dp625
Vconfigs
p626
(lp627
Vkernelarch-sparc/config-smp
p628
ass(Vbase
p629
g223
tp630
(dp631
g68
(lp632
g14
asVkernel-arch
p633
Vmips
p634
ss(Vbuild
p635
g186
tp636
(dp637
Vsigned-modules
p638
I00
sVimage-file
p639
Varch/alpha/boot/vmlinux.gz
p640
ss(Vimage
p641
tp642
(dp643
Vinitramfs-generators
p644
(lp645
Vinitramfs-tools
p646
aVinitramfs-fallback
p647
ass(Vbase
p648
g50
tp649
(dp650
g68
(lp651
g14
asVkernel-arch
p652
Vpowerpc
p653
ss(Vdescription
p654
g13
NVocteon
p655
tp656
(dp657
Vhardware-long
p658
VCavium Networks Octeon
p659
sVhardware
p660
VOcteon
p661
ss(g12
g133
g14
tp662
(dp663
g17
(lp664
Vpowerpc
p665
aVpowerpc-smp
p666
aVpowerpc64
p667
asg22
I01
ss(Vimage
p668
g42
NVloongson-3
p669
tp670
(dp671
Vconfigs
p672
(lp673
Vkernelarch-mips/config.loongson-3
p674
ass(Vdescription
p675
g5
tp676
(dp677
Vpart-long-pae
p678
VThis kernel requires PAE (Physical Address Extension).\u000aThis feature is supported by the Intel Pentium Pro/II/III/4/4M/D, Xeon,\u000aCore and Atom; AMD Geode NX, Athlon (K7), Duron, Opteron, Sempron,\u000aTurion or Phenom; Transmeta Efficeon; VIA C7; and some other processors.
p679
ss(Vimage
p680
g252
tp681
(dp682
Vinstall-stem
p683
Vvmlinuz
p684
sVsuggests
p685
Vvmelilo, fdutils
p686
ss(Vdescription
p687
g133
NVpowerpc64
p688
tp689
(dp690
Vhardware
p691
V64-bit PowerPC
p692
ss(Vrelations
p693
g445
tp694
(dp695
Vheaders%gcc-5
p696
Vlinux-compiler-gcc-5-arm
p697
ss(Vimage
p698
g223
NVloongson-3
p699
tp700
(dp701
Vconfigs
p702
(lp703
Vkernelarch-mips/config.loongson-3
p704
ass(Vbase
p705
Vsparc
p706
tp707
(dp708
Vfeaturesets
p709
(lp710
sVkernel-arch
p711
Vsparc
p712
ss(Vrelations
p713
g207
tp714
(dp715
Vgcc-5
p716
Vgcc-5 <!stage1 !cross>, binutils-hppa64-linux-gnu <!stage1 !cross>, gcc-5-hppa64-linux-gnu <!stage1 !cross>, gcc-5-hppa-linux-gnu:native <!stage1 cross>, binutils-hppa64-linux-gnu:native <!stage1 cross>, gcc-5-hppa64-linux-gnu:native <!stage1 cross>
p717
ss(Vrelations
p718
g81
tp719
(dp720
Vheaders%gcc-5
p721
Vlinux-compiler-gcc-5-arm
p722
ss(Vimage
p723
g42
NV5kc-malta
p724
tp725
(dp726
Vconfigs
p727
(lp728
Vkernelarch-mips/config.malta
p729
aVkernelarch-mips/config.mips64r2
p730
ass(Vimage
p731
g186
tp732
(dp733
Vinstall-stem
p734
Vvmlinuz
p735
sVsuggests
p736
Vaboot, fdutils
p737
ss(Vdescription
p738
g5
g73
V686-pae
p739
tp740
(dp741
Vparts
p742
(lp743
Vxen
p744
ass(Vbase
p745
tp746
(dp747
Vfeaturesets
p748
(lp749
Vnone
p750
aVrt
p751
asVcompiler
p752
Vgcc-5
p753
sVarches
p754
(lp755
Valpha
p756
aVamd64
p757
aVarm64
p758
aVarmel
p759
aVarmhf
p760
aVhppa
p761
aVi386
p762
aVm68k
p763
aVmips
p764
aVmipsel
p765
aVmipsn32
p766
aVmipsn32el
p767
aVmips64
p768
aVmips64el
p769
aVor1k
p770
aVpowerpc
p771
aVpowerpcspe
p772
aVppc64
p773
aVppc64el
p774
aVs390
p775
aVs390x
p776
aVsh4
p777
aVsparc
p778
aVsparc64
p779
aVtilegx
p780
aVx32
p781
ass(Vimage
p782
g223
tp783
(dp784
Vinstall-stem
p785
Vvmlinux
p786
ss(Vversion
p787
tp788
(dp789
Vupstream
p790
V4.7
p791
sVsource
p792
V4.7.8-1
p793
sVabiname
p794
V4.7.0-1
p795
sVabiname_base
p796
V4.7.0
p797
ss(Vdescription
p798
g50
tp799
(dp800
Vhardware
p801
V32-bit PowerPC with SPE (instead of AltiVec) with SMP support
p802
ss(Vimage
p803
g133
tp804
(dp805
Vinstall-stem
p806
Vvmlinux
p807
sVconfigs
p808
(lp809
sVsuggests
p810
Vmkvmlinuz
p811
ss(g12
g42
g14
tp812
(dp813
g17
(lp814
V4kc-malta
p815
aV5kc-malta
p816
aVloongson-3
p817
aVocteon
p818
asg22
I01
ss(Vbuild
p819
g5
tp820
(dp821
Vvdso
p822
I01
sVimage-file
p823
Varch/x86/boot/bzImage
p824
ss(Vbuild
p825
g133
tp826
(dp827
Vvdso
p828
I01
sVimage-file
p829
Vvmlinux
p830
ss(Vimage
p831
g65
NVpowerpc64le
p832
tp833
(dp834
Vconfigs
p835
(lp836
Vkernelarch-powerpc/config-arch-64
p837
aVkernelarch-powerpc/config-arch-64-le
p838
ass(Vbuild
p839
g223
tp840
(dp841
Vsigned-modules
p842
I00
sVimage-file
p843
Vvmlinux
p844
ss(Vimage
p845
g152
tp846
(dp847
Vinstall-stem
p848
Vvmlinuz
p849
ss(Vdescription
p850
g201
NVsh7785lcr
p851
tp852
(dp853
Vhardware-long
p854
VRenesas SH7785 reference board
p855
sVhardware
p856
Vsh7785lcr
p857
ss(Vbase
p858
g5
tp859
(dp860
Vfeaturesets
p861
(lp862
Vnone
p863
aVrt
p864
asVkernel-arch
p865
Vx86
p866
ss(Vdescription
p867
g445
NVarmmp
p868
tp869
(dp870
Vhardware-long
p871
VARMv7 multiplatform kernel. See\u000ahttps://wiki.debian.org/DebianKernel/ARMMP for details of supported\u000aplatforms
p872
sVhardware
p873
VARMv7 multiplatform compatible SoCs
p874
ss(Vimage
p875
g161
NVsparc64
p876
tp877
(dp878
Vconfigs
p879
(lp880
Vkernelarch-sparc/config-up
p881
ass(Vimage
p882
g353
NVocteon
p883
tp884
(dp885
Vconfigs
p886
(lp887
Vkernelarch-mips/config.octeon
p888
ass(g12
g223
g14
tp889
(dp890
g17
(lp891
V5kc-malta
p892
aVloongson-3
p893
aVocteon
p894
asg22
I01
ss(Vbuild
p895
g152
tp896
(dp897
Vvdso
p898
I01
sVdebug-info
p899
I01
sVimage-file
p900
Varch/arm64/boot/Image
p901
ss(Vdescription
p902
g42
NV4kc-malta
p903
tp904
(dp905
Vhardware-long
p906
VMIPS Malta boards
p907
sVhardware
p908
VMIPS Malta
p909
ss(Vbase
p910
g252
tp911
(dp912
g68
(lp913
g14
asVkernel-arch
p914
Vm68k
p915
sVcflags
p916
V-ffreestanding
p917
ss(Vabi
p918
tp919
(dp920
Vignore-changes
p921
(lp922
Vceph_monc_do_statfs
p923
aVfsnotify_*_group
p924
aVfsnotify_*_mark
p925
aVmodule:drivers/net/can/*
p926
asVabiname
p927
V1
p928
ss(g12
g445
g14
tp929
(dp930
g17
(lp931
Varmmp
p932
aVarmmp-lpae
p933
asg22
I01
ss(g12
g201
g14
tp934
(dp935
g17
(lp936
Vsh7751r
p937
aVsh7785lcr
p938
asg22
I01
ss(Vbase
p939
Vor1k
p940
tp941
(dp942
Vfeaturesets
p943
(lp944
sVkernel-arch
p945
Vopenrisc
p946
ss(Vbuild
p947
g353
tp948
(dp949
Vsigned-modules
p950
I00
sVimage-file
p951
Vvmlinux
p952
ss(Vbuild
p953
g252
tp954
(dp955
Vsigned-modules
p956
I00
sVimage-file
p957
Vvmlinux.gz
p958
ss(Vbase
p959
Vmipsn32
p960
tp961
(dp962
Vfeaturesets
p963
(lp964
sVkernel-arch
p965
Vmips
p966
ss(Vdescription
p967
g186
NValpha-smp
p968
tp969
(dp970
Vhardware-long
p971
VDEC Alpha SMP systems with extended kernel start address (Wildfire, Titan, Marvel)
p972
sVhardware
p973
VAlpha SMP
p974
ss(Vbase
p975
g445
tp976
(dp977
g68
(lp978
g14
asVkernel-arch
p979
Varm
p980
ss(Vbase
p981
g207
tp982
(dp983
g68
(lp984
g14
asVkernel-arch
p985
Vparisc
p986
ss(Vbase
p987
g24
g34
tp988
(dp989
Vflavours
p990
(lp991
Vamd64
p992
ass(Vbase
p993
g24
Vrt
p994
tp995
(dp996
Vflavours
p997
(lp998
Vamd64
p999
ass(Vbuild
p1000
g65
tp1001
(dp1002
Vvdso
p1003
I01
sVimage-file
p1004
Vvmlinux
p1005
ss(g12
g252
g14
tp1006
(dp1007
g17
(lp1008
Vm68k
p1009
asg22
I01
ss(Vimage
p1010
g58
tp1011
(dp1012
Vinstall-stem
p1013
Vvmlinuz
p1014
sVbootloaders
p1015
(lp1016
Vs390-tools
p1017
ass(Vimage
p1018
g13
NV5kc-malta
p1019
tp1020
(dp1021
Vconfigs
p1022
(lp1023
Vkernelarch-mips/config.malta
p1024
aVkernelarch-mips/config.mips64r2
p1025
ass(Vdescription
p1026
g152
NVarm64
p1027
tp1028
(dp1029
Vhardware
p1030
V64-bit ARMv8 machines
p1031
ss(Vbuild
p1032
g118
tp1033
(dp1034
Vvdso
p1035
I01
sVsigned-modules
p1036
I00
sVimage-file
p1037
Vvmlinux
p1038
ss(Vbase
p1039
g152
Vnone
p1040
tp1041
(dp1042
Vflavours
p1043
(lp1044
Varm64
p1045
ass(Vbuild
p1046
g42
tp1047
(dp1048
Vsigned-modules
p1049
I00
sVimage-file
p1050
Vvmlinux
p1051
ss(Vbase
p1052
g81
tp1053
(dp1054
g68
(lp1055
g14
asVkernel-arch
p1056
Varm
p1057
ss(Vimage
p1058
g50
tp1059
(dp1060
Vinstall-stem
p1061
Vvmlinux
p1062
sVsuggests
p1063
Vmkvmlinuz
p1064
ss(Vrelations
p1065
tp1066
(dp1067
Vgcc-5
p1068
Vgcc-5 <!stage1 !cross>, gcc-5-@gnu-type-package@:native <!stage1 cross>
p1069
sVinitramfs-tools
p1070
Vinitramfs-tools (>= 0.110~)
p1071
sVinitramfs-fallback
p1072
Vlinux-initramfs-tool
p1073
ss(Vimage
p1074
g161
tp1075
(dp1076
Vinstall-stem
p1077
Vvmlinuz
p1078
sVconfigs
p1079
(lp1080
sVsuggests
p1081
Vsilo, fdutils
p1082
ss(Vdescription
p1083
g207
NVparisc64-smp
p1084
tp1085
(dp1086
Vhardware-long
p1087
VHP PA-RISC 64-bit SMP systems with support for more than 4 GB RAM
p1088
sVhardware
p1089
Vmultiprocessor 64-bit PA-RISC
p1090
ss(Vdescription
p1091
g353
NV5kc-malta
p1092
tp1093
(dp1094
Vhardware-long
p1095
VMIPS Malta boards
p1096
sVhardware
p1097
VMIPS Malta
p1098
ss(Vimage
p1099
g223
NV5kc-malta
p1100
tp1101
(dp1102
Vconfigs
p1103
(lp1104
Vkernelarch-mips/config.malta
p1105
aVkernelarch-mips/config.mips64r2
p1106
ass(Vdescription
p1107
g207
NVparisc
p1108
tp1109
(dp1110
Vhardware-long
p1111
VHP PA-RISC 32-bit systems with max 4 GB RAM
p1112
sVhardware
p1113
V32-bit PA-RISC
p1114
ss(Vimage
p1115
g133
NVpowerpc-smp
p1116
tp1117
(dp1118
Vconfigs
p1119
(lp1120
Vpowerpc/config.powerpc
p1121
aVpowerpc/config.powerpc-smp
p1122
ass(Vbuild
p1123
g13
tp1124
(dp1125
Vsigned-modules
p1126
I00
sVimage-file
p1127
Vvmlinux
p1128
ss(Vimage
p1129
g81
tp1130
(dp1131
Vinstall-stem
p1132
Vvmlinuz
p1133
ss(Vbase
p1134
g201
tp1135
(dp1136
g68
(lp1137
g14
asVkernel-arch
p1138
Vsh
p1139
ss(Vdescription
p1140
g42
NV5kc-malta
p1141
tp1142
(dp1143
Vhardware-long
p1144
VMIPS Malta boards (64-bit)
p1145
sVhardware
p1146
VMIPS Malta (64-bit)
p1147
ss(Vbuild
p1148
g445
tp1149
(dp1150
Vvdso
p1151
I01
sVimage-file
p1152
Varch/arm/boot/zImage
p1153
ss(Vimage
p1154
g24
tp1155
(dp1156
Vinstall-stem
p1157
Vvmlinuz
p1158
sVbreaks
p1159
Vxserver-xorg-input-vmmouse (<< 1:13.0.99)
p1160
sVbootloaders
p1161
(lp1162
Vgrub-pc
p1163
aVgrub-efi-amd64
p1164
aVextlinux
p1165
ass(Vbuild
p1166
g207
tp1167
(dp1168
Vsigned-modules
p1169
I00
sVimage-file
p1170
Vvmlinux
p1171
ss(Vbuild
p1172
g201
tp1173
(dp1174
Vsigned-modules
p1175
I00
sVimage-file
p1176
Varch/sh/boot/zImage
p1177
ss(Vbuild
p1178
g24
tp1179
(dp1180
Vvdso
p1181
I01
sVdebug-info
p1182
I01
sVimage-file
p1183
Varch/x86/boot/bzImage
p1184
sstp1185
Rp1186
.