cdebian_linux.config
ConfigCore
p0
(tRp1
(Vabi
p2
tp3
(dp4
Vabiname
p5
V6
p6
sVignore-changes
p7
(lp8
V__cpuhp_*
p9
aVbpf_analyzer
p10
aVboot_cpu_data
p11
aVcxl_*
p12
aVcpu_info
p13
aVinet_frag_*
p14
aVinet_frags_*
p15
aVx86_hyper
p16
aVx86_hyper_*
p17
aVxen_xlate_map_ballooned_pages
p18
aVmm_iommu_*
p19
aVmv_mbus_*
p20
aVpaca
p21
aVregister_cxl_calls
p22
aVregister_key_type
p23
aVunregister_cxl_calls
p24
aVmodule:arch/x86/kvm/*
p25
aVmodule:drivers/crypto/ccp/*
p26
aVmodule:drivers/hv/*
p27
aVmodule:drivers/iio/common/hid-sensors/*
p28
aVmodule:drivers/iio/common/st_sensors/**
p29
aVmodule:drivers/net/wireless/**
p30
aVmodule:drivers/nvdimm/*
p31
aVmodule:drivers/power/supply/bq27xxx_battery
p32
aVmodule:drivers/s390/net/qeth
p33
aVmodule:drivers/s390/net/qeth*
p34
aVmodule:drivers/scsi/cxgbi/*
p35
aVmodule:drivers/scsi/libiscs*
p36
aVmodule:drivers/scsi/qla2xxx/qla2xxx
p37
aVmodule:drivers/scsi/ufs/*
p38
aVmodule:drivers/target/**
p39
aVmodule:drivers/usb/chipidea/**
p40
aVmodule:drivers/usb/gadget/**
p41
aVmodule:drivers/usb/host/**
p42
aVmodule:drivers/usb/musb/**
p43
aVmodule:fs/jbd2/jbd2
p44
aVmodule:fs/nfs/nfs
p45
aVmodule:net/ceph/libceph
p46
aVmodule:net/l2tp/**
p47
aVmodule:sound/firewire/snd-firewire-lib
p48
aVtpm_tis_*
p49
aVbtree_*
p50
aVvisitor*
p51
aVcan_rx_register
p52
aVip6_xmit
p53
aVmodule:net/dccp/dccp
p54
aVmodule:net/rds/rds
p55
aVdevfreq_*
p56
aVdevm_devfreq_*
p57
aVupdate_devfreq
p58
aVmodule:drivers/infiniband/**
p59
aVacpi_ec_add_query_handler
p60
aVacpi_ec_remove_query_handler
p61
aVfirst_ec
p62
aVdebugfs_create_automount
p63
aV__clear_rsb
p64
aV__fill_rsb
p65
aVcpu_tlbstate
p66
ass(Vbase
p67
tp68
(dp69
Varches
p70
(lp71
Valpha
p72
aVamd64
p73
aVarm64
p74
aVarmel
p75
aVarmhf
p76
aVhppa
p77
aVi386
p78
aVm68k
p79
aVmips
p80
aVmipsel
p81
aVmipsn32
p82
aVmipsn32el
p83
aVmips64
p84
aVmips64el
p85
aVpowerpc
p86
aVpowerpcspe
p87
aVppc64
p88
aVppc64el
p89
aVs390
p90
aVs390x
p91
aVsh3
p92
aVsh4
p93
aVsparc
p94
aVsparc64
p95
aVtilegx
p96
aVx32
p97
asVcompiler
p98
Vgcc-6
p99
sVfeaturesets
p100
(lp101
Vnone
p102
aVrt
p103
ass(Vbuild
p104
tp105
(dp106
Vdebug-info
p107
I01
sVsigned-modules
p108
I00
ss(Vbase
p109
NVrt
p110
tp111
(dp112
Venabled
p113
I01
ss(Vdescription
p114
tp115
(dp116
Vpart-long-up
p117
VThis kernel is not suitable for SMP (multi-processor,\u000amulti-core or hyper-threaded) systems.
p118
sVpart-long-xen
p119
VThis kernel also runs on a Xen hypervisor.\u000aIt supports both privileged (dom0) and unprivileged (domU) operation.
p120
ss(Vimage
p121
tp122
(dp123
Vinitramfs-generators
p124
(lp125
Vinitramfs-tools
p126
aVinitramfs-fallback
p127
ass(Vrelations
p128
tp129
(dp130
Vgcc-6
p131
Vgcc-6 <!stage1 !cross>, gcc-6-@gnu-type-package@ <!stage1 cross>
p132
sVinitramfs-fallback
p133
Vlinux-initramfs-tool
p134
sVinitramfs-tools
p135
Vinitramfs-tools (>= 0.120+deb8u2)
p136
ss(Vbase
p137
Valpha
p138
tp139
(dp140
Vkernel-arch
p141
Valpha
p142
sVfeaturesets
p143
(lp144
Vnone
p145
ass(Vbuild
p146
g138
tp147
(dp148
Vimage-file
p149
Varch/alpha/boot/vmlinux.gz
p150
sVsigned-modules
p151
I00
ss(Vimage
p152
g138
tp153
(dp154
Vsuggests
p155
Vaboot, fdutils
p156
sVinstall-stem
p157
Vvmlinuz
p158
ss(Vdescription
p159
g138
NValpha-generic
p160
tp161
(dp162
Vhardware
p163
VAlpha
p164
sVhardware-long
p165
VDEC Alpha systems with extended kernel start address (Wildfire, Titan, Marvel)
p166
ss(Vdescription
p167
g138
NValpha-smp
p168
tp169
(dp170
Vhardware
p171
VAlpha SMP
p172
sVhardware-long
p173
VDEC Alpha SMP systems with extended kernel start address (Wildfire, Titan, Marvel)
p174
ss(Vbase
p175
g138
g145
tp176
(dp177
Vflavours
p178
(lp179
Valpha-generic
p180
aValpha-smp
p181
asVimplicit-flavour
p182
I01
ss(Vbase
p183
Vamd64
p184
tp185
(dp186
Vfeaturesets
p187
(lp188
Vnone
p189
aVrt
p190
asVkernel-arch
p191
Vx86
p192
ss(Vbuild
p193
g184
tp194
(dp195
Vdebug-info
p196
I01
sVimage-file
p197
Varch/x86/boot/bzImage
p198
sVvdso
p199
I01
ss(Vimage
p200
g184
tp201
(dp202
Vbootloaders
p203
(lp204
Vgrub-pc
p205
aVgrub-efi-amd64
p206
aVextlinux
p207
asVinstall-stem
p208
Vvmlinuz
p209
sVbreaks
p210
Vxserver-xorg-input-vmmouse (<< 1:13.0.99)
p211
ss(Vrelations
p212
g184
tp213
(dp214
Vgcc-6
p215
Vgcc-6 (>= 6.3.0-18+deb9u1~) <!stage1 !cross>, gcc-6-@gnu-type-package@ (>= 6.3.0-18+deb9u1~) <!stage1 cross>
p216
sVheaders%gcc-6
p217
Vlinux-compiler-gcc-6-x86 (>= 4.9.82-1+deb9u1~)
p218
ss(Vdescription
p219
g184
NVamd64
p220
tp221
(dp222
Vhardware
p223
V64-bit PCs
p224
sVhardware-long
p225
VPCs with AMD64, Intel 64 or VIA Nano processors
p226
ss(Vbase
p227
g184
Vnone
p228
tp229
(dp230
Vflavours
p231
(lp232
Vamd64
p233
ass(Vdescription
p234
g184
g228
Vamd64
p235
tp236
(dp237
Vparts
p238
(lp239
Vxen
p240
ass(Vbase
p241
g184
Vrt
p242
tp243
(dp244
Vflavours
p245
(lp246
Vamd64
p247
ass(Vbase
p248
Varm64
p249
tp250
(dp251
Vkernel-arch
p252
Varm64
p253
sVfeaturesets
p254
(lp255
Vnone
p256
ass(Vbuild
p257
g249
tp258
(dp259
Vdebug-info
p260
I01
sVimage-file
p261
Varch/arm64/boot/Image
p262
sVvdso
p263
I01
ss(Vimage
p264
g249
tp265
(dp266
Vinstall-stem
p267
Vvmlinuz
p268
sVbreaks
p269
Vlibmozjs185-1.0, libmozjs-24-0 (<< 24.2.0-5.1~)
p270
ss(Vdescription
p271
g249
NVarm64
p272
tp273
(dp274
Vhardware
p275
V64-bit ARMv8 machines
p276
ss(Vimage
p277
g249
NVarm64
p278
tp279
(dp280
s(Vbase
p281
g249
Vnone
p282
tp283
(dp284
Vflavours
p285
(lp286
Varm64
p287
ass(Vbase
p288
Varmel
p289
tp290
(dp291
Vkernel-arch
p292
Varm
p293
sg143
(lp294
g145
ass(Vbuild
p295
g289
tp296
(dp297
Vimage-file
p298
Varch/arm/boot/zImage
p299
sVsigned-modules
p300
I00
ss(Vimage
p301
g289
tp302
(dp303
Vinstall-stem
p304
Vvmlinuz
p305
ss(Vrelations
p306
g289
tp307
(dp308
Vheaders%gcc-6
p309
Vlinux-compiler-gcc-6-arm
p310
ss(Vdescription
p311
g289
NVmarvell
p312
tp313
(dp314
Vhardware
p315
VMarvell Kirkwood/Orion
p316
sVhardware-long
p317
VMarvell Kirkwood based systems (SheevaPlug, QNAP TS-119/TS-219, etc)\u000aand Orion 5181, 5182 and 5281 based systems (QNAP TS-109/TS-209, etc)
p318
ss(Vimage
p319
g289
NVmarvell
p320
tp321
(dp322
Vrecommends
p323
Vu-boot-tools
p324
sVcheck-size
p325
L2097080L
sVcheck-size-with-dtb
p326
I01
sVbreaks
p327
Vflash-kernel (<< 3.57~)
p328
ss(g175
g289
g145
tp329
(dp330
g178
(lp331
Vmarvell
p332
asg182
I01
ss(Vbase
p333
Varmhf
p334
tp335
(dp336
Vkernel-arch
p337
Varm
p338
sg143
(lp339
g145
ass(Vbuild
p340
g334
tp341
(dp342
Vimage-file
p343
Varch/arm/boot/zImage
p344
sVvdso
p345
I01
ss(Vimage
p346
g334
tp347
(dp348
Vinstall-stem
p349
Vvmlinuz
p350
ss(Vrelations
p351
g334
tp352
(dp353
Vheaders%gcc-6
p354
Vlinux-compiler-gcc-6-arm
p355
ss(Vdescription
p356
g334
NVarmmp
p357
tp358
(dp359
Vhardware
p360
VARMv7 multiplatform compatible SoCs
p361
sVhardware-long
p362
VARMv7 multiplatform kernel. See\u000ahttps://wiki.debian.org/DebianKernel/ARMMP for details of supported\u000aplatforms
p363
ss(Vdescription
p364
g334
NVarmmp-lpae
p365
tp366
(dp367
Vhardware
p368
VARMv7 multiplatform compatible SoCs supporting LPAE
p369
sVhardware-long
p370
VARMv7 multiplatform kernel supporting LPAE. See\u000ahttps://wiki.debian.org/DebianKernel/ARMMP for details of supported\u000aplatforms.
p371
ss(g175
g334
g145
tp372
(dp373
g178
(lp374
Varmmp
p375
aVarmmp-lpae
p376
asg182
I01
ss(Vbase
p377
Vhppa
p378
tp379
(dp380
Vkernel-arch
p381
Vparisc
p382
sg143
(lp383
g145
ass(Vbuild
p384
g378
tp385
(dp386
Vimage-file
p387
Vvmlinux
p388
sVsigned-modules
p389
I00
ss(Vimage
p390
g378
tp391
(dp392
Vsuggests
p393
Vpalo
p394
sVinstall-stem
p395
Vvmlinux
p396
ss(Vdescription
p397
g378
NVparisc
p398
tp399
(dp400
Vhardware
p401
V32-bit PA-RISC
p402
sVhardware-long
p403
VHP PA-RISC 32-bit systems with max 4 GB RAM
p404
ss(Vbase
p405
g378
NVparisc64-smp
p406
tp407
(dp408
Vcflags
p409
V-fno-cse-follow-jumps
p410
sVoverride-host-type
p411
Vhppa64-linux-gnu
p412
ss(Vdescription
p413
g378
NVparisc64-smp
p414
tp415
(dp416
Vhardware
p417
Vmultiprocessor 64-bit PA-RISC
p418
sVhardware-long
p419
VHP PA-RISC 64-bit SMP systems with support for more than 4 GB RAM
p420
ss(Vrelations
p421
g378
tp422
(dp423
Vgcc-6
p424
Vgcc-6 <!stage1 !cross>, binutils-hppa64-linux-gnu <!stage1 !cross>, gcc-6-hppa64-linux-gnu <!stage1 !cross>, gcc-6-hppa-linux-gnu <!stage1 cross>, binutils-hppa64-linux-gnu <!stage1 cross>, gcc-6-hppa64-linux-gnu <!stage1 cross>
p425
ss(g175
g378
g145
tp426
(dp427
g178
(lp428
Vparisc
p429
aVparisc64-smp
p430
asg182
I01
ss(Vbase
p431
Vi386
p432
tp433
(dp434
Vfeaturesets
p435
(lp436
Vnone
p437
aVrt
p438
asVkernel-arch
p439
Vx86
p440
ss(Vbuild
p441
g432
tp442
(dp443
Vimage-file
p444
Varch/x86/boot/bzImage
p445
sVvdso
p446
I01
ss(Vdescription
p447
g432
tp448
(dp449
Vpart-long-pae
p450
VThis kernel requires PAE (Physical Address Extension).\u000aThis feature is supported by the Intel Pentium Pro/II/III/4/4M/D, Xeon,\u000aCore and Atom; AMD Geode NX, Athlon (K7), Duron, Opteron, Sempron,\u000aTurion or Phenom; Transmeta Efficeon; VIA C7; and some other processors.
p451
ss(Vimage
p452
g432
tp453
(dp454
Vbootloaders
p455
(lp456
Vgrub-pc
p457
aVextlinux
p458
asVinstall-stem
p459
Vvmlinuz
p460
sVbreaks
p461
Vxserver-xorg-input-vmmouse (<< 1:13.0.99)
p462
ss(Vrelations
p463
g432
tp464
(dp465
Vgcc-6
p466
Vgcc-6 (>= 6.3.0-18+deb9u1~) <!stage1 !cross>, gcc-6-@gnu-type-package@ (>= 6.3.0-18+deb9u1~) <!stage1 cross>
p467
sVheaders%gcc-6
p468
Vlinux-compiler-gcc-6-x86 (>= 4.9.82-1+deb9u1~)
p469
ss(Vdescription
p470
g432
NV686
p471
tp472
(dp473
Vhardware
p474
Volder PCs
p475
sVhardware-long
p476
VPCs with one or more processors not supporting PAE
p477
ss(Vbuild
p478
g432
NV686-pae
p479
tp480
(dp481
Vdebug-info
p482
I01
ss(Vdescription
p483
g432
NV686-pae
p484
tp485
(dp486
Vhardware
p487
Vmodern PCs
p488
sVhardware-long
p489
VPCs with one or more processors supporting PAE
p490
sVparts
p491
(lp492
Vpae
p493
ass(Vbase
p494
g432
Vnone
p495
tp496
(dp497
Vflavours
p498
(lp499
V686
p500
aV686-pae
p501
ass(Vdescription
p502
g432
g495
V686-pae
p503
tp504
(dp505
Vparts
p506
(lp507
Vxen
p508
ass(Vbase
p509
g432
Vrt
p510
tp511
(dp512
Vflavours
p513
(lp514
V686-pae
p515
ass(Vbase
p516
Vm68k
p517
tp518
(dp519
Vcflags
p520
V-ffreestanding
p521
sVkernel-arch
p522
Vm68k
p523
sg143
(lp524
g145
ass(Vbuild
p525
g517
tp526
(dp527
Vimage-file
p528
Vvmlinux.gz
p529
sVsigned-modules
p530
I00
ss(Vimage
p531
g517
tp532
(dp533
Vsuggests
p534
Vvmelilo, fdutils
p535
sVinstall-stem
p536
Vvmlinuz
p537
ss(Vdescription
p538
g517
NVm68k
p539
tp540
(dp541
Vhardware
p542
VMotorola MC68020+ family
p543
ss(g175
g517
g145
tp544
(dp545
g178
(lp546
Vm68k
p547
asg182
I01
ss(Vbase
p548
Vmips
p549
tp550
(dp551
Vkernel-arch
p552
Vmips
p553
sg143
(lp554
g145
ass(Vbuild
p555
g549
tp556
(dp557
Vimage-file
p558
Vvmlinux
p559
sVsigned-modules
p560
I00
ss(Vimage
p561
g549
tp562
(dp563
Vinstall-stem
p564
Vvmlinux
p565
ss(Vdescription
p566
g549
NV4kc-malta
p567
tp568
(dp569
Vhardware
p570
VMIPS Malta
p571
sVhardware-long
p572
VMIPS Malta boards
p573
ss(Vimage
p574
g549
NV4kc-malta
p575
tp576
(dp577
Vconfigs
p578
(lp579
Vkernelarch-mips/config.malta
p580
aVkernelarch-mips/config.mips32r2
p581
ass(Vdescription
p582
g549
NV5kc-malta
p583
tp584
(dp585
Vhardware
p586
VMIPS Malta (64-bit)
p587
sVhardware-long
p588
VMIPS Malta boards (64-bit)
p589
ss(Vimage
p590
g549
NV5kc-malta
p591
tp592
(dp593
Vconfigs
p594
(lp595
Vkernelarch-mips/config.malta
p596
aVkernelarch-mips/config.mips64r2
p597
ass(Vdescription
p598
g549
NVocteon
p599
tp600
(dp601
Vhardware
p602
VOcteon
p603
sVhardware-long
p604
VCavium Networks Octeon
p605
ss(Vimage
p606
g549
NVocteon
p607
tp608
(dp609
Vconfigs
p610
(lp611
Vkernelarch-mips/config.octeon
p612
ass(g175
g549
g145
tp613
(dp614
g178
(lp615
V4kc-malta
p616
aV5kc-malta
p617
aVocteon
p618
asg182
I01
ss(Vbase
p619
Vmipsel
p620
tp621
(dp622
Vkernel-arch
p623
Vmips
p624
sg143
(lp625
g145
ass(Vbuild
p626
g620
tp627
(dp628
Vimage-file
p629
Vvmlinux
p630
sVsigned-modules
p631
I00
ss(Vimage
p632
g620
tp633
(dp634
Vinstall-stem
p635
Vvmlinux
p636
ss(Vdescription
p637
g620
NV4kc-malta
p638
tp639
(dp640
Vhardware
p641
VMIPS Malta
p642
sVhardware-long
p643
VMIPS Malta boards
p644
ss(Vimage
p645
g620
NV4kc-malta
p646
tp647
(dp648
Vconfigs
p649
(lp650
Vkernelarch-mips/config.malta
p651
aVkernelarch-mips/config.mips32r2
p652
ass(Vdescription
p653
g620
NV5kc-malta
p654
tp655
(dp656
Vhardware
p657
VMIPS Malta (64-bit)
p658
sVhardware-long
p659
VMIPS Malta boards (64-bit)
p660
ss(Vimage
p661
g620
NV5kc-malta
p662
tp663
(dp664
Vconfigs
p665
(lp666
Vkernelarch-mips/config.malta
p667
aVkernelarch-mips/config.mips64r2
p668
ass(Vdescription
p669
g620
NVloongson-3
p670
tp671
(dp672
Vhardware
p673
VLoongson 3A/3B
p674
sVhardware-long
p675
VLoongson 3A or 3B based systems (e.g. from Loongson or Lemote)
p676
ss(Vimage
p677
g620
NVloongson-3
p678
tp679
(dp680
Vconfigs
p681
(lp682
Vkernelarch-mips/config.loongson-3
p683
ass(Vdescription
p684
g620
NVocteon
p685
tp686
(dp687
Vhardware
p688
VOcteon
p689
sVhardware-long
p690
VCavium Networks Octeon
p691
ss(Vimage
p692
g620
NVocteon
p693
tp694
(dp695
Vconfigs
p696
(lp697
Vkernelarch-mips/config.octeon
p698
ass(g175
g620
g145
tp699
(dp700
g178
(lp701
V4kc-malta
p702
aV5kc-malta
p703
aVloongson-3
p704
aVocteon
p705
asg182
I01
ss(Vbase
p706
Vmipsn32
p707
tp708
(dp709
Vkernel-arch
p710
Vmips
p711
sVfeaturesets
p712
(lp713
ss(Vbase
p714
Vmipsn32el
p715
tp716
(dp717
Vkernel-arch
p718
Vmips
p719
sVfeaturesets
p720
(lp721
ss(Vbase
p722
Vmips64
p723
tp724
(dp725
Vkernel-arch
p726
Vmips
p727
sg143
(lp728
g145
ass(Vbuild
p729
g723
tp730
(dp731
Vimage-file
p732
Vvmlinux
p733
sVsigned-modules
p734
I00
ss(Vimage
p735
g723
tp736
(dp737
Vinstall-stem
p738
Vvmlinux
p739
ss(Vdescription
p740
g723
NV5kc-malta
p741
tp742
(dp743
Vhardware
p744
VMIPS Malta
p745
sVhardware-long
p746
VMIPS Malta boards
p747
ss(Vimage
p748
g723
NV5kc-malta
p749
tp750
(dp751
Vconfigs
p752
(lp753
Vkernelarch-mips/config.malta
p754
aVkernelarch-mips/config.mips64r2
p755
ass(Vdescription
p756
g723
NVocteon
p757
tp758
(dp759
Vhardware
p760
VOcteon
p761
sVhardware-long
p762
VCavium Networks Octeon
p763
ss(Vimage
p764
g723
NVocteon
p765
tp766
(dp767
Vconfigs
p768
(lp769
Vkernelarch-mips/config.octeon
p770
ass(g175
g723
g145
tp771
(dp772
g178
(lp773
V5kc-malta
p774
aVocteon
p775
asg182
I01
ss(Vbase
p776
Vmips64el
p777
tp778
(dp779
Vkernel-arch
p780
Vmips
p781
sg143
(lp782
g145
ass(Vbuild
p783
g777
tp784
(dp785
Vimage-file
p786
Vvmlinux
p787
sVsigned-modules
p788
I00
ss(Vimage
p789
g777
tp790
(dp791
Vinstall-stem
p792
Vvmlinux
p793
ss(Vdescription
p794
g777
NV5kc-malta
p795
tp796
(dp797
Vhardware
p798
VMIPS Malta
p799
sVhardware-long
p800
VMIPS Malta boards
p801
ss(Vimage
p802
g777
NV5kc-malta
p803
tp804
(dp805
Vconfigs
p806
(lp807
Vkernelarch-mips/config.malta
p808
aVkernelarch-mips/config.mips64r2
p809
ass(Vdescription
p810
g777
NVloongson-3
p811
tp812
(dp813
Vhardware
p814
VLoongson 3A/3B
p815
sVhardware-long
p816
VLoongson 3A or 3B based systems (e.g. from Loongson or Lemote)
p817
ss(Vimage
p818
g777
NVloongson-3
p819
tp820
(dp821
Vconfigs
p822
(lp823
Vkernelarch-mips/config.loongson-3
p824
ass(Vdescription
p825
g777
NVocteon
p826
tp827
(dp828
Vhardware
p829
VOcteon
p830
sVhardware-long
p831
VCavium Networks Octeon
p832
ss(Vimage
p833
g777
NVocteon
p834
tp835
(dp836
Vconfigs
p837
(lp838
Vkernelarch-mips/config.octeon
p839
ass(g175
g777
g145
tp840
(dp841
g178
(lp842
V5kc-malta
p843
aVloongson-3
p844
aVocteon
p845
asg182
I01
ss(Vbase
p846
Vpowerpc
p847
tp848
(dp849
Vkernel-arch
p850
Vpowerpc
p851
sg143
(lp852
g145
ass(Vbuild
p853
g847
tp854
(dp855
Vimage-file
p856
Vvmlinux
p857
sVvdso
p858
I01
ss(Vimage
p859
g847
tp860
(dp861
Vconfigs
p862
(lp863
sVsuggests
p864
Vmkvmlinuz
p865
sVinstall-stem
p866
Vvmlinux
p867
ss(Vdescription
p868
g847
NVpowerpc
p869
tp870
(dp871
Vhardware
p872
Vuniprocessor 32-bit PowerPC
p873
ss(Vdescription
p874
g847
NVpowerpc-smp
p875
tp876
(dp877
Vhardware
p878
Vmultiprocessor 32-bit PowerPC
p879
ss(Vimage
p880
g847
NVpowerpc-smp
p881
tp882
(dp883
Vconfigs
p884
(lp885
Vpowerpc/config.powerpc
p886
aVpowerpc/config.powerpc-smp
p887
ass(Vdescription
p888
g847
NVpowerpc64
p889
tp890
(dp891
Vhardware
p892
V64-bit PowerPC
p893
ss(Vimage
p894
g847
NVpowerpc64
p895
tp896
(dp897
Vconfigs
p898
(lp899
Vkernelarch-powerpc/config-arch-64
p900
aVkernelarch-powerpc/config-arch-64-be
p901
ass(g175
g847
g145
tp902
(dp903
g178
(lp904
Vpowerpc
p905
aVpowerpc-smp
p906
aVpowerpc64
p907
asg182
I01
ss(Vbase
p908
Vpowerpcspe
p909
tp910
(dp911
Vkernel-arch
p912
Vpowerpc
p913
sg143
(lp914
g145
ass(Vbuild
p915
g909
tp916
(dp917
Vimage-file
p918
Vvmlinux
p919
sVsigned-modules
p920
I00
sVvdso
p921
I01
ss(Vimage
p922
g909
tp923
(dp924
Vsuggests
p925
Vmkvmlinuz
p926
sVinstall-stem
p927
Vvmlinux
p928
ss(Vdescription
p929
g909
tp930
(dp931
Vhardware
p932
V32-bit PowerPC with SPE (instead of AltiVec) with SMP support
p933
ss(g175
g909
g145
tp934
(dp935
g178
(lp936
Vpowerpcspe
p937
asg182
I01
ss(Vbase
p938
Vppc64
p939
tp940
(dp941
Vkernel-arch
p942
Vpowerpc
p943
sg143
(lp944
g145
ass(Vbuild
p945
g939
tp946
(dp947
Vimage-file
p948
Vvmlinux
p949
sVsigned-modules
p950
I00
sVvdso
p951
I01
ss(Vimage
p952
g939
tp953
(dp954
Vconfigs
p955
(lp956
sVsuggests
p957
Vmkvmlinuz
p958
sVinstall-stem
p959
Vvmlinux
p960
ss(Vdescription
p961
g939
NVpowerpc64
p962
tp963
(dp964
Vhardware
p965
V64-bit PowerPC
p966
ss(Vimage
p967
g939
NVpowerpc64
p968
tp969
(dp970
Vconfigs
p971
(lp972
Vkernelarch-powerpc/config-arch-64
p973
aVkernelarch-powerpc/config-arch-64-be
p974
ass(g175
g939
g145
tp975
(dp976
g178
(lp977
Vpowerpc64
p978
asg182
I01
ss(Vbase
p979
Vppc64el
p980
tp981
(dp982
Vkernel-arch
p983
Vpowerpc
p984
sg143
(lp985
g145
ass(Vbuild
p986
g980
tp987
(dp988
Vimage-file
p989
Vvmlinux
p990
sVvdso
p991
I01
ss(Vimage
p992
g980
tp993
(dp994
Vconfigs
p995
(lp996
sVsuggests
p997
Vmkvmlinuz
p998
sVinstall-stem
p999
Vvmlinux
p1000
ss(Vdescription
p1001
g980
NVpowerpc64le
p1002
tp1003
(dp1004
Vhardware
p1005
VLittle-endian 64-bit PowerPC
p1006
ss(Vimage
p1007
g980
NVpowerpc64le
p1008
tp1009
(dp1010
Vconfigs
p1011
(lp1012
Vkernelarch-powerpc/config-arch-64
p1013
aVkernelarch-powerpc/config-arch-64-le
p1014
ass(g175
g980
g145
tp1015
(dp1016
g178
(lp1017
Vpowerpc64le
p1018
asg182
I01
ss(Vbase
p1019
Vs390
p1020
tp1021
(dp1022
Vkernel-arch
p1023
Vs390
p1024
sVfeaturesets
p1025
(lp1026
ss(Vbase
p1027
Vs390x
p1028
tp1029
(dp1030
Vkernel-arch
p1031
Vs390
p1032
sg143
(lp1033
g145
ass(Vbuild
p1034
g1028
tp1035
(dp1036
Vimage-file
p1037
Varch/s390/boot/image
p1038
sVvdso
p1039
I01
ss(Vimage
p1040
g1028
tp1041
(dp1042
Vbootloaders
p1043
(lp1044
Vs390-tools
p1045
asVinstall-stem
p1046
Vvmlinuz
p1047
ss(Vrelations
p1048
g1028
tp1049
(dp1050
Vheaders%gcc-6
p1051
Vlinux-compiler-gcc-6-s390
p1052
ss(Vbuild
p1053
g1028
NVs390x
p1054
tp1055
(dp1056
Vdebug-info
p1057
I01
ss(Vdescription
p1058
g1028
NVs390x
p1059
tp1060
(dp1061
Vhardware
p1062
VIBM zSeries
p1063
ss(g175
g1028
g145
tp1064
(dp1065
g178
(lp1066
Vs390x
p1067
asg182
I01
ss(Vbase
p1068
Vsh3
p1069
tp1070
(dp1071
Vkernel-arch
p1072
Vsh
p1073
sVfeaturesets
p1074
(lp1075
ss(Vbase
p1076
Vsh4
p1077
tp1078
(dp1079
Vkernel-arch
p1080
Vsh
p1081
sg143
(lp1082
g145
ass(Vbuild
p1083
g1077
tp1084
(dp1085
Vimage-file
p1086
Varch/sh/boot/zImage
p1087
sVsigned-modules
p1088
I00
ss(Vimage
p1089
g1077
tp1090
(dp1091
Vinstall-stem
p1092
Vvmlinuz
p1093
ss(Vdescription
p1094
g1077
NVsh7751r
p1095
tp1096
(dp1097
Vhardware
p1098
Vsh7751r
p1099
sVhardware-long
p1100
VRenesas SH7751R R2D plus board
p1101
ss(Vdescription
p1102
g1077
NVsh7785lcr
p1103
tp1104
(dp1105
Vhardware
p1106
Vsh7785lcr
p1107
sVhardware-long
p1108
VRenesas SH7785 reference board
p1109
ss(Vimage
p1110
g1077
NVsh7785lcr
p1111
tp1112
(dp1113
Vrecommends
p1114
Vu-boot-tools
p1115
sVcheck-size
p1116
L4194304L
ss(g175
g1077
g145
tp1117
(dp1118
g178
(lp1119
Vsh7751r
p1120
aVsh7785lcr
p1121
asg182
I01
ss(Vbase
p1122
Vsparc
p1123
tp1124
(dp1125
Vkernel-arch
p1126
Vsparc
p1127
sVfeaturesets
p1128
(lp1129
ss(Vbase
p1130
Vsparc64
p1131
tp1132
(dp1133
Vkernel-arch
p1134
Vsparc
p1135
sg143
(lp1136
g145
ass(Vbuild
p1137
g1131
tp1138
(dp1139
Vimage-file
p1140
Varch/sparc/boot/zImage
p1141
sVsigned-modules
p1142
I00
ss(Vimage
p1143
g1131
tp1144
(dp1145
Vconfigs
p1146
(lp1147
sVsuggests
p1148
Vsilo, fdutils
p1149
sVinstall-stem
p1150
Vvmlinuz
p1151
ss(Vdescription
p1152
g1131
NVsparc64
p1153
tp1154
(dp1155
Vhardware
p1156
Vuniprocessor 64-bit UltraSPARC
p1157
ss(Vimage
p1158
g1131
NVsparc64
p1159
tp1160
(dp1161
Vconfigs
p1162
(lp1163
Vkernelarch-sparc/config-up
p1164
ass(Vdescription
p1165
g1131
NVsparc64-smp
p1166
tp1167
(dp1168
Vhardware
p1169
Vmultiprocessor 64-bit UltraSPARC
p1170
ss(Vimage
p1171
g1131
NVsparc64-smp
p1172
tp1173
(dp1174
Vconfigs
p1175
(lp1176
Vkernelarch-sparc/config-smp
p1177
ass(g175
g1131
g145
tp1178
(dp1179
g178
(lp1180
Vsparc64
p1181
aVsparc64-smp
p1182
asg182
I01
ss(Vbase
p1183
Vtilegx
p1184
tp1185
(dp1186
Vkernel-arch
p1187
Vtile
p1188
sVfeaturesets
p1189
(lp1190
ss(Vbase
p1191
Vx32
p1192
tp1193
(dp1194
Vkernel-arch
p1195
Vx86
p1196
sVfeaturesets
p1197
(lp1198
ss(Vabi
p1199
NVrt
p1200
tp1201
(dp1202
Vignore-changes
p1203
(lp1204
V*
p1205
ass(Vdescription
p1206
Ng1200
tp1207
(dp1208
Vpart-long-rt
p1209
VThis kernel includes the PREEMPT_RT realtime patch set.
p1210
sVpart-short-rt
p1211
VPREEMPT_RT
p1212
sVparts
p1213
(lp1214
Vrt
p1215
ass(Vversion
p1216
tp1217
(dp1218
Vsource
p1219
V4.9.88-1
p1220
sVupstream
p1221
V4.9
p1222
sVabiname_base
p1223
V4.9.0
p1224
sVabiname
p1225
V4.9.0-6
p1226
ss.