cdebian_linux.config
ConfigCore
p0
(tRp1
(Vbase
p2
tp3
(dp4
Varches
p5
(lp6
Valpha
p7
aVamd64
p8
aVarm64
p9
aVarmel
p10
aVarmhf
p11
aVhppa
p12
aVi386
p13
aVm68k
p14
aVmips
p15
aVmipsel
p16
aVmipsn32
p17
aVmipsn32el
p18
aVmips64
p19
aVmips64el
p20
aVpowerpc
p21
aVpowerpcspe
p22
aVppc64
p23
aVppc64el
p24
aVs390
p25
aVs390x
p26
aVsh3
p27
aVsh4
p28
aVsparc
p29
aVsparc64
p30
aVtilegx
p31
aVx32
p32
asVfeaturesets
p33
(lp34
Vnone
p35
aVrt
p36
asVcompiler
p37
Vgcc-6
p38
ss(Vbuild
p39
tp40
(dp41
Vsigned-modules
p42
I00
sVdebug-info
p43
I01
ss(Vbase
p44
NVrt
p45
tp46
(dp47
Venabled
p48
I01
ss(Vdescription
p49
tp50
(dp51
Vpart-long-up
p52
VThis kernel is not suitable for SMP (multi-processor,\u000amulti-core or hyper-threaded) systems.
p53
sVpart-long-xen
p54
VThis kernel also runs on a Xen hypervisor.\u000aIt supports both privileged (dom0) and unprivileged (domU) operation.
p55
ss(Vrelations
p56
tp57
(dp58
Vinitramfs-tools
p59
Vinitramfs-tools (>= 0.120+deb8u2)
p60
sVgcc-6
p61
Vgcc-6 <!stage1 !cross>, gcc-6-@gnu-type-package@ <!stage1 cross>
p62
sVinitramfs-fallback
p63
Vlinux-initramfs-tool
p64
ss(Vimage
p65
tp66
(dp67
Vinitramfs-generators
p68
(lp69
Vinitramfs-tools
p70
aVinitramfs-fallback
p71
ass(Vabi
p72
tp73
(dp74
Vabiname
p75
V4
p76
sVignore-changes
p77
(lp78
V__cpuhp_*
p79
aVbpf_analyzer
p80
aVcxl_*
p81
aVinet_frag_*
p82
aVinet_frags_*
p83
aVmm_iommu_*
p84
aVregister_cxl_calls
p85
aVunregister_cxl_calls
p86
aVmodule:arch/x86/kvm/*
p87
aVmodule:drivers/crypto/ccp/*
p88
aVmodule:drivers/hv/*
p89
aVmodule:drivers/iio/common/hid-sensors/*
p90
aVmodule:drivers/iio/common/st_sensors/**
p91
aVmodule:drivers/net/wireless/**
p92
aVmodule:drivers/nvdimm/*
p93
aVmodule:drivers/power/supply/bq27xxx_battery
p94
aVmodule:drivers/scsi/cxgbi/*
p95
aVmodule:drivers/scsi/libiscs*
p96
aVmodule:drivers/scsi/qla2xxx/qla2xxx
p97
aVmodule:drivers/scsi/ufs/*
p98
aVmodule:drivers/target/**
p99
aVmodule:drivers/usb/chipidea/**
p100
aVmodule:drivers/usb/host/**
p101
aVmodule:drivers/usb/musb/**
p102
aVmodule:fs/nfs/nfs
p103
aVmodule:net/ceph/libceph
p104
aVmodule:net/l2tp/l2tp_core
p105
aVmodule:sound/firewire/snd-firewire-lib
p106
aVbtree_*
p107
aVvisitor*
p108
aVcan_rx_register
p109
aVip6_xmit
p110
aVmodule:net/dccp/dccp
p111
aVmodule:net/rds/rds
p112
aVdevfreq_*
p113
aVdevm_devfreq_*
p114
aVupdate_devfreq
p115
aVmodule:drivers/infiniband/**
p116
aVacpi_ec_add_query_handler
p117
aVacpi_ec_remove_query_handler
p118
aVfirst_ec
p119
aVdebugfs_create_automount
p120
ass(Vbase
p121
Valpha
p122
tp123
(dp124
Vfeaturesets
p125
(lp126
Vnone
p127
asVkernel-arch
p128
Valpha
p129
ss(Vdescription
p130
g122
NValpha-smp
p131
tp132
(dp133
Vhardware
p134
VAlpha SMP
p135
sVhardware-long
p136
VDEC Alpha SMP systems with extended kernel start address (Wildfire, Titan, Marvel)
p137
ss(Vbuild
p138
g122
tp139
(dp140
Vsigned-modules
p141
I00
sVimage-file
p142
Varch/alpha/boot/vmlinux.gz
p143
ss(Vdescription
p144
g122
NValpha-generic
p145
tp146
(dp147
Vhardware
p148
VAlpha
p149
sVhardware-long
p150
VDEC Alpha systems with extended kernel start address (Wildfire, Titan, Marvel)
p151
ss(Vimage
p152
g122
tp153
(dp154
Vsuggests
p155
Vaboot, fdutils
p156
sVinstall-stem
p157
Vvmlinuz
p158
ss(Vbase
p159
g122
g127
tp160
(dp161
Vflavours
p162
(lp163
Valpha-generic
p164
aValpha-smp
p165
asVimplicit-flavour
p166
I01
ss(Vbase
p167
Vamd64
p168
tp169
(dp170
Vfeaturesets
p171
(lp172
Vnone
p173
aVrt
p174
asVkernel-arch
p175
Vx86
p176
ss(Vdescription
p177
g168
NVamd64
p178
tp179
(dp180
Vhardware
p181
V64-bit PCs
p182
sVhardware-long
p183
VPCs with AMD64, Intel 64 or VIA Nano processors
p184
ss(Vbuild
p185
g168
tp186
(dp187
Vvdso
p188
I01
sVimage-file
p189
Varch/x86/boot/bzImage
p190
sVdebug-info
p191
I01
ss(Vrelations
p192
g168
tp193
(dp194
Vheaders%gcc-6
p195
Vlinux-compiler-gcc-6-x86
p196
ss(Vimage
p197
g168
tp198
(dp199
Vbreaks
p200
Vxserver-xorg-input-vmmouse (<< 1:13.0.99)
p201
sVinstall-stem
p202
Vvmlinuz
p203
sVbootloaders
p204
(lp205
Vgrub-pc
p206
aVgrub-efi-amd64
p207
aVextlinux
p208
ass(Vbase
p209
g168
Vnone
p210
tp211
(dp212
Vflavours
p213
(lp214
Vamd64
p215
ass(Vdescription
p216
g168
g210
Vamd64
p217
tp218
(dp219
Vparts
p220
(lp221
Vxen
p222
ass(Vbase
p223
g168
Vrt
p224
tp225
(dp226
Vflavours
p227
(lp228
Vamd64
p229
ass(Vbase
p230
Varm64
p231
tp232
(dp233
Vfeaturesets
p234
(lp235
Vnone
p236
asVkernel-arch
p237
Varm64
p238
ss(Vdescription
p239
g231
NVarm64
p240
tp241
(dp242
Vhardware
p243
V64-bit ARMv8 machines
p244
ss(Vbuild
p245
g231
tp246
(dp247
Vvdso
p248
I01
sVimage-file
p249
Varch/arm64/boot/Image
p250
sVdebug-info
p251
I01
ss(Vimage
p252
g231
NVarm64
p253
tp254
(dp255
s(Vimage
p256
g231
tp257
(dp258
Vbreaks
p259
Vlibmozjs185-1.0, libmozjs-24-0 (<< 24.2.0-5.1~)
p260
sVinstall-stem
p261
Vvmlinuz
p262
ss(Vbase
p263
g231
Vnone
p264
tp265
(dp266
Vflavours
p267
(lp268
Varm64
p269
ass(Vbase
p270
Varmel
p271
tp272
(dp273
g125
(lp274
g127
asVkernel-arch
p275
Varm
p276
ss(Vbuild
p277
g271
tp278
(dp279
Vsigned-modules
p280
I00
sVimage-file
p281
Varch/arm/boot/zImage
p282
ss(Vimage
p283
g271
NVmarvell
p284
tp285
(dp286
Vrecommends
p287
Vu-boot-tools
p288
sVbreaks
p289
Vflash-kernel (<< 3.57~)
p290
sVcheck-size-with-dtb
p291
I01
sVcheck-size
p292
L2097080L
ss(Vdescription
p293
g271
NVmarvell
p294
tp295
(dp296
Vhardware
p297
VMarvell Kirkwood/Orion
p298
sVhardware-long
p299
VMarvell Kirkwood based systems (SheevaPlug, QNAP TS-119/TS-219, etc)\u000aand Orion 5181, 5182 and 5281 based systems (QNAP TS-109/TS-209, etc)
p300
ss(Vrelations
p301
g271
tp302
(dp303
Vheaders%gcc-6
p304
Vlinux-compiler-gcc-6-arm
p305
ss(Vimage
p306
g271
tp307
(dp308
Vinstall-stem
p309
Vvmlinuz
p310
ss(g159
g271
g127
tp311
(dp312
g162
(lp313
Vmarvell
p314
asg166
I01
ss(Vbase
p315
Varmhf
p316
tp317
(dp318
g125
(lp319
g127
asVkernel-arch
p320
Varm
p321
ss(Vdescription
p322
g316
NVarmmp
p323
tp324
(dp325
Vhardware
p326
VARMv7 multiplatform compatible SoCs
p327
sVhardware-long
p328
VARMv7 multiplatform kernel. See\u000ahttps://wiki.debian.org/DebianKernel/ARMMP for details of supported\u000aplatforms
p329
ss(Vbuild
p330
g316
tp331
(dp332
Vvdso
p333
I01
sVimage-file
p334
Varch/arm/boot/zImage
p335
ss(Vdescription
p336
g316
NVarmmp-lpae
p337
tp338
(dp339
Vhardware
p340
VARMv7 multiplatform compatible SoCs supporting LPAE
p341
sVhardware-long
p342
VARMv7 multiplatform kernel supporting LPAE. See\u000ahttps://wiki.debian.org/DebianKernel/ARMMP for details of supported\u000aplatforms.
p343
ss(Vrelations
p344
g316
tp345
(dp346
Vheaders%gcc-6
p347
Vlinux-compiler-gcc-6-arm
p348
ss(Vimage
p349
g316
tp350
(dp351
Vinstall-stem
p352
Vvmlinuz
p353
ss(g159
g316
g127
tp354
(dp355
g162
(lp356
Varmmp
p357
aVarmmp-lpae
p358
asg166
I01
ss(Vbase
p359
Vhppa
p360
tp361
(dp362
g125
(lp363
g127
asVkernel-arch
p364
Vparisc
p365
ss(Vbuild
p366
g360
tp367
(dp368
Vsigned-modules
p369
I00
sVimage-file
p370
Vvmlinux
p371
ss(Vdescription
p372
g360
NVparisc64-smp
p373
tp374
(dp375
Vhardware
p376
Vmultiprocessor 64-bit PA-RISC
p377
sVhardware-long
p378
VHP PA-RISC 64-bit SMP systems with support for more than 4 GB RAM
p379
ss(Vbase
p380
g360
NVparisc64-smp
p381
tp382
(dp383
Vcflags
p384
V-fno-cse-follow-jumps
p385
sVoverride-host-type
p386
Vhppa64-linux-gnu
p387
ss(Vrelations
p388
g360
tp389
(dp390
Vgcc-6
p391
Vgcc-6 <!stage1 !cross>, binutils-hppa64-linux-gnu <!stage1 !cross>, gcc-6-hppa64-linux-gnu <!stage1 !cross>, gcc-6-hppa-linux-gnu <!stage1 cross>, binutils-hppa64-linux-gnu <!stage1 cross>, gcc-6-hppa64-linux-gnu <!stage1 cross>
p392
ss(Vdescription
p393
g360
NVparisc
p394
tp395
(dp396
Vhardware
p397
V32-bit PA-RISC
p398
sVhardware-long
p399
VHP PA-RISC 32-bit systems with max 4 GB RAM
p400
ss(Vimage
p401
g360
tp402
(dp403
Vsuggests
p404
Vpalo
p405
sVinstall-stem
p406
Vvmlinux
p407
ss(g159
g360
g127
tp408
(dp409
g162
(lp410
Vparisc
p411
aVparisc64-smp
p412
asg166
I01
ss(Vbase
p413
Vi386
p414
tp415
(dp416
Vfeaturesets
p417
(lp418
Vnone
p419
aVrt
p420
asVkernel-arch
p421
Vx86
p422
ss(Vbuild
p423
g414
tp424
(dp425
Vvdso
p426
I01
sVimage-file
p427
Varch/x86/boot/bzImage
p428
ss(Vdescription
p429
g414
NV686-pae
p430
tp431
(dp432
Vhardware
p433
Vmodern PCs
p434
sVhardware-long
p435
VPCs with one or more processors supporting PAE
p436
sVparts
p437
(lp438
Vpae
p439
ass(Vdescription
p440
g414
tp441
(dp442
Vpart-long-pae
p443
VThis kernel requires PAE (Physical Address Extension).\u000aThis feature is supported by the Intel Pentium Pro/II/III/4/4M/D, Xeon,\u000aCore and Atom; AMD Geode NX, Athlon (K7), Duron, Opteron, Sempron,\u000aTurion or Phenom; Transmeta Efficeon; VIA C7; and some other processors.
p444
ss(Vbuild
p445
g414
NV686-pae
p446
tp447
(dp448
Vdebug-info
p449
I01
ss(Vdescription
p450
g414
NV686
p451
tp452
(dp453
Vhardware
p454
Volder PCs
p455
sVhardware-long
p456
VPCs with one or more processors not supporting PAE
p457
ss(Vrelations
p458
g414
tp459
(dp460
Vheaders%gcc-6
p461
Vlinux-compiler-gcc-6-x86
p462
ss(Vimage
p463
g414
tp464
(dp465
Vbreaks
p466
Vxserver-xorg-input-vmmouse (<< 1:13.0.99)
p467
sVinstall-stem
p468
Vvmlinuz
p469
sVbootloaders
p470
(lp471
Vgrub-pc
p472
aVextlinux
p473
ass(Vbase
p474
g414
Vnone
p475
tp476
(dp477
Vflavours
p478
(lp479
V686
p480
aV686-pae
p481
ass(Vdescription
p482
g414
g475
V686-pae
p483
tp484
(dp485
Vparts
p486
(lp487
Vxen
p488
ass(Vbase
p489
g414
Vrt
p490
tp491
(dp492
Vflavours
p493
(lp494
V686-pae
p495
ass(Vbase
p496
Vm68k
p497
tp498
(dp499
Vcflags
p500
V-ffreestanding
p501
sg125
(lp502
g127
asVkernel-arch
p503
Vm68k
p504
ss(Vbuild
p505
g497
tp506
(dp507
Vsigned-modules
p508
I00
sVimage-file
p509
Vvmlinux.gz
p510
ss(Vdescription
p511
g497
NVm68k
p512
tp513
(dp514
Vhardware
p515
VMotorola MC68020+ family
p516
ss(Vimage
p517
g497
tp518
(dp519
Vsuggests
p520
Vvmelilo, fdutils
p521
sVinstall-stem
p522
Vvmlinuz
p523
ss(g159
g497
g127
tp524
(dp525
g162
(lp526
Vm68k
p527
asg166
I01
ss(Vbase
p528
Vmips
p529
tp530
(dp531
g125
(lp532
g127
asVkernel-arch
p533
Vmips
p534
ss(Vbuild
p535
g529
tp536
(dp537
Vsigned-modules
p538
I00
sVimage-file
p539
Vvmlinux
p540
ss(Vimage
p541
g529
NV4kc-malta
p542
tp543
(dp544
Vconfigs
p545
(lp546
Vkernelarch-mips/config.malta
p547
aVkernelarch-mips/config.mips32r2
p548
ass(Vimage
p549
g529
NV5kc-malta
p550
tp551
(dp552
Vconfigs
p553
(lp554
Vkernelarch-mips/config.malta
p555
aVkernelarch-mips/config.mips64r2
p556
ass(Vdescription
p557
g529
NVocteon
p558
tp559
(dp560
Vhardware
p561
VOcteon
p562
sVhardware-long
p563
VCavium Networks Octeon
p564
ss(Vimage
p565
g529
NVocteon
p566
tp567
(dp568
Vconfigs
p569
(lp570
Vkernelarch-mips/config.octeon
p571
ass(Vimage
p572
g529
tp573
(dp574
Vinstall-stem
p575
Vvmlinux
p576
ss(Vdescription
p577
g529
NV5kc-malta
p578
tp579
(dp580
Vhardware
p581
VMIPS Malta (64-bit)
p582
sVhardware-long
p583
VMIPS Malta boards (64-bit)
p584
ss(Vdescription
p585
g529
NV4kc-malta
p586
tp587
(dp588
Vhardware
p589
VMIPS Malta
p590
sVhardware-long
p591
VMIPS Malta boards
p592
ss(g159
g529
g127
tp593
(dp594
g162
(lp595
V4kc-malta
p596
aV5kc-malta
p597
aVocteon
p598
asg166
I01
ss(Vbase
p599
Vmipsel
p600
tp601
(dp602
g125
(lp603
g127
asVkernel-arch
p604
Vmips
p605
ss(Vimage
p606
g600
NVloongson-3
p607
tp608
(dp609
Vconfigs
p610
(lp611
Vkernelarch-mips/config.loongson-3
p612
ass(Vbuild
p613
g600
tp614
(dp615
Vsigned-modules
p616
I00
sVimage-file
p617
Vvmlinux
p618
ss(Vimage
p619
g600
NV4kc-malta
p620
tp621
(dp622
Vconfigs
p623
(lp624
Vkernelarch-mips/config.malta
p625
aVkernelarch-mips/config.mips32r2
p626
ass(Vimage
p627
g600
NV5kc-malta
p628
tp629
(dp630
Vconfigs
p631
(lp632
Vkernelarch-mips/config.malta
p633
aVkernelarch-mips/config.mips64r2
p634
ass(Vdescription
p635
g600
NVocteon
p636
tp637
(dp638
Vhardware
p639
VOcteon
p640
sVhardware-long
p641
VCavium Networks Octeon
p642
ss(Vdescription
p643
g600
NVloongson-3
p644
tp645
(dp646
Vhardware
p647
VLoongson 3A/3B
p648
sVhardware-long
p649
VLoongson 3A or 3B based systems (e.g. from Loongson or Lemote)
p650
ss(Vimage
p651
g600
NVocteon
p652
tp653
(dp654
Vconfigs
p655
(lp656
Vkernelarch-mips/config.octeon
p657
ass(Vimage
p658
g600
tp659
(dp660
Vinstall-stem
p661
Vvmlinux
p662
ss(Vdescription
p663
g600
NV5kc-malta
p664
tp665
(dp666
Vhardware
p667
VMIPS Malta (64-bit)
p668
sVhardware-long
p669
VMIPS Malta boards (64-bit)
p670
ss(Vdescription
p671
g600
NV4kc-malta
p672
tp673
(dp674
Vhardware
p675
VMIPS Malta
p676
sVhardware-long
p677
VMIPS Malta boards
p678
ss(g159
g600
g127
tp679
(dp680
g162
(lp681
V4kc-malta
p682
aV5kc-malta
p683
aVloongson-3
p684
aVocteon
p685
asg166
I01
ss(Vbase
p686
Vmipsn32
p687
tp688
(dp689
Vfeaturesets
p690
(lp691
sVkernel-arch
p692
Vmips
p693
ss(Vbase
p694
Vmipsn32el
p695
tp696
(dp697
Vfeaturesets
p698
(lp699
sVkernel-arch
p700
Vmips
p701
ss(Vbase
p702
Vmips64
p703
tp704
(dp705
g125
(lp706
g127
asVkernel-arch
p707
Vmips
p708
ss(Vbuild
p709
g703
tp710
(dp711
Vsigned-modules
p712
I00
sVimage-file
p713
Vvmlinux
p714
ss(Vimage
p715
g703
NV5kc-malta
p716
tp717
(dp718
Vconfigs
p719
(lp720
Vkernelarch-mips/config.malta
p721
aVkernelarch-mips/config.mips64r2
p722
ass(Vdescription
p723
g703
NVocteon
p724
tp725
(dp726
Vhardware
p727
VOcteon
p728
sVhardware-long
p729
VCavium Networks Octeon
p730
ss(Vimage
p731
g703
tp732
(dp733
Vinstall-stem
p734
Vvmlinux
p735
ss(Vdescription
p736
g703
NV5kc-malta
p737
tp738
(dp739
Vhardware
p740
VMIPS Malta
p741
sVhardware-long
p742
VMIPS Malta boards
p743
ss(Vimage
p744
g703
NVocteon
p745
tp746
(dp747
Vconfigs
p748
(lp749
Vkernelarch-mips/config.octeon
p750
ass(g159
g703
g127
tp751
(dp752
g162
(lp753
V5kc-malta
p754
aVocteon
p755
asg166
I01
ss(Vbase
p756
Vmips64el
p757
tp758
(dp759
g125
(lp760
g127
asVkernel-arch
p761
Vmips
p762
ss(Vimage
p763
g757
NVloongson-3
p764
tp765
(dp766
Vconfigs
p767
(lp768
Vkernelarch-mips/config.loongson-3
p769
ass(Vbuild
p770
g757
tp771
(dp772
Vsigned-modules
p773
I00
sVimage-file
p774
Vvmlinux
p775
ss(Vimage
p776
g757
NV5kc-malta
p777
tp778
(dp779
Vconfigs
p780
(lp781
Vkernelarch-mips/config.malta
p782
aVkernelarch-mips/config.mips64r2
p783
ass(Vdescription
p784
g757
NVocteon
p785
tp786
(dp787
Vhardware
p788
VOcteon
p789
sVhardware-long
p790
VCavium Networks Octeon
p791
ss(Vdescription
p792
g757
NVloongson-3
p793
tp794
(dp795
Vhardware
p796
VLoongson 3A/3B
p797
sVhardware-long
p798
VLoongson 3A or 3B based systems (e.g. from Loongson or Lemote)
p799
ss(Vimage
p800
g757
tp801
(dp802
Vinstall-stem
p803
Vvmlinux
p804
ss(Vdescription
p805
g757
NV5kc-malta
p806
tp807
(dp808
Vhardware
p809
VMIPS Malta
p810
sVhardware-long
p811
VMIPS Malta boards
p812
ss(Vimage
p813
g757
NVocteon
p814
tp815
(dp816
Vconfigs
p817
(lp818
Vkernelarch-mips/config.octeon
p819
ass(g159
g757
g127
tp820
(dp821
g162
(lp822
V5kc-malta
p823
aVloongson-3
p824
aVocteon
p825
asg166
I01
ss(Vbase
p826
Vpowerpc
p827
tp828
(dp829
g125
(lp830
g127
asVkernel-arch
p831
Vpowerpc
p832
ss(Vdescription
p833
g827
NVpowerpc64
p834
tp835
(dp836
Vhardware
p837
V64-bit PowerPC
p838
ss(Vbuild
p839
g827
tp840
(dp841
Vvdso
p842
I01
sVimage-file
p843
Vvmlinux
p844
ss(Vimage
p845
g827
NVpowerpc-smp
p846
tp847
(dp848
Vconfigs
p849
(lp850
Vpowerpc/config.powerpc
p851
aVpowerpc/config.powerpc-smp
p852
ass(Vdescription
p853
g827
NVpowerpc
p854
tp855
(dp856
Vhardware
p857
Vuniprocessor 32-bit PowerPC
p858
ss(Vimage
p859
g827
NVpowerpc64
p860
tp861
(dp862
Vconfigs
p863
(lp864
Vkernelarch-powerpc/config-arch-64
p865
aVkernelarch-powerpc/config-arch-64-be
p866
ass(Vdescription
p867
g827
NVpowerpc-smp
p868
tp869
(dp870
Vhardware
p871
Vmultiprocessor 32-bit PowerPC
p872
ss(Vimage
p873
g827
tp874
(dp875
Vsuggests
p876
Vmkvmlinuz
p877
sVinstall-stem
p878
Vvmlinux
p879
sVconfigs
p880
(lp881
ss(g159
g827
g127
tp882
(dp883
g162
(lp884
Vpowerpc
p885
aVpowerpc-smp
p886
aVpowerpc64
p887
asg166
I01
ss(Vbase
p888
Vpowerpcspe
p889
tp890
(dp891
g125
(lp892
g127
asVkernel-arch
p893
Vpowerpc
p894
ss(Vbuild
p895
g889
tp896
(dp897
Vsigned-modules
p898
I00
sVimage-file
p899
Vvmlinux
p900
sVvdso
p901
I01
ss(Vimage
p902
g889
tp903
(dp904
Vsuggests
p905
Vmkvmlinuz
p906
sVinstall-stem
p907
Vvmlinux
p908
ss(Vdescription
p909
g889
tp910
(dp911
Vhardware
p912
V32-bit PowerPC with SPE (instead of AltiVec) with SMP support
p913
ss(g159
g889
g127
tp914
(dp915
g162
(lp916
Vpowerpcspe
p917
asg166
I01
ss(Vbase
p918
Vppc64
p919
tp920
(dp921
g125
(lp922
g127
asVkernel-arch
p923
Vpowerpc
p924
ss(Vdescription
p925
g919
NVpowerpc64
p926
tp927
(dp928
Vhardware
p929
V64-bit PowerPC
p930
ss(Vbuild
p931
g919
tp932
(dp933
Vsigned-modules
p934
I00
sVimage-file
p935
Vvmlinux
p936
sVvdso
p937
I01
ss(Vimage
p938
g919
NVpowerpc64
p939
tp940
(dp941
Vconfigs
p942
(lp943
Vkernelarch-powerpc/config-arch-64
p944
aVkernelarch-powerpc/config-arch-64-be
p945
ass(Vimage
p946
g919
tp947
(dp948
Vsuggests
p949
Vmkvmlinuz
p950
sVinstall-stem
p951
Vvmlinux
p952
sVconfigs
p953
(lp954
ss(g159
g919
g127
tp955
(dp956
g162
(lp957
Vpowerpc64
p958
asg166
I01
ss(Vbase
p959
Vppc64el
p960
tp961
(dp962
g125
(lp963
g127
asVkernel-arch
p964
Vpowerpc
p965
ss(Vdescription
p966
g960
NVpowerpc64le
p967
tp968
(dp969
Vhardware
p970
VLittle-endian 64-bit PowerPC
p971
ss(Vbuild
p972
g960
tp973
(dp974
Vvdso
p975
I01
sVimage-file
p976
Vvmlinux
p977
ss(Vimage
p978
g960
tp979
(dp980
Vsuggests
p981
Vmkvmlinuz
p982
sVinstall-stem
p983
Vvmlinux
p984
sVconfigs
p985
(lp986
ss(Vimage
p987
g960
NVpowerpc64le
p988
tp989
(dp990
Vconfigs
p991
(lp992
Vkernelarch-powerpc/config-arch-64
p993
aVkernelarch-powerpc/config-arch-64-le
p994
ass(g159
g960
g127
tp995
(dp996
g162
(lp997
Vpowerpc64le
p998
asg166
I01
ss(Vbase
p999
Vs390
p1000
tp1001
(dp1002
Vfeaturesets
p1003
(lp1004
sVkernel-arch
p1005
Vs390
p1006
ss(Vbase
p1007
Vs390x
p1008
tp1009
(dp1010
g125
(lp1011
g127
asVkernel-arch
p1012
Vs390
p1013
ss(Vdescription
p1014
g1008
NVs390x
p1015
tp1016
(dp1017
Vhardware
p1018
VIBM zSeries
p1019
ss(Vbuild
p1020
g1008
tp1021
(dp1022
Vvdso
p1023
I01
sVimage-file
p1024
Varch/s390/boot/image
p1025
ss(Vbuild
p1026
g1008
NVs390x
p1027
tp1028
(dp1029
Vdebug-info
p1030
I01
ss(Vrelations
p1031
g1008
tp1032
(dp1033
Vheaders%gcc-6
p1034
Vlinux-compiler-gcc-6-s390
p1035
ss(Vimage
p1036
g1008
tp1037
(dp1038
Vinstall-stem
p1039
Vvmlinuz
p1040
sVbootloaders
p1041
(lp1042
Vs390-tools
p1043
ass(g159
g1008
g127
tp1044
(dp1045
g162
(lp1046
Vs390x
p1047
asg166
I01
ss(Vbase
p1048
Vsh3
p1049
tp1050
(dp1051
Vfeaturesets
p1052
(lp1053
sVkernel-arch
p1054
Vsh
p1055
ss(Vbase
p1056
Vsh4
p1057
tp1058
(dp1059
g125
(lp1060
g127
asVkernel-arch
p1061
Vsh
p1062
ss(Vbuild
p1063
g1057
tp1064
(dp1065
Vsigned-modules
p1066
I00
sVimage-file
p1067
Varch/sh/boot/zImage
p1068
ss(Vdescription
p1069
g1057
NVsh7751r
p1070
tp1071
(dp1072
Vhardware
p1073
Vsh7751r
p1074
sVhardware-long
p1075
VRenesas SH7751R R2D plus board
p1076
ss(Vdescription
p1077
g1057
NVsh7785lcr
p1078
tp1079
(dp1080
Vhardware
p1081
Vsh7785lcr
p1082
sVhardware-long
p1083
VRenesas SH7785 reference board
p1084
ss(Vimage
p1085
g1057
tp1086
(dp1087
Vinstall-stem
p1088
Vvmlinuz
p1089
ss(Vimage
p1090
g1057
NVsh7785lcr
p1091
tp1092
(dp1093
Vrecommends
p1094
Vu-boot-tools
p1095
sVcheck-size
p1096
L4194304L
ss(g159
g1057
g127
tp1097
(dp1098
g162
(lp1099
Vsh7751r
p1100
aVsh7785lcr
p1101
asg166
I01
ss(Vbase
p1102
Vsparc
p1103
tp1104
(dp1105
Vfeaturesets
p1106
(lp1107
sVkernel-arch
p1108
Vsparc
p1109
ss(Vbase
p1110
Vsparc64
p1111
tp1112
(dp1113
g125
(lp1114
g127
asVkernel-arch
p1115
Vsparc
p1116
ss(Vbuild
p1117
g1111
tp1118
(dp1119
Vsigned-modules
p1120
I00
sVimage-file
p1121
Varch/sparc/boot/zImage
p1122
ss(Vimage
p1123
g1111
NVsparc64
p1124
tp1125
(dp1126
Vconfigs
p1127
(lp1128
Vkernelarch-sparc/config-up
p1129
ass(Vimage
p1130
g1111
NVsparc64-smp
p1131
tp1132
(dp1133
Vconfigs
p1134
(lp1135
Vkernelarch-sparc/config-smp
p1136
ass(Vimage
p1137
g1111
tp1138
(dp1139
Vsuggests
p1140
Vsilo, fdutils
p1141
sVinstall-stem
p1142
Vvmlinuz
p1143
sVconfigs
p1144
(lp1145
ss(Vdescription
p1146
g1111
NVsparc64-smp
p1147
tp1148
(dp1149
Vhardware
p1150
Vmultiprocessor 64-bit UltraSPARC
p1151
ss(Vdescription
p1152
g1111
NVsparc64
p1153
tp1154
(dp1155
Vhardware
p1156
Vuniprocessor 64-bit UltraSPARC
p1157
ss(g159
g1111
g127
tp1158
(dp1159
g162
(lp1160
Vsparc64
p1161
aVsparc64-smp
p1162
asg166
I01
ss(Vbase
p1163
Vtilegx
p1164
tp1165
(dp1166
Vfeaturesets
p1167
(lp1168
sVkernel-arch
p1169
Vtile
p1170
ss(Vbase
p1171
Vx32
p1172
tp1173
(dp1174
Vfeaturesets
p1175
(lp1176
sVkernel-arch
p1177
Vx86
p1178
ss(Vdescription
p1179
NVrt
p1180
tp1181
(dp1182
Vparts
p1183
(lp1184
Vrt
p1185
asVpart-long-rt
p1186
VThis kernel includes the PREEMPT_RT realtime patch set.
p1187
sVpart-short-rt
p1188
VPREEMPT_RT
p1189
ss(Vabi
p1190
Ng1180
tp1191
(dp1192
Vignore-changes
p1193
(lp1194
V*
p1195
ass(Vversion
p1196
tp1197
(dp1198
Vupstream
p1199
V4.9
p1200
sVsource
p1201
V4.9.51-1
p1202
sVabiname
p1203
V4.9.0-4
p1204
sVabiname_base
p1205
V4.9.0
p1206
ss.