cdebian_linux.config
ConfigCore
p0
(tRp1
(Vbase
p2
tp3
(dp4
Varches
p5
(lp6
Valpha
p7
aVamd64
p8
aVarm64
p9
aVarmel
p10
aVarmhf
p11
aVhppa
p12
aVi386
p13
aVm68k
p14
aVmips
p15
aVmipsel
p16
aVmipsn32
p17
aVmipsn32el
p18
aVmips64
p19
aVmips64el
p20
aVpowerpc
p21
aVpowerpcspe
p22
aVppc64
p23
aVppc64el
p24
aVs390
p25
aVs390x
p26
aVsh3
p27
aVsh4
p28
aVsparc
p29
aVsparc64
p30
aVtilegx
p31
aVx32
p32
asVfeaturesets
p33
(lp34
Vnone
p35
aVrt
p36
asVcompiler
p37
Vgcc-4.9
p38
ss(Vbuild
p39
tp40
(dp41
Vsigned-modules
p42
I00
ss(Vbase
p43
NVrt
p44
tp45
(dp46
Venabled
p47
I01
ss(Vdescription
p48
tp49
(dp50
Vpart-long-up
p51
VThis kernel is not suitable for SMP (multi-processor,\u000amulti-core or hyper-threaded) systems.
p52
sVpart-long-xen
p53
VThis kernel also runs on a Xen hypervisor.\u000aIt supports both privileged (dom0) and unprivileged (domU) operation.
p54
ss(Vpackages
p55
tp56
(dp57
Vtools-unversioned
p58
I00
sVlibc-dev
p59
I00
sVinstaller
p60
I00
ss(Vrelations
p61
tp62
(dp63
Vgcc-4.7
p64
Vgcc-4.7
p65
sVgcc-4.9
p66
Vgcc-4.9
p67
sVgcc-4.8
p68
Vgcc-4.8
p69
sVinitramfs-tools
p70
Vinitramfs-tools (>= 0.120+deb8u2)
p71
sVgcc-4.6
p72
Vgcc-4.6
p73
sVinitramfs-fallback
p74
Vlinux-initramfs-tool
p75
ss(Vimage
p76
tp77
(dp78
Vinitramfs-generators
p79
(lp80
Vinitramfs-tools
p81
aVinitramfs-fallback
p82
ass(Vabi
p83
tp84
(dp85
Vabiname
p86
V0.bpo.8
p87
sVignore-changes
p88
(lp89
V__cpuhp_*
p90
aVbpf_analyzer
p91
aVcxl_*
p92
aVinet_frag_*
p93
aVinet_frags_*
p94
aVip6_expire_frag_queue
p95
aVip6_frag_*
p96
aVmm_iommu_*
p97
aVmv_mbus_*
p98
aVregister_cxl_calls
p99
aVregister_key_type
p100
aVtpm_*
p101
aVtpmm_chip_alloc
p102
aVunregister_cxl_calls
p103
aVmodule:drivers/block/loop
p104
aVmodule:drivers/crypto/ccp/*
p105
aVmodule:drivers/hv/*
p106
aVmodule:drivers/iio/common/hid-sensors/*
p107
aVmodule:drivers/iio/common/st_sensors/**
p108
aVmodule:drivers/net/ethernet/**
p109
aVmodule:drivers/net/wireless/**
p110
aVmodule:drivers/nfc/**
p111
aVmodule:drivers/nvdimm/*
p112
aVmodule:drivers/nvme/**
p113
aVmodule:drivers/power/supply/bq27xxx_battery
p114
aVmodule:drivers/s390/net/qeth
p115
aVmodule:drivers/s390/net/qeth*
p116
aVmodule:drivers/scsi/cxgbi/*
p117
aVmodule:drivers/scsi/esp_scsi
p118
aVmodule:drivers/scsi/libiscs*
p119
aVmodule:drivers/scsi/qla2xxx/qla2xxx
p120
aVmodule:drivers/scsi/ufs/*
p121
aVmodule:drivers/target/**
p122
aVmodule:drivers/usb/chipidea/**
p123
aVmodule:drivers/usb/gadget/**
p124
aVmodule:drivers/usb/host/**
p125
aVmodule:drivers/usb/musb/**
p126
aVmodule:fs/nfs/nfs
p127
aVmodule:net/ceph/libceph
p128
aVmodule:net/nfc/hci/hci
p129
aVmodule:net/l2tp/**
p130
aVmodule:net/vmw_vsock/*
p131
aVmodule:sound/firewire/snd-firewire-lib
p132
aVmodule:sound/pci/hda/*
p133
aVbtree_*
p134
aVvisitor*
p135
aVcan_rx_register
p136
aVip6_xmit
p137
aVmodule:net/dccp/dccp
p138
aVmodule:net/rds/rds
p139
aVdevfreq_*
p140
aVdevm_devfreq_*
p141
aVupdate_devfreq
p142
aVmodule:drivers/infiniband/**
p143
aVacpi_ec_add_query_handler
p144
aVacpi_ec_remove_query_handler
p145
aVfirst_ec
p146
aVdebugfs_create_automount
p147
aV__gfn_*
p148
aV__kvm_*
p149
aVgfn_*
p150
aVkvm_*
p151
aVmark_page_dirty
p152
aVvcpu_*
p153
aVmodule:arch/powerpc/kvm/*
p154
aVmodule:arch/s390/kvm/*
p155
aVmodule:arch/x86/kvm/*
p156
aV*_xen_*
p157
aV*_xenballooned_*
p158
aV*_xenbus_*
p159
aV*_xenstore_*
p160
aVgnttab_*
p161
aVHYPERVISOR_*
p162
aVx86_hyper_xen
p163
aVxen_*
p164
aVxenbus_*
p165
aVreturn_address
p166
ass(Vbase
p167
Valpha
p168
tp169
(dp170
Vfeaturesets
p171
(lp172
Vnone
p173
asVkernel-arch
p174
Valpha
p175
ss(Vdescription
p176
g168
NValpha-smp
p177
tp178
(dp179
Vhardware
p180
VAlpha SMP
p181
sVhardware-long
p182
VDEC Alpha SMP systems with extended kernel start address (Wildfire, Titan, Marvel)
p183
ss(Vbuild
p184
g168
tp185
(dp186
Vsigned-modules
p187
I00
sVimage-file
p188
Varch/alpha/boot/vmlinux.gz
p189
ss(Vdescription
p190
g168
NValpha-generic
p191
tp192
(dp193
Vhardware
p194
VAlpha
p195
sVhardware-long
p196
VDEC Alpha systems with extended kernel start address (Wildfire, Titan, Marvel)
p197
ss(Vimage
p198
g168
tp199
(dp200
Vsuggests
p201
Vaboot, fdutils
p202
sVinstall-stem
p203
Vvmlinuz
p204
ss(Vbase
p205
g168
g173
tp206
(dp207
Vflavours
p208
(lp209
Valpha-generic
p210
aValpha-smp
p211
asVimplicit-flavour
p212
I01
ss(Vbase
p213
Vamd64
p214
tp215
(dp216
Vfeaturesets
p217
(lp218
Vnone
p219
aVrt
p220
asVkernel-arch
p221
Vx86
p222
ss(Vdescription
p223
g214
NVamd64
p224
tp225
(dp226
Vhardware
p227
V64-bit PCs
p228
sVhardware-long
p229
VPCs with AMD64, Intel 64 or VIA Nano processors
p230
ss(Vbuild
p231
g214
tp232
(dp233
Vvdso
p234
I01
sVimage-file
p235
Varch/x86/boot/bzImage
p236
sVdebug-info
p237
I01
ss(Vrelations
p238
g214
tp239
(dp240
Vgcc-4.9
p241
Vgcc-4.9 (>= 4.9.2-10+deb7u1), gcc-4.9 (<< 4.9.2-11)
p242
sVheaders%gcc-4.9
p243
Vlinux-compiler-gcc-4.9-x86 (>= 3.16.51-3+deb8u2~), linux-compiler-gcc-4.9-x86 (<< 3.17) | linux-compiler-gcc-4.9-x86 (>= 4.9.82-1+deb9u1~)
p244
ss(Vimage
p245
g214
tp246
(dp247
Vinstall-stem
p248
Vvmlinuz
p249
sVbootloaders
p250
(lp251
Vgrub-pc
p252
aVgrub-efi-amd64
p253
aVextlinux
p254
ass(Vbase
p255
g214
Vnone
p256
tp257
(dp258
Vflavours
p259
(lp260
Vamd64
p261
ass(Vdescription
p262
g214
g256
Vamd64
p263
tp264
(dp265
Vparts
p266
(lp267
Vxen
p268
ass(Vbase
p269
g214
Vrt
p270
tp271
(dp272
Vflavours
p273
(lp274
Vamd64
p275
ass(Vbase
p276
Varm64
p277
tp278
(dp279
Vfeaturesets
p280
(lp281
Vnone
p282
asVkernel-arch
p283
Varm64
p284
ss(Vdescription
p285
g277
NVarm64
p286
tp287
(dp288
Vhardware
p289
V64-bit ARMv8 machines
p290
ss(Vbuild
p291
g277
tp292
(dp293
Vvdso
p294
I01
sVimage-file
p295
Varch/arm64/boot/Image
p296
sVdebug-info
p297
I01
ss(Vimage
p298
g277
NVarm64
p299
tp300
(dp301
s(Vimage
p302
g277
tp303
(dp304
Vbreaks
p305
Vlibmozjs185-1.0, libmozjs-24-0 (<< 24.2.0-5.1~)
p306
sVinstall-stem
p307
Vvmlinuz
p308
ss(Vbase
p309
g277
Vnone
p310
tp311
(dp312
Vflavours
p313
(lp314
Varm64
p315
ass(Vbase
p316
Varmel
p317
tp318
(dp319
g171
(lp320
g173
asVkernel-arch
p321
Varm
p322
ss(Vbuild
p323
g317
tp324
(dp325
Vsigned-modules
p326
I00
sVimage-file
p327
Varch/arm/boot/zImage
p328
ss(Vimage
p329
g317
NVmarvell
p330
tp331
(dp332
Vrecommends
p333
Vu-boot-tools
p334
sVbreaks
p335
Vflash-kernel (<< 3.57~)
p336
sVcheck-size-with-dtb
p337
I01
sVcheck-size
p338
L2097080L
ss(Vdescription
p339
g317
NVmarvell
p340
tp341
(dp342
Vhardware
p343
VMarvell Kirkwood/Orion
p344
sVhardware-long
p345
VMarvell Kirkwood based systems (SheevaPlug, QNAP TS-119/TS-219, etc)\u000aand Orion 5181, 5182 and 5281 based systems (QNAP TS-109/TS-209, etc)
p346
ss(Vrelations
p347
g317
tp348
(dp349
Vheaders%gcc-4.9
p350
Vlinux-compiler-gcc-4.9-arm
p351
ss(Vimage
p352
g317
tp353
(dp354
Vinstall-stem
p355
Vvmlinuz
p356
ss(g205
g317
g173
tp357
(dp358
g208
(lp359
Vmarvell
p360
asg212
I01
ss(Vbase
p361
Varmhf
p362
tp363
(dp364
g171
(lp365
g173
asVkernel-arch
p366
Varm
p367
ss(Vdescription
p368
g362
NVarmmp
p369
tp370
(dp371
Vhardware
p372
VARMv7 multiplatform compatible SoCs
p373
sVhardware-long
p374
VARMv7 multiplatform kernel. See\u000ahttps://wiki.debian.org/DebianKernel/ARMMP for details of supported\u000aplatforms
p375
ss(Vbuild
p376
g362
tp377
(dp378
Vvdso
p379
I01
sVimage-file
p380
Varch/arm/boot/zImage
p381
ss(Vdescription
p382
g362
NVarmmp-lpae
p383
tp384
(dp385
Vhardware
p386
VARMv7 multiplatform compatible SoCs supporting LPAE
p387
sVhardware-long
p388
VARMv7 multiplatform kernel supporting LPAE. See\u000ahttps://wiki.debian.org/DebianKernel/ARMMP for details of supported\u000aplatforms.
p389
ss(Vrelations
p390
g362
tp391
(dp392
Vheaders%gcc-4.9
p393
Vlinux-compiler-gcc-4.9-arm
p394
ss(Vimage
p395
g362
tp396
(dp397
Vinstall-stem
p398
Vvmlinuz
p399
ss(g205
g362
g173
tp400
(dp401
g208
(lp402
Varmmp
p403
aVarmmp-lpae
p404
asg212
I01
ss(Vbase
p405
Vhppa
p406
tp407
(dp408
g171
(lp409
g173
asVkernel-arch
p410
Vparisc
p411
ss(Vbuild
p412
g406
tp413
(dp414
Vsigned-modules
p415
I00
sVimage-file
p416
Vvmlinux
p417
ss(Vdescription
p418
g406
NVparisc64-smp
p419
tp420
(dp421
Vhardware
p422
Vmultiprocessor 64-bit PA-RISC
p423
sVhardware-long
p424
VHP PA-RISC 64-bit SMP systems with support for more than 4 GB RAM
p425
ss(Vbase
p426
g406
NVparisc64-smp
p427
tp428
(dp429
Vcflags
p430
V-fno-cse-follow-jumps
p431
sVoverride-host-type
p432
Vhppa64-linux-gnu
p433
ss(Vrelations
p434
g406
tp435
(dp436
Vgcc-4.9
p437
Vgcc-4.9, binutils-hppa64, gcc-4.9-hppa64
p438
ss(Vdescription
p439
g406
NVparisc
p440
tp441
(dp442
Vhardware
p443
V32-bit PA-RISC
p444
sVhardware-long
p445
VHP PA-RISC 32-bit systems with max 4 GB RAM
p446
ss(Vimage
p447
g406
tp448
(dp449
Vsuggests
p450
Vpalo
p451
sVinstall-stem
p452
Vvmlinux
p453
ss(g205
g406
g173
tp454
(dp455
g208
(lp456
Vparisc
p457
aVparisc64-smp
p458
asg212
I01
ss(Vbase
p459
Vi386
p460
tp461
(dp462
Vfeaturesets
p463
(lp464
Vnone
p465
aVrt
p466
asVkernel-arch
p467
Vx86
p468
ss(Vbuild
p469
g460
tp470
(dp471
Vvdso
p472
I01
sVimage-file
p473
Varch/x86/boot/bzImage
p474
ss(Vdescription
p475
g460
NV686-pae
p476
tp477
(dp478
Vhardware
p479
Vmodern PCs
p480
sVhardware-long
p481
VPCs with one or more processors supporting PAE
p482
sVparts
p483
(lp484
Vpae
p485
ass(Vdescription
p486
g460
tp487
(dp488
Vpart-long-pae
p489
VThis kernel requires PAE (Physical Address Extension).\u000aThis feature is supported by the Intel Pentium Pro/II/III/4/4M/D, Xeon,\u000aCore and Atom; AMD Geode NX, Athlon (K7), Duron, Opteron, Sempron,\u000aTurion or Phenom; Transmeta Efficeon; VIA C7; and some other processors.
p490
ss(Vbuild
p491
g460
NV686-pae
p492
tp493
(dp494
Vdebug-info
p495
I01
ss(Vdescription
p496
g460
NV686
p497
tp498
(dp499
Vhardware
p500
Volder PCs
p501
sVhardware-long
p502
VPCs with one or more processors not supporting PAE
p503
ss(Vrelations
p504
g460
tp505
(dp506
Vgcc-4.9
p507
Vgcc-4.9 (>= 4.9.2-10+deb7u1), gcc-4.9 (<< 4.9.2-11)
p508
sVheaders%gcc-4.9
p509
Vlinux-compiler-gcc-4.9-x86 (>= 3.16.51-3+deb8u2~), linux-compiler-gcc-4.9-x86 (<< 3.17) | linux-compiler-gcc-4.9-x86 (>= 4.9.82-1+deb9u1~)
p510
ss(Vimage
p511
g460
tp512
(dp513
Vinstall-stem
p514
Vvmlinuz
p515
sVbootloaders
p516
(lp517
Vgrub-pc
p518
aVextlinux
p519
ass(Vbase
p520
g460
Vnone
p521
tp522
(dp523
Vflavours
p524
(lp525
V686
p526
aV686-pae
p527
ass(Vdescription
p528
g460
g521
V686-pae
p529
tp530
(dp531
Vparts
p532
(lp533
Vxen
p534
ass(Vbase
p535
g460
Vrt
p536
tp537
(dp538
Vflavours
p539
(lp540
V686-pae
p541
ass(Vbase
p542
Vm68k
p543
tp544
(dp545
Vcflags
p546
V-ffreestanding
p547
sg171
(lp548
g173
asVcompiler
p549
Vgcc-4.8
p550
sVkernel-arch
p551
Vm68k
p552
ss(Vbuild
p553
g543
tp554
(dp555
Vsigned-modules
p556
I00
sVimage-file
p557
Vvmlinux.gz
p558
ss(Vdescription
p559
g543
NVm68k
p560
tp561
(dp562
Vhardware
p563
VMotorola MC68020+ family
p564
ss(Vimage
p565
g543
tp566
(dp567
Vsuggests
p568
Vvmelilo, fdutils
p569
sVinstall-stem
p570
Vvmlinuz
p571
ss(g205
g543
g173
tp572
(dp573
g208
(lp574
Vm68k
p575
asg212
I01
ss(Vbase
p576
Vmips
p577
tp578
(dp579
g171
(lp580
g173
asVkernel-arch
p581
Vmips
p582
ss(Vbuild
p583
g577
tp584
(dp585
Vsigned-modules
p586
I00
sVimage-file
p587
Vvmlinux
p588
ss(Vimage
p589
g577
NV4kc-malta
p590
tp591
(dp592
Vconfigs
p593
(lp594
Vkernelarch-mips/config.malta
p595
aVkernelarch-mips/config.mips32r2
p596
ass(Vimage
p597
g577
NV5kc-malta
p598
tp599
(dp600
Vconfigs
p601
(lp602
Vkernelarch-mips/config.malta
p603
aVkernelarch-mips/config.mips64r2
p604
ass(Vdescription
p605
g577
NVocteon
p606
tp607
(dp608
Vhardware
p609
VOcteon
p610
sVhardware-long
p611
VCavium Networks Octeon
p612
ss(Vimage
p613
g577
NVocteon
p614
tp615
(dp616
Vconfigs
p617
(lp618
Vkernelarch-mips/config.octeon
p619
ass(Vimage
p620
g577
tp621
(dp622
Vinstall-stem
p623
Vvmlinux
p624
ss(Vdescription
p625
g577
NV5kc-malta
p626
tp627
(dp628
Vhardware
p629
VMIPS Malta (64-bit)
p630
sVhardware-long
p631
VMIPS Malta boards (64-bit)
p632
ss(Vdescription
p633
g577
NV4kc-malta
p634
tp635
(dp636
Vhardware
p637
VMIPS Malta
p638
sVhardware-long
p639
VMIPS Malta boards
p640
ss(g205
g577
g173
tp641
(dp642
g208
(lp643
V4kc-malta
p644
aV5kc-malta
p645
aVocteon
p646
asg212
I01
ss(Vbase
p647
Vmipsel
p648
tp649
(dp650
g171
(lp651
g173
asVkernel-arch
p652
Vmips
p653
ss(Vimage
p654
g648
NVloongson-3
p655
tp656
(dp657
Vconfigs
p658
(lp659
Vkernelarch-mips/config.loongson-3
p660
ass(Vbuild
p661
g648
tp662
(dp663
Vsigned-modules
p664
I00
sVimage-file
p665
Vvmlinux
p666
ss(Vimage
p667
g648
NV4kc-malta
p668
tp669
(dp670
Vconfigs
p671
(lp672
Vkernelarch-mips/config.malta
p673
aVkernelarch-mips/config.mips32r2
p674
ass(Vimage
p675
g648
NV5kc-malta
p676
tp677
(dp678
Vconfigs
p679
(lp680
Vkernelarch-mips/config.malta
p681
aVkernelarch-mips/config.mips64r2
p682
ass(Vdescription
p683
g648
NVocteon
p684
tp685
(dp686
Vhardware
p687
VOcteon
p688
sVhardware-long
p689
VCavium Networks Octeon
p690
ss(Vdescription
p691
g648
NVloongson-3
p692
tp693
(dp694
Vhardware
p695
VLoongson 3A/3B
p696
sVhardware-long
p697
VLoongson 3A or 3B based systems (e.g. from Loongson or Lemote)
p698
ss(Vimage
p699
g648
NVocteon
p700
tp701
(dp702
Vconfigs
p703
(lp704
Vkernelarch-mips/config.octeon
p705
ass(Vimage
p706
g648
tp707
(dp708
Vinstall-stem
p709
Vvmlinux
p710
ss(Vdescription
p711
g648
NV5kc-malta
p712
tp713
(dp714
Vhardware
p715
VMIPS Malta (64-bit)
p716
sVhardware-long
p717
VMIPS Malta boards (64-bit)
p718
ss(Vdescription
p719
g648
NV4kc-malta
p720
tp721
(dp722
Vhardware
p723
VMIPS Malta
p724
sVhardware-long
p725
VMIPS Malta boards
p726
ss(g205
g648
g173
tp727
(dp728
g208
(lp729
V4kc-malta
p730
aV5kc-malta
p731
aVloongson-3
p732
aVocteon
p733
asg212
I01
ss(Vbase
p734
Vmipsn32
p735
tp736
(dp737
Vfeaturesets
p738
(lp739
sVkernel-arch
p740
Vmips
p741
ss(Vbase
p742
Vmipsn32el
p743
tp744
(dp745
Vfeaturesets
p746
(lp747
sVkernel-arch
p748
Vmips
p749
ss(Vbase
p750
Vmips64
p751
tp752
(dp753
g171
(lp754
g173
asVkernel-arch
p755
Vmips
p756
ss(Vbuild
p757
g751
tp758
(dp759
Vsigned-modules
p760
I00
sVimage-file
p761
Vvmlinux
p762
ss(Vimage
p763
g751
NV5kc-malta
p764
tp765
(dp766
Vconfigs
p767
(lp768
Vkernelarch-mips/config.malta
p769
aVkernelarch-mips/config.mips64r2
p770
ass(Vdescription
p771
g751
NVocteon
p772
tp773
(dp774
Vhardware
p775
VOcteon
p776
sVhardware-long
p777
VCavium Networks Octeon
p778
ss(Vimage
p779
g751
tp780
(dp781
Vinstall-stem
p782
Vvmlinux
p783
ss(Vdescription
p784
g751
NV5kc-malta
p785
tp786
(dp787
Vhardware
p788
VMIPS Malta
p789
sVhardware-long
p790
VMIPS Malta boards
p791
ss(Vimage
p792
g751
NVocteon
p793
tp794
(dp795
Vconfigs
p796
(lp797
Vkernelarch-mips/config.octeon
p798
ass(g205
g751
g173
tp799
(dp800
g208
(lp801
V5kc-malta
p802
aVocteon
p803
asg212
I01
ss(Vbase
p804
Vmips64el
p805
tp806
(dp807
g171
(lp808
g173
asVkernel-arch
p809
Vmips
p810
ss(Vimage
p811
g805
NVloongson-3
p812
tp813
(dp814
Vconfigs
p815
(lp816
Vkernelarch-mips/config.loongson-3
p817
ass(Vbuild
p818
g805
tp819
(dp820
Vsigned-modules
p821
I00
sVimage-file
p822
Vvmlinux
p823
ss(Vimage
p824
g805
NV5kc-malta
p825
tp826
(dp827
Vconfigs
p828
(lp829
Vkernelarch-mips/config.malta
p830
aVkernelarch-mips/config.mips64r2
p831
ass(Vdescription
p832
g805
NVocteon
p833
tp834
(dp835
Vhardware
p836
VOcteon
p837
sVhardware-long
p838
VCavium Networks Octeon
p839
ss(Vdescription
p840
g805
NVloongson-3
p841
tp842
(dp843
Vhardware
p844
VLoongson 3A/3B
p845
sVhardware-long
p846
VLoongson 3A or 3B based systems (e.g. from Loongson or Lemote)
p847
ss(Vimage
p848
g805
tp849
(dp850
Vinstall-stem
p851
Vvmlinux
p852
ss(Vdescription
p853
g805
NV5kc-malta
p854
tp855
(dp856
Vhardware
p857
VMIPS Malta
p858
sVhardware-long
p859
VMIPS Malta boards
p860
ss(Vimage
p861
g805
NVocteon
p862
tp863
(dp864
Vconfigs
p865
(lp866
Vkernelarch-mips/config.octeon
p867
ass(g205
g805
g173
tp868
(dp869
g208
(lp870
V5kc-malta
p871
aVloongson-3
p872
aVocteon
p873
asg212
I01
ss(Vbase
p874
Vpowerpc
p875
tp876
(dp877
g171
(lp878
g173
asVkernel-arch
p879
Vpowerpc
p880
ss(Vdescription
p881
g875
NVpowerpc64
p882
tp883
(dp884
Vhardware
p885
V64-bit PowerPC
p886
ss(Vbuild
p887
g875
tp888
(dp889
Vvdso
p890
I01
sVimage-file
p891
Vvmlinux
p892
ss(Vimage
p893
g875
NVpowerpc-smp
p894
tp895
(dp896
Vconfigs
p897
(lp898
Vpowerpc/config.powerpc
p899
aVpowerpc/config.powerpc-smp
p900
ass(Vdescription
p901
g875
NVpowerpc
p902
tp903
(dp904
Vhardware
p905
Vuniprocessor 32-bit PowerPC
p906
ss(Vimage
p907
g875
NVpowerpc64
p908
tp909
(dp910
Vconfigs
p911
(lp912
Vkernelarch-powerpc/config-arch-64
p913
aVkernelarch-powerpc/config-arch-64-be
p914
ass(Vdescription
p915
g875
NVpowerpc-smp
p916
tp917
(dp918
Vhardware
p919
Vmultiprocessor 32-bit PowerPC
p920
ss(Vimage
p921
g875
tp922
(dp923
Vsuggests
p924
Vmkvmlinuz
p925
sVinstall-stem
p926
Vvmlinux
p927
sVconfigs
p928
(lp929
ss(g205
g875
g173
tp930
(dp931
g208
(lp932
Vpowerpc
p933
aVpowerpc-smp
p934
aVpowerpc64
p935
asg212
I01
ss(Vbase
p936
Vpowerpcspe
p937
tp938
(dp939
g171
(lp940
g173
asVkernel-arch
p941
Vpowerpc
p942
ss(Vbuild
p943
g937
tp944
(dp945
Vsigned-modules
p946
I00
sVimage-file
p947
Vvmlinux
p948
sVvdso
p949
I01
ss(Vimage
p950
g937
tp951
(dp952
Vsuggests
p953
Vmkvmlinuz
p954
sVinstall-stem
p955
Vvmlinux
p956
ss(Vdescription
p957
g937
tp958
(dp959
Vhardware
p960
V32-bit PowerPC with SPE (instead of AltiVec) with SMP support
p961
ss(g205
g937
g173
tp962
(dp963
g208
(lp964
Vpowerpcspe
p965
asg212
I01
ss(Vbase
p966
Vppc64
p967
tp968
(dp969
g171
(lp970
g173
asVkernel-arch
p971
Vpowerpc
p972
ss(Vdescription
p973
g967
NVpowerpc64
p974
tp975
(dp976
Vhardware
p977
V64-bit PowerPC
p978
ss(Vbuild
p979
g967
tp980
(dp981
Vsigned-modules
p982
I00
sVimage-file
p983
Vvmlinux
p984
sVvdso
p985
I01
ss(Vimage
p986
g967
NVpowerpc64
p987
tp988
(dp989
Vconfigs
p990
(lp991
Vkernelarch-powerpc/config-arch-64
p992
aVkernelarch-powerpc/config-arch-64-be
p993
ass(Vimage
p994
g967
tp995
(dp996
Vsuggests
p997
Vmkvmlinuz
p998
sVinstall-stem
p999
Vvmlinux
p1000
sVconfigs
p1001
(lp1002
ss(g205
g967
g173
tp1003
(dp1004
g208
(lp1005
Vpowerpc64
p1006
asg212
I01
ss(Vbase
p1007
Vppc64el
p1008
tp1009
(dp1010
g171
(lp1011
g173
asVkernel-arch
p1012
Vpowerpc
p1013
ss(Vdescription
p1014
g1008
NVpowerpc64le
p1015
tp1016
(dp1017
Vhardware
p1018
VLittle-endian 64-bit PowerPC
p1019
ss(Vbuild
p1020
g1008
tp1021
(dp1022
Vvdso
p1023
I01
sVimage-file
p1024
Vvmlinux
p1025
ss(Vimage
p1026
g1008
tp1027
(dp1028
Vsuggests
p1029
Vmkvmlinuz
p1030
sVinstall-stem
p1031
Vvmlinux
p1032
sVconfigs
p1033
(lp1034
ss(Vimage
p1035
g1008
NVpowerpc64le
p1036
tp1037
(dp1038
Vconfigs
p1039
(lp1040
Vkernelarch-powerpc/config-arch-64
p1041
aVkernelarch-powerpc/config-arch-64-le
p1042
ass(g205
g1008
g173
tp1043
(dp1044
g208
(lp1045
Vpowerpc64le
p1046
asg212
I01
ss(Vbase
p1047
Vs390
p1048
tp1049
(dp1050
Vfeaturesets
p1051
(lp1052
sVkernel-arch
p1053
Vs390
p1054
ss(Vbase
p1055
Vs390x
p1056
tp1057
(dp1058
g171
(lp1059
g173
asVkernel-arch
p1060
Vs390
p1061
ss(Vdescription
p1062
g1056
NVs390x
p1063
tp1064
(dp1065
Vhardware
p1066
VIBM zSeries
p1067
ss(Vbuild
p1068
g1056
tp1069
(dp1070
Vvdso
p1071
I01
sVimage-file
p1072
Varch/s390/boot/image
p1073
ss(Vbuild
p1074
g1056
NVs390x
p1075
tp1076
(dp1077
Vdebug-info
p1078
I01
ss(Vrelations
p1079
g1056
tp1080
(dp1081
Vheaders%gcc-4.9
p1082
Vlinux-compiler-gcc-4.9-s390
p1083
ss(Vimage
p1084
g1056
tp1085
(dp1086
Vinstall-stem
p1087
Vvmlinuz
p1088
sVbootloaders
p1089
(lp1090
Vs390-tools
p1091
ass(g205
g1056
g173
tp1092
(dp1093
g208
(lp1094
Vs390x
p1095
asg212
I01
ss(Vbase
p1096
Vsh3
p1097
tp1098
(dp1099
Vfeaturesets
p1100
(lp1101
sVkernel-arch
p1102
Vsh
p1103
ss(Vbase
p1104
Vsh4
p1105
tp1106
(dp1107
g171
(lp1108
g173
asVkernel-arch
p1109
Vsh
p1110
ss(Vbuild
p1111
g1105
tp1112
(dp1113
Vsigned-modules
p1114
I00
sVimage-file
p1115
Varch/sh/boot/zImage
p1116
ss(Vdescription
p1117
g1105
NVsh7751r
p1118
tp1119
(dp1120
Vhardware
p1121
Vsh7751r
p1122
sVhardware-long
p1123
VRenesas SH7751R R2D plus board
p1124
ss(Vdescription
p1125
g1105
NVsh7785lcr
p1126
tp1127
(dp1128
Vhardware
p1129
Vsh7785lcr
p1130
sVhardware-long
p1131
VRenesas SH7785 reference board
p1132
ss(Vimage
p1133
g1105
tp1134
(dp1135
Vinstall-stem
p1136
Vvmlinuz
p1137
ss(Vimage
p1138
g1105
NVsh7785lcr
p1139
tp1140
(dp1141
Vrecommends
p1142
Vu-boot-tools
p1143
sVcheck-size
p1144
L4194304L
ss(g205
g1105
g173
tp1145
(dp1146
g208
(lp1147
Vsh7751r
p1148
aVsh7785lcr
p1149
asg212
I01
ss(Vbase
p1150
Vsparc
p1151
tp1152
(dp1153
Vfeaturesets
p1154
(lp1155
sVkernel-arch
p1156
Vsparc
p1157
ss(Vbase
p1158
Vsparc64
p1159
tp1160
(dp1161
g171
(lp1162
g173
asVkernel-arch
p1163
Vsparc
p1164
ss(Vbuild
p1165
g1159
tp1166
(dp1167
Vsigned-modules
p1168
I00
sVimage-file
p1169
Varch/sparc/boot/zImage
p1170
ss(Vimage
p1171
g1159
NVsparc64
p1172
tp1173
(dp1174
Vconfigs
p1175
(lp1176
Vkernelarch-sparc/config-up
p1177
ass(Vimage
p1178
g1159
NVsparc64-smp
p1179
tp1180
(dp1181
Vconfigs
p1182
(lp1183
Vkernelarch-sparc/config-smp
p1184
ass(Vimage
p1185
g1159
tp1186
(dp1187
Vsuggests
p1188
Vsilo, fdutils
p1189
sVinstall-stem
p1190
Vvmlinuz
p1191
sVconfigs
p1192
(lp1193
ss(Vdescription
p1194
g1159
NVsparc64-smp
p1195
tp1196
(dp1197
Vhardware
p1198
Vmultiprocessor 64-bit UltraSPARC
p1199
ss(Vdescription
p1200
g1159
NVsparc64
p1201
tp1202
(dp1203
Vhardware
p1204
Vuniprocessor 64-bit UltraSPARC
p1205
ss(g205
g1159
g173
tp1206
(dp1207
g208
(lp1208
Vsparc64
p1209
aVsparc64-smp
p1210
asg212
I01
ss(Vbase
p1211
Vtilegx
p1212
tp1213
(dp1214
Vfeaturesets
p1215
(lp1216
sVkernel-arch
p1217
Vtile
p1218
ss(Vbase
p1219
Vx32
p1220
tp1221
(dp1222
Vfeaturesets
p1223
(lp1224
sVkernel-arch
p1225
Vx86
p1226
ss(Vdescription
p1227
NVrt
p1228
tp1229
(dp1230
Vparts
p1231
(lp1232
Vrt
p1233
asVpart-long-rt
p1234
VThis kernel includes the PREEMPT_RT realtime patch set.
p1235
sVpart-short-rt
p1236
VPREEMPT_RT
p1237
ss(Vabi
p1238
Ng1228
tp1239
(dp1240
Vignore-changes
p1241
(lp1242
V*
p1243
ass(Vversion
p1244
tp1245
(dp1246
Vupstream
p1247
V4.9
p1248
sVsource
p1249
V4.9.144-3.1~deb8u1
p1250
sVabiname
p1251
V4.9.0-0.bpo.8
p1252
sVabiname_base
p1253
V4.9.0
p1254
ss.