ccopy_reg
_reconstructor
p0
(cdebian_linux.config
ConfigCore
p1
c__builtin__
dict
p2
(dp3
(Vdescription
p4
Vsparc64
p5
NVsparc64
p6
tp7
(dp8
Vhardware
p9
Vuniprocessor 64-bit UltraSPARC
p10
ss(Vbase
p11
Vmips64
p12
tp13
(dp14
Vfeaturesets
p15
(lp16
Vnone
p17
asVkernel-arch
p18
Vmips
p19
ss(Vbase
p20
Vhppa
p21
tp22
(dp23
g15
(lp24
g17
asVkernel-arch
p25
Vparisc
p26
ss(Vimage
p27
Vpowerpcspe
p28
tp29
(dp30
Vsuggests
p31
Vmkvmlinuz
p32
sVinstall-stem
p33
Vvmlinux
p34
ss(Vdescription
p35
Vm68k
p36
NVm68k
p37
tp38
(dp39
Vhardware
p40
VMotorola MC68020+ family
p41
ss(Vimage
p42
Varmel
p43
tp44
(dp45
Vinstall-stem
p46
Vvmlinuz
p47
ss(Vrelations
p48
Varmhf
p49
tp50
(dp51
Vheaders%gcc-5
p52
Vlinux-compiler-gcc-5-arm
p53
ss(Vbase
p54
NVrt
p55
tp56
(dp57
Venabled
p58
I01
ss(Vimage
p59
g43
NVmarvell
p60
tp61
(dp62
Vcheck-size
p63
L2097080L
sVcheck-size-with-dtb
p64
I01
sVrecommends
p65
Vu-boot-tools
p66
sVbreaks
p67
Vflash-kernel (<< 3.57~)
p68
ss(Vdescription
p69
Vi386
p70
tp71
(dp72
Vpart-long-pae
p73
VThis kernel requires PAE (Physical Address Extension).\u000aThis feature is supported by the Intel Pentium Pro/II/III/4/4M/D, Xeon,\u000aCore and Atom; AMD Geode NX, Athlon (K7), Duron, Opteron, Sempron,\u000aTurion or Phenom; Transmeta Efficeon; VIA C7; and some other processors.
p74
ss(Vdescription
p75
Vmips64el
p76
NV5kc-malta
p77
tp78
(dp79
Vhardware-long
p80
VMIPS Malta boards
p81
sVhardware
p82
VMIPS Malta
p83
ss(Vbuild
p84
tp85
(dp86
Vsigned-modules
p87
I01
sVdebug-info
p88
I01
ss(Vbase
p89
Vppc64el
p90
tp91
(dp92
g15
(lp93
g17
asVkernel-arch
p94
Vpowerpc
p95
ss(Vbase
p96
Vx32
p97
tp98
(dp99
Vfeaturesets
p100
(lp101
sVkernel-arch
p102
Vx86
p103
ss(Vbase
p104
Vs390x
p105
g17
tp106
(dp107
Vflavours
p108
(lp109
Vs390x
p110
asVimplicit-flavour
p111
I01
ss(Vimage
p112
Vamd64
p113
tp114
(dp115
Vinstall-stem
p116
Vvmlinuz
p117
sVbreaks
p118
Vxserver-xorg-input-vmmouse (<< 1:13.0.99)
p119
sVbootloaders
p120
(lp121
Vgrub-pc
p122
aVgrub-efi-amd64
p123
aVextlinux
p124
ass(Vdescription
p125
Vmips
p126
NV5kc-malta
p127
tp128
(dp129
Vhardware-long
p130
VMIPS Malta boards (64-bit)
p131
sVhardware
p132
VMIPS Malta (64-bit)
p133
ss(Vdescription
p134
g76
NVloongson-3
p135
tp136
(dp137
Vhardware-long
p138
VLoongson 3A or 3B based systems (e.g. from Loongson or Lemote)
p139
sVhardware
p140
VLoongson 3A/3B
p141
ss(Vimage
p142
g126
NVocteon
p143
tp144
(dp145
Vconfigs
p146
(lp147
Vkernelarch-mips/config.octeon
p148
ass(Vbase
p149
Vmipsn32
p150
tp151
(dp152
Vfeaturesets
p153
(lp154
sVkernel-arch
p155
Vmips
p156
ss(g104
g36
g17
tp157
(dp158
g108
(lp159
Vm68k
p160
asg111
I01
ss(Vimage
p161
g21
tp162
(dp163
Vsuggests
p164
Vpalo
p165
sVinstall-stem
p166
Vvmlinux
p167
ss(Vdescription
p168
Vsh4
p169
NVsh7785lcr
p170
tp171
(dp172
Vhardware-long
p173
VRenesas SH7785 reference board
p174
sVhardware
p175
Vsh7785lcr
p176
ss(Vdescription
p177
g12
NV5kc-malta
p178
tp179
(dp180
Vhardware-long
p181
VMIPS Malta boards
p182
sVhardware
p183
VMIPS Malta
p184
ss(Vbase
p185
g113
tp186
(dp187
Vkernel-arch
p188
Vx86
p189
sVfeaturesets
p190
(lp191
Vnone
p192
aVrt
p193
ass(Vdescription
p194
g5
NVsparc64-smp
p195
tp196
(dp197
Vhardware
p198
Vmultiprocessor 64-bit UltraSPARC
p199
ss(Vbase
p200
Vppc64
p201
tp202
(dp203
g15
(lp204
g17
asVkernel-arch
p205
Vpowerpc
p206
ss(Vdescription
p207
Valpha
p208
NValpha-generic
p209
tp210
(dp211
Vhardware-long
p212
VDEC Alpha systems with extended kernel start address (Wildfire, Titan, Marvel)
p213
sVhardware
p214
VAlpha
p215
ss(Vbuild
p216
g208
tp217
(dp218
Vsigned-modules
p219
I00
sVimage-file
p220
Varch/alpha/boot/vmlinux.gz
p221
ss(g104
g12
g17
tp222
(dp223
g108
(lp224
V5kc-malta
p225
aVocteon
p226
asg111
I01
ss(g104
g43
g17
tp227
(dp228
g108
(lp229
Vmarvell
p230
aVversatile
p231
asg111
I01
ss(g104
g169
g17
tp232
(dp233
g108
(lp234
Vsh7751r
p235
aVsh7785lcr
p236
asg111
I01
ss(Vbase
p237
g21
NVparisc64-smp
p238
tp239
(dp240
Vcflags
p241
V-fno-cse-follow-jumps
p242
sVoverride-host-type
p243
Vhppa64-linux-gnu
p244
ss(Vdescription
p245
Varm64
p246
NVarm64
p247
tp248
(dp249
Vhardware
p250
V64-bit ARMv8 machines
p251
ss(Vbase
p252
g5
tp253
(dp254
g15
(lp255
g17
asVkernel-arch
p256
Vsparc
p257
ss(Vbase
p258
Vpowerpc
p259
tp260
(dp261
g15
(lp262
g17
asVkernel-arch
p263
Vpowerpc
p264
ss(Vimage
p265
Vmipsel
p266
NVocteon
p267
tp268
(dp269
Vconfigs
p270
(lp271
Vkernelarch-mips/config.octeon
p272
ass(Vdescription
p273
g169
NVsh7751r
p274
tp275
(dp276
Vhardware-long
p277
VRenesas SH7751R R2D plus board
p278
sVhardware
p279
Vsh7751r
p280
ss(Vrelations
p281
g105
tp282
(dp283
Vheaders%gcc-5
p284
Vlinux-compiler-gcc-5-s390
p285
ss(Vimage
p286
g126
tp287
(dp288
Vinstall-stem
p289
Vvmlinux
p290
ss(Vbuild
p291
g28
tp292
(dp293
Vsigned-modules
p294
I00
sVvdso
p295
I01
sVimage-file
p296
Vvmlinux
p297
ss(Vimage
p298
g266
NV5kc-malta
p299
tp300
(dp301
Vconfigs
p302
(lp303
Vkernelarch-mips/config.malta
p304
aVkernelarch-mips/config.mips64r2
p305
ass(Vbase
p306
g28
tp307
(dp308
g15
(lp309
g17
asVkernel-arch
p310
Vpowerpc
p311
ss(Vdescription
p312
tp313
(dp314
Vpart-long-up
p315
VThis kernel is not suitable for SMP (multi-processor,\u000amulti-core or hyper-threaded) systems.
p316
sVpart-long-xen
p317
VThis kernel also runs on a Xen hypervisor.\u000aIt supports both privileged (dom0) and unprivileged (domU) operation.
p318
ss(Vbuild
p319
g43
tp320
(dp321
Vsigned-modules
p322
I00
sVimage-file
p323
Varch/arm/boot/zImage
p324
ss(Vdescription
p325
g113
Vnone
p326
Vamd64
p327
tp328
(dp329
Vparts
p330
(lp331
Vxen
p332
ass(Vimage
p333
g76
NV5kc-malta
p334
tp335
(dp336
Vconfigs
p337
(lp338
Vkernelarch-mips/config.malta
p339
aVkernelarch-mips/config.mips64r2
p340
ass(Vdescription
p341
g266
NVloongson-3
p342
tp343
(dp344
Vhardware-long
p345
VLoongson 3A or 3B based systems (e.g. from Loongson or Lemote)
p346
sVhardware
p347
VLoongson 3A/3B
p348
ss(Vdescription
p349
g21
NVparisc64-smp
p350
tp351
(dp352
Vhardware-long
p353
VHP PA-RISC 64-bit SMP systems with support for more than 4 GB RAM
p354
sVhardware
p355
Vmultiprocessor 64-bit PA-RISC
p356
ss(Vimage
p357
g259
NVpowerpc-smp
p358
tp359
(dp360
Vconfigs
p361
(lp362
Vpowerpc/config.powerpc
p363
aVpowerpc/config.powerpc-smp
p364
ass(Vdescription
p365
g70
Vnone
p366
V686-pae
p367
tp368
(dp369
Vparts
p370
(lp371
Vxen
p372
ass(Vbase
p373
g169
tp374
(dp375
g15
(lp376
g17
asVkernel-arch
p377
Vsh
p378
ss(Vbuild
p379
g113
tp380
(dp381
Vdebug-info
p382
I01
sVvdso
p383
I01
sVimage-file
p384
Varch/x86/boot/bzImage
p385
ss(Vdescription
p386
g126
NV4kc-malta
p387
tp388
(dp389
Vhardware-long
p390
VMIPS Malta boards
p391
sVhardware
p392
VMIPS Malta
p393
ss(Vdescription
p394
g43
NVversatile
p395
tp396
(dp397
Vhardware-long
p398
VVersatile systems (PB, AB, Qemu)
p399
sVhardware
p400
VVersatile
p401
ss(Vdescription
p402
g28
tp403
(dp404
Vhardware
p405
V32-bit PowerPC with SPE (instead of AltiVec) with SMP support
p406
ss(Vbase
p407
g105
tp408
(dp409
g15
(lp410
g17
asVkernel-arch
p411
Vs390
p412
ss(Vdescription
p413
g113
NVamd64
p414
tp415
(dp416
Vhardware-long
p417
VPCs with AMD64, Intel 64 or VIA Nano processors
p418
sVhardware
p419
V64-bit PCs
p420
ss(Vbuild
p421
g201
tp422
(dp423
Vsigned-modules
p424
I00
sVvdso
p425
I01
sVimage-file
p426
Vvmlinux
p427
ss(Vbuild
p428
g259
tp429
(dp430
Vvdso
p431
I01
sVimage-file
p432
Vvmlinux
p433
ss(Vimage
p434
g266
NV4kc-malta
p435
tp436
(dp437
Vconfigs
p438
(lp439
Vkernelarch-mips/config.malta
p440
aVkernelarch-mips/config.mips32r2
p441
ass(Vimage
p442
g5
NVsparc64-smp
p443
tp444
(dp445
Vconfigs
p446
(lp447
Vkernelarch-sparc/config-smp
p448
ass(Vdescription
p449
g259
NVpowerpc
p450
tp451
(dp452
Vhardware
p453
Vuniprocessor 32-bit PowerPC
p454
ss(Vimage
p455
g169
NVsh7785lcr
p456
tp457
(dp458
Vcheck-size
p459
L4194304L
sVrecommends
p460
Vu-boot-tools
p461
ss(Vdescription
p462
g259
NVpowerpc-smp
p463
tp464
(dp465
Vhardware
p466
Vmultiprocessor 32-bit PowerPC
p467
ss(Vrelations
p468
tp469
(dp470
Vgcc-5
p471
Vgcc-5 <!stage1 !cross>, gcc-5-@gnu-type-package@:native <!stage1 cross>
p472
sVinitramfs-tools
p473
Vinitramfs-tools (>= 0.110~)
p474
sVinitramfs-fallback
p475
Vlinux-initramfs-tool
p476
ss(Vbuild
p477
g105
NVs390x
p478
tp479
(dp480
Vdebug-info
p481
I01
ss(Vbuild
p482
g105
tp483
(dp484
Vvdso
p485
I01
sVimage-file
p486
Varch/s390/boot/image
p487
ss(g104
g5
g17
tp488
(dp489
g108
(lp490
Vsparc64
p491
aVsparc64-smp
p492
asg111
I01
ss(Vbase
p493
g36
tp494
(dp495
g15
(lp496
g17
asVcflags
p497
V-ffreestanding
p498
sVkernel-arch
p499
Vm68k
p500
ss(Vbase
p501
Vor1k
p502
tp503
(dp504
Vfeaturesets
p505
(lp506
sVkernel-arch
p507
Vopenrisc
p508
ss(g104
g259
g17
tp509
(dp510
g108
(lp511
Vpowerpc
p512
aVpowerpc-smp
p513
aVpowerpc64
p514
asg111
I01
ss(Vbase
p515
Vmipsn32el
p516
tp517
(dp518
Vfeaturesets
p519
(lp520
sVkernel-arch
p521
Vmips
p522
ss(Vdescription
p523
g21
NVparisc
p524
tp525
(dp526
Vhardware-long
p527
VHP PA-RISC 32-bit systems with max 4 GB RAM
p528
sVhardware
p529
V32-bit PA-RISC
p530
ss(Vbuild
p531
g70
NV686-pae
p532
tp533
(dp534
Vdebug-info
p535
I01
ss(Vimage
p536
g76
tp537
(dp538
Vinstall-stem
p539
Vvmlinux
p540
ss(Vbuild
p541
g70
tp542
(dp543
Vvdso
p544
I01
sVimage-file
p545
Varch/x86/boot/bzImage
p546
ss(Vdescription
p547
g266
NV5kc-malta
p548
tp549
(dp550
Vhardware-long
p551
VMIPS Malta boards (64-bit)
p552
sVhardware
p553
VMIPS Malta (64-bit)
p554
ss(Vimage
p555
g76
NVloongson-3
p556
tp557
(dp558
Vconfigs
p559
(lp560
Vkernelarch-mips/config.loongson-3
p561
ass(g104
g208
g17
tp562
(dp563
g108
(lp564
Valpha-generic
p565
aValpha-smp
p566
asg111
I01
ss(Vbuild
p567
g169
tp568
(dp569
Vsigned-modules
p570
I00
sVimage-file
p571
Varch/sh/boot/zImage
p572
ss(Vdescription
p573
g201
NVpowerpc64
p574
tp575
(dp576
Vhardware
p577
V64-bit PowerPC
p578
ss(Vdescription
p579
g105
NVs390x
p580
tp581
(dp582
Vhardware
p583
VIBM zSeries
p584
ss(Vimage
p585
g266
NVloongson-3
p586
tp587
(dp588
Vconfigs
p589
(lp590
Vkernelarch-mips/config.loongson-3
p591
ass(Vxen
p592
g113
g326
Vamd64
p593
tp594
(dp595
Vflavours
p596
(lp597
Vamd64
p598
ass(g104
g28
g17
tp599
(dp600
g108
(lp601
Vpowerpcspe
p602
asg111
I01
ss(g104
g90
g17
tp603
(dp604
g108
(lp605
Vpowerpc64le
p606
asg111
I01
ss(Vimage
p607
g90
NVpowerpc64le
p608
tp609
(dp610
Vconfigs
p611
(lp612
Vkernelarch-powerpc/config-arch-64
p613
aVkernelarch-powerpc/config-arch-64-le
p614
ass(g104
g201
g17
tp615
(dp616
g108
(lp617
Vpowerpc64
p618
asg111
I01
ss(Vbase
p619
g113
Vrt
p620
tp621
(dp622
Vflavours
p623
(lp624
Vamd64
p625
ass(Vbase
p626
Vtilegx
p627
tp628
(dp629
Vfeaturesets
p630
(lp631
sVkernel-arch
p632
Vtile
p633
ss(Vimage
p634
g12
tp635
(dp636
Vinstall-stem
p637
Vvmlinux
p638
ss(Vrelations
p639
g113
tp640
(dp641
Vheaders%gcc-5
p642
Vlinux-compiler-gcc-5-x86
p643
ss(Vbuild
p644
g5
tp645
(dp646
Vsigned-modules
p647
I00
sVimage-file
p648
Varch/sparc/boot/zImage
p649
ss(Vbase
p650
Vsparc
p651
tp652
(dp653
Vfeaturesets
p654
(lp655
sVkernel-arch
p656
Vsparc
p657
ss(Vbuild
p658
g36
tp659
(dp660
Vsigned-modules
p661
I00
sVimage-file
p662
Vvmlinux.gz
p663
ss(Vimage
p664
g201
tp665
(dp666
Vconfigs
p667
(lp668
sVsuggests
p669
Vmkvmlinuz
p670
sVinstall-stem
p671
Vvmlinux
p672
ss(Vrelations
p673
g43
tp674
(dp675
Vheaders%gcc-5
p676
Vlinux-compiler-gcc-5-arm
p677
ss(Vimage
p678
g126
NV5kc-malta
p679
tp680
(dp681
Vconfigs
p682
(lp683
Vkernelarch-mips/config.malta
p684
aVkernelarch-mips/config.mips64r2
p685
ass(Vbuild
p686
g49
tp687
(dp688
Vvdso
p689
I01
sVimage-file
p690
Varch/arm/boot/zImage
p691
ss(Vdescription
p692
g208
NValpha-smp
p693
tp694
(dp695
Vhardware-long
p696
VDEC Alpha SMP systems with extended kernel start address (Wildfire, Titan, Marvel)
p697
sVhardware
p698
VAlpha SMP
p699
ss(Vbuild
p700
g126
tp701
(dp702
Vsigned-modules
p703
I00
sVimage-file
p704
Vvmlinux
p705
ss(Vimage
p706
g259
tp707
(dp708
Vconfigs
p709
(lp710
sVsuggests
p711
Vmkvmlinuz
p712
sVinstall-stem
p713
Vvmlinux
p714
ss(Vdescription
p715
g70
NV686-pae
p716
tp717
(dp718
Vparts
p719
(lp720
Vpae
p721
asVhardware-long
p722
VPCs with one or more processors supporting PAE
p723
sVhardware
p724
Vmodern PCs
p725
ss(Vbase
p726
g49
tp727
(dp728
g15
(lp729
g17
asVkernel-arch
p730
Varm
p731
ss(Vbuild
p732
g90
tp733
(dp734
Vvdso
p735
I01
sVimage-file
p736
Vvmlinux
p737
ss(Vdescription
p738
g12
NVocteon
p739
tp740
(dp741
Vhardware-long
p742
VCavium Networks Octeon
p743
sVhardware
p744
VOcteon
p745
ss(Vbuild
p746
g76
tp747
(dp748
Vsigned-modules
p749
I00
sVimage-file
p750
Vvmlinux
p751
ss(Vimage
p752
g12
NVocteon
p753
tp754
(dp755
Vconfigs
p756
(lp757
Vkernelarch-mips/config.octeon
p758
ass(Vbase
p759
g70
g366
tp760
(dp761
Vflavours
p762
(lp763
V686
p764
aV686-pae
p765
ass(Vdescription
p766
g259
NVpowerpc64
p767
tp768
(dp769
Vhardware
p770
V64-bit PowerPC
p771
ss(Vbase
p772
g113
g326
tp773
(dp774
Vflavours
p775
(lp776
Vamd64
p777
ass(Vbase
p778
tp779
(dp780
Vcompiler
p781
Vgcc-5
p782
sVarches
p783
(lp784
Valpha
p785
aVamd64
p786
aVarm64
p787
aVarmel
p788
aVarmhf
p789
aVhppa
p790
aVi386
p791
aVm68k
p792
aVmips
p793
aVmipsel
p794
aVmipsn32
p795
aVmipsn32el
p796
aVmips64
p797
aVmips64el
p798
aVor1k
p799
aVpowerpc
p800
aVpowerpcspe
p801
aVppc64
p802
aVppc64el
p803
aVs390
p804
aVs390x
p805
aVsh4
p806
aVsparc
p807
aVsparc64
p808
aVtilegx
p809
aVx32
p810
asVfeaturesets
p811
(lp812
Vnone
p813
aVrt
p814
ass(Vimage
p815
g12
NV5kc-malta
p816
tp817
(dp818
Vconfigs
p819
(lp820
Vkernelarch-mips/config.malta
p821
aVkernelarch-mips/config.mips64r2
p822
ass(Vimage
p823
g90
tp824
(dp825
Vconfigs
p826
(lp827
sVsuggests
p828
Vmkvmlinuz
p829
sVinstall-stem
p830
Vvmlinux
p831
ss(Vimage
p832
g259
NVpowerpc64
p833
tp834
(dp835
Vconfigs
p836
(lp837
Vkernelarch-powerpc/config-arch-64
p838
aVkernelarch-powerpc/config-arch-64-be
p839
ass(Vimage
p840
g36
tp841
(dp842
Vsuggests
p843
Vvmelilo, fdutils
p844
sVinstall-stem
p845
Vvmlinuz
p846
ss(Vdescription
p847
g266
NVocteon
p848
tp849
(dp850
Vhardware-long
p851
VCavium Networks Octeon
p852
sVhardware
p853
VOcteon
p854
ss(Vimage
p855
g246
tp856
(dp857
Vinstall-stem
p858
Vvmlinuz
p859
ss(Vdescription
p860
g49
NVarmmp
p861
tp862
(dp863
Vhardware-long
p864
VARMv7 multiplatform kernel. See\u000ahttps://wiki.debian.org/DebianKernel/ARMMP for details of supported\u000aplatforms
p865
sVhardware
p866
VARMv7 multiplatform compatible SoCs
p867
ss(Vimage
p868
g266
tp869
(dp870
Vinstall-stem
p871
Vvmlinux
p872
ss(Vversion
p873
tp874
(dp875
Vabiname
p876
V4.8.0-1
p877
sVabiname_base
p878
V4.8.0
p879
sVsource
p880
V4.8.7-1
p881
sVupstream
p882
V4.8
p883
ss(Vimage
p884
g201
NVpowerpc64
p885
tp886
(dp887
Vconfigs
p888
(lp889
Vkernelarch-powerpc/config-arch-64
p890
aVkernelarch-powerpc/config-arch-64-be
p891
ass(Vbase
p892
g266
tp893
(dp894
g15
(lp895
g17
asVkernel-arch
p896
Vmips
p897
ss(Vbase
p898
g43
tp899
(dp900
g15
(lp901
g17
asVkernel-arch
p902
Varm
p903
ss(Vimage
p904
g169
tp905
(dp906
Vinstall-stem
p907
Vvmlinuz
p908
ss(Vimage
p909
tp910
(dp911
Vinitramfs-generators
p912
(lp913
Vinitramfs-tools
p914
aVinitramfs-fallback
p915
ass(Vdescription
p916
g49
NVarmmp-lpae
p917
tp918
(dp919
Vhardware-long
p920
VARMv7 multiplatform kernel supporting LPAE. See\u000ahttps://wiki.debian.org/DebianKernel/ARMMP for details of supported\u000aplatforms.
p921
sVhardware
p922
VARMv7 multiplatform compatible SoCs supporting LPAE
p923
ss(Vabi
p924
tp925
(dp926
Vignore-changes
p927
(lp928
Vmodule:drivers/net/wireless/ath/*
p929
asVabiname
p930
V1
p931
ss(Vdescription
p932
g43
NVmarvell
p933
tp934
(dp935
Vhardware-long
p936
VMarvell Kirkwood based systems (SheevaPlug, QNAP TS-119/TS-219, etc)\u000aand Orion 5181, 5182 and 5281 based systems (QNAP TS-109/TS-209, etc)
p937
sVhardware
p938
VMarvell Kirkwood/Orion
p939
ss(Vabi
p940
NVrt
p941
tp942
(dp943
Vignore-changes
p944
(lp945
V*
p946
ass(Vimage
p947
g70
tp948
(dp949
Vinstall-stem
p950
Vvmlinuz
p951
sVbreaks
p952
Vxserver-xorg-input-vmmouse (<< 1:13.0.99)
p953
sVbootloaders
p954
(lp955
Vgrub-pc
p956
aVextlinux
p957
ass(g104
g126
g17
tp958
(dp959
g108
(lp960
V4kc-malta
p961
aV5kc-malta
p962
aVocteon
p963
asg111
I01
ss(Vimage
p964
g105
tp965
(dp966
Vinstall-stem
p967
Vvmlinuz
p968
sVbootloaders
p969
(lp970
Vs390-tools
p971
ass(g104
g21
g17
tp972
(dp973
g108
(lp974
Vparisc
p975
aVparisc64-smp
p976
asg111
I01
ss(Vbase
p977
g246
tp978
(dp979
Vfeaturesets
p980
(lp981
Vnone
p982
asVkernel-arch
p983
Varm64
p984
ss(Vbase
p985
g76
tp986
(dp987
g15
(lp988
g17
asVkernel-arch
p989
Vmips
p990
ss(Vbase
p991
g208
tp992
(dp993
g15
(lp994
g17
asVkernel-arch
p995
Valpha
p996
ss(Vdescription
p997
Ng941
tp998
(dp999
Vparts
p1000
(lp1001
Vrt
p1002
asVpart-long-rt
p1003
VThis kernel includes the PREEMPT_RT realtime patch set.
p1004
sVpart-short-rt
p1005
VPREEMPT_RT
p1006
ss(Vimage
p1007
g126
NV4kc-malta
p1008
tp1009
(dp1010
Vconfigs
p1011
(lp1012
Vkernelarch-mips/config.malta
p1013
aVkernelarch-mips/config.mips32r2
p1014
ass(Vbase
p1015
g70
Vrt
p1016
tp1017
(dp1018
Vflavours
p1019
(lp1020
V686-pae
p1021
ass(Vbase
p1022
Vs390
p1023
tp1024
(dp1025
Vfeaturesets
p1026
(lp1027
sVkernel-arch
p1028
Vs390
p1029
ss(Vdescription
p1030
g70
NV686
p1031
tp1032
(dp1033
Vhardware-long
p1034
VPCs with one or more processors not supporting PAE
p1035
sVhardware
p1036
Volder PCs
p1037
ss(Vdescription
p1038
g90
NVpowerpc64le
p1039
tp1040
(dp1041
Vhardware
p1042
VLittle-endian 64-bit PowerPC
p1043
ss(Vimage
p1044
g5
NVsparc64
p1045
tp1046
(dp1047
Vconfigs
p1048
(lp1049
Vkernelarch-sparc/config-up
p1050
ass(Vbase
p1051
g246
Vnone
p1052
tp1053
(dp1054
Vflavours
p1055
(lp1056
Varm64
p1057
ass(Vimage
p1058
g208
tp1059
(dp1060
Vsuggests
p1061
Vaboot, fdutils
p1062
sVinstall-stem
p1063
Vvmlinuz
p1064
ss(Vimage
p1065
g49
tp1066
(dp1067
Vinstall-stem
p1068
Vvmlinuz
p1069
ss(g104
g266
g17
tp1070
(dp1071
g108
(lp1072
V4kc-malta
p1073
aV5kc-malta
p1074
aVloongson-3
p1075
aVocteon
p1076
asg111
I01
ss(Vimage
p1077
g246
NVarm64
p1078
tp1079
(dp1080
s(Vbase
p1081
g126
tp1082
(dp1083
g15
(lp1084
g17
asVkernel-arch
p1085
Vmips
p1086
ss(g104
g49
g17
tp1087
(dp1088
g108
(lp1089
Varmmp
p1090
aVarmmp-lpae
p1091
asg111
I01
ss(Vdescription
p1092
g266
NV4kc-malta
p1093
tp1094
(dp1095
Vhardware-long
p1096
VMIPS Malta boards
p1097
sVhardware
p1098
VMIPS Malta
p1099
ss(Vbuild
p1100
g21
tp1101
(dp1102
Vsigned-modules
p1103
I00
sVimage-file
p1104
Vvmlinux
p1105
ss(Vbuild
p1106
g12
tp1107
(dp1108
Vsigned-modules
p1109
I00
sVimage-file
p1110
Vvmlinux
p1111
ss(Vimage
p1112
g76
NVocteon
p1113
tp1114
(dp1115
Vconfigs
p1116
(lp1117
Vkernelarch-mips/config.octeon
p1118
ass(Vdescription
p1119
g76
NVocteon
p1120
tp1121
(dp1122
Vhardware-long
p1123
VCavium Networks Octeon
p1124
sVhardware
p1125
VOcteon
p1126
ss(Vimage
p1127
g5
tp1128
(dp1129
Vconfigs
p1130
(lp1131
sVsuggests
p1132
Vsilo, fdutils
p1133
sVinstall-stem
p1134
Vvmlinuz
p1135
ss(g104
g76
g17
tp1136
(dp1137
g108
(lp1138
V5kc-malta
p1139
aVloongson-3
p1140
aVocteon
p1141
asg111
I01
ss(Vbuild
p1142
g266
tp1143
(dp1144
Vsigned-modules
p1145
I00
sVimage-file
p1146
Vvmlinux
p1147
ss(Vrelations
p1148
g21
tp1149
(dp1150
Vgcc-5
p1151
Vgcc-5 <!stage1 !cross>, binutils-hppa64-linux-gnu <!stage1 !cross>, gcc-5-hppa64-linux-gnu <!stage1 !cross>, gcc-5-hppa-linux-gnu:native <!stage1 cross>, binutils-hppa64-linux-gnu:native <!stage1 cross>, gcc-5-hppa64-linux-gnu:native <!stage1 cross>
p1152
ss(Vbuild
p1153
g246
tp1154
(dp1155
Vdebug-info
p1156
I01
sVvdso
p1157
I01
sVimage-file
p1158
Varch/arm64/boot/Image
p1159
ss(Vdescription
p1160
g126
NVocteon
p1161
tp1162
(dp1163
Vhardware-long
p1164
VCavium Networks Octeon
p1165
sVhardware
p1166
VOcteon
p1167
ss(Vbase
p1168
g70
tp1169
(dp1170
Vkernel-arch
p1171
Vx86
p1172
sVfeaturesets
p1173
(lp1174
Vnone
p1175
aVrt
p1176
ass(Vrelations
p1177
g70
tp1178
(dp1179
Vheaders%gcc-5
p1180
Vlinux-compiler-gcc-5-x86
p1181
sstp1182
Rp1183
.