ccopy_reg
_reconstructor
p0
(cdebian_linux.config
ConfigCore
p1
c__builtin__
dict
p2
(dp3
(Vbase
p4
Vi386
p5
Vnone
p6
tp7
(dp8
Vflavours
p9
(lp10
V686
p11
aV686-pae
p12
ass(Vversion
p13
tp14
(dp15
Vsource
p16
V4.7.5-1
p17
sVabiname
p18
V4.7.0-1
p19
sVupstream
p20
V4.7
p21
sVabiname_base
p22
V4.7.0
p23
ss(Vdescription
p24
Vppc64el
p25
NVpowerpc64le
p26
tp27
(dp28
Vhardware
p29
VLittle-endian 64-bit PowerPC
p30
ss(Vabi
p31
NVrt
p32
tp33
(dp34
Vignore-changes
p35
(lp36
V*
p37
ass(Vbase
p38
g5
tp39
(dp40
Vkernel-arch
p41
Vx86
p42
sVfeaturesets
p43
(lp44
Vnone
p45
aVrt
p46
ass(Vbuild
p47
Varmel
p48
tp49
(dp50
Vsigned-modules
p51
I00
sVimage-file
p52
Varch/arm/boot/zImage
p53
ss(Vbase
p54
Vsparc
p55
tp56
(dp57
Vkernel-arch
p58
Vsparc
p59
sVfeaturesets
p60
(lp61
ss(Vrelations
p62
Vamd64
p63
tp64
(dp65
Vheaders%gcc-5
p66
Vlinux-compiler-gcc-5-x86
p67
ss(Vbase
p68
Varm64
p69
tp70
(dp71
Vkernel-arch
p72
Varm64
p73
sVfeaturesets
p74
(lp75
Vnone
p76
ass(Vbuild
p77
Vs390x
p78
NVs390x
p79
tp80
(dp81
Vdebug-info
p82
I01
ss(Vdescription
p83
Varmhf
p84
NVarmmp-lpae
p85
tp86
(dp87
Vhardware
p88
VARMv7 multiplatform compatible SoCs supporting LPAE
p89
sVhardware-long
p90
VARMv7 multiplatform kernel supporting LPAE. See\u000ahttps://wiki.debian.org/DebianKernel/ARMMP for details of supported\u000aplatforms.
p91
ss(Vbase
p92
Valpha
p93
tp94
(dp95
Vkernel-arch
p96
Valpha
p97
sVfeaturesets
p98
(lp99
Vnone
p100
ass(Vdescription
p101
tp102
(dp103
Vpart-long-xen
p104
VThis kernel also runs on a Xen hypervisor.\u000aIt supports both privileged (dom0) and unprivileged (domU) operation.
p105
sVpart-long-up
p106
VThis kernel is not suitable for SMP (multi-processor,\u000amulti-core or hyper-threaded) systems.
p107
ss(Vdescription
p108
g48
NVversatile
p109
tp110
(dp111
Vhardware
p112
VVersatile
p113
sVhardware-long
p114
VVersatile systems (PB, AB, Qemu)
p115
ss(Vbase
p116
g63
Vnone
p117
tp118
(dp119
Vflavours
p120
(lp121
Vamd64
p122
ass(Vbase
p123
Vx32
p124
tp125
(dp126
Vkernel-arch
p127
Vx86
p128
sVfeaturesets
p129
(lp130
ss(Vbase
p131
Vmipsel
p132
tp133
(dp134
Vkernel-arch
p135
Vmips
p136
sg98
(lp137
g100
ass(Vbase
p138
Vppc64
p139
tp140
(dp141
Vkernel-arch
p142
Vpowerpc
p143
sg98
(lp144
g100
ass(Vimage
p145
g132
NVocteon
p146
tp147
(dp148
Vconfigs
p149
(lp150
Vkernelarch-mips/config.octeon
p151
ass(Vimage
p152
Vmips64
p153
NV5kc-malta
p154
tp155
(dp156
Vconfigs
p157
(lp158
Vkernelarch-mips/config.malta
p159
aVkernelarch-mips/config.mips64r2
p160
ass(Vdescription
p161
g132
NVocteon
p162
tp163
(dp164
Vhardware
p165
VOcteon
p166
sVhardware-long
p167
VCavium Networks Octeon
p168
ss(Vrelations
p169
tp170
(dp171
Vinitramfs-tools
p172
Vinitramfs-tools (>= 0.110~)
p173
sVgcc-5
p174
Vgcc-5 <!stage1 !cross>, gcc-5-@gnu-type-package@:native <!stage1 cross>
p175
sVinitramfs-fallback
p176
Vlinux-initramfs-tool
p177
ss(Vimage
p178
g139
tp179
(dp180
Vinstall-stem
p181
Vvmlinux
p182
sVsuggests
p183
Vmkvmlinuz
p184
sVconfigs
p185
(lp186
ss(Vbase
p187
Vtilegx
p188
tp189
(dp190
Vkernel-arch
p191
Vtile
p192
sVfeaturesets
p193
(lp194
ss(Vdescription
p195
g132
NV4kc-malta
p196
tp197
(dp198
Vhardware
p199
VMIPS Malta
p200
sVhardware-long
p201
VMIPS Malta boards
p202
ss(Vbase
p203
g63
tp204
(dp205
Vkernel-arch
p206
Vx86
p207
sVfeaturesets
p208
(lp209
Vnone
p210
aVrt
p211
ass(Vimage
p212
Vsparc64
p213
tp214
(dp215
Vinstall-stem
p216
Vvmlinuz
p217
sVsuggests
p218
Vsilo, fdutils
p219
sVconfigs
p220
(lp221
ss(Vbase
p222
g48
tp223
(dp224
Vkernel-arch
p225
Varm
p226
sg98
(lp227
g100
ass(Vbase
p228
Vm68k
p229
g100
tp230
(dp231
Vimplicit-flavour
p232
I01
sVflavours
p233
(lp234
Vm68k
p235
ass(Vdescription
p236
g78
NVs390x
p237
tp238
(dp239
Vhardware
p240
VIBM zSeries
p241
ss(Vdescription
p242
g84
NVarmmp
p243
tp244
(dp245
Vhardware
p246
VARMv7 multiplatform compatible SoCs
p247
sVhardware-long
p248
VARMv7 multiplatform kernel. See\u000ahttps://wiki.debian.org/DebianKernel/ARMMP for details of supported\u000aplatforms
p249
ss(Vimage
p250
Vmips
p251
NV4kc-malta
p252
tp253
(dp254
Vconfigs
p255
(lp256
Vkernelarch-mips/config.malta
p257
aVkernelarch-mips/config.mips32r2
p258
ass(Vimage
p259
tp260
(dp261
Vinitramfs-generators
p262
(lp263
Vinitramfs-tools
p264
aVinitramfs-fallback
p265
ass(Vimage
p266
g139
NVpowerpc64
p267
tp268
(dp269
Vconfigs
p270
(lp271
Vkernelarch-powerpc/config-arch-64
p272
aVkernelarch-powerpc/config-arch-64-be
p273
ass(Vimage
p274
g63
tp275
(dp276
Vinstall-stem
p277
Vvmlinuz
p278
sVbootloaders
p279
(lp280
Vgrub-pc
p281
aVgrub-efi-amd64
p282
aVextlinux
p283
asVbreaks
p284
Vxserver-xorg-input-vmmouse (<< 1:13.0.99)
p285
ss(Vbuild
p286
g78
tp287
(dp288
Vvdso
p289
I01
sVimage-file
p290
Varch/s390/boot/image
p291
ss(Vimage
p292
g213
NVsparc64-smp
p293
tp294
(dp295
Vconfigs
p296
(lp297
Vkernelarch-sparc/config-smp
p298
ass(Vrelations
p299
g84
tp300
(dp301
Vheaders%gcc-5
p302
Vlinux-compiler-gcc-5-arm
p303
ss(Vbuild
p304
Vsh4
p305
tp306
(dp307
Vsigned-modules
p308
I00
sVimage-file
p309
Varch/sh/boot/zImage
p310
ss(Vbuild
p311
g5
NV686-pae
p312
tp313
(dp314
Vdebug-info
p315
I01
ss(Vdescription
p316
g153
NV5kc-malta
p317
tp318
(dp319
Vhardware
p320
VMIPS Malta
p321
sVhardware-long
p322
VMIPS Malta boards
p323
ss(Vbuild
p324
g69
tp325
(dp326
Vvdso
p327
I01
sVimage-file
p328
Varch/arm64/boot/Image
p329
sVdebug-info
p330
I01
ss(Vimage
p331
Vpowerpc
p332
NVpowerpc-smp
p333
tp334
(dp335
Vconfigs
p336
(lp337
Vpowerpc/config.powerpc
p338
aVpowerpc/config.powerpc-smp
p339
ass(Vdescription
p340
Vmips64el
p341
NV5kc-malta
p342
tp343
(dp344
Vhardware
p345
VMIPS Malta
p346
sVhardware-long
p347
VMIPS Malta boards
p348
ss(Vbase
p349
g78
tp350
(dp351
Vkernel-arch
p352
Vs390
p353
sg98
(lp354
g100
ass(Vbuild
p355
g153
tp356
(dp357
Vsigned-modules
p358
I00
sVimage-file
p359
Vvmlinux
p360
ss(Vimage
p361
g48
NVmarvell
p362
tp363
(dp364
Vcheck-size
p365
L2097080L
sVrecommends
p366
Vu-boot-tools
p367
sVbreaks
p368
Vflash-kernel (<< 3.57~)
p369
sVcheck-size-with-dtb
p370
I01
ss(g228
g251
g100
tp371
(dp372
g232
I01
sg233
(lp373
V4kc-malta
p374
aV5kc-malta
p375
aVocteon
p376
ass(g228
g332
g100
tp377
(dp378
g232
I01
sg233
(lp379
Vpowerpc
p380
aVpowerpc-smp
p381
aVpowerpc64
p382
ass(Vrelations
p383
Vhppa
p384
tp385
(dp386
Vgcc-5
p387
Vgcc-5 <!stage1 !cross>, binutils-hppa64-linux-gnu <!stage1 !cross>, gcc-5-hppa64-linux-gnu <!stage1 !cross>, gcc-5-hppa-linux-gnu:native <!stage1 cross>, binutils-hppa64-linux-gnu:native <!stage1 cross>, gcc-5-hppa64-linux-gnu:native <!stage1 cross>
p388
ss(Vimage
p389
g153
NVocteon
p390
tp391
(dp392
Vconfigs
p393
(lp394
Vkernelarch-mips/config.octeon
p395
ass(Vimage
p396
g305
NVsh7785lcr
p397
tp398
(dp399
Vcheck-size
p400
L4194304L
sVrecommends
p401
Vu-boot-tools
p402
ss(Vimage
p403
g305
tp404
(dp405
Vinstall-stem
p406
Vvmlinuz
p407
ss(Vrelations
p408
g78
tp409
(dp410
Vheaders%gcc-5
p411
Vlinux-compiler-gcc-5-s390
p412
ss(g228
g78
g100
tp413
(dp414
g232
I01
sg233
(lp415
Vs390x
p416
ass(g228
g25
g100
tp417
(dp418
g232
I01
sg233
(lp419
Vpowerpc64le
p420
ass(Vimage
p421
g69
tp422
(dp423
Vinstall-stem
p424
Vvmlinuz
p425
ss(Vbuild
p426
g63
tp427
(dp428
Vvdso
p429
I01
sVimage-file
p430
Varch/x86/boot/bzImage
p431
sVdebug-info
p432
I01
ss(Vbase
p433
g69
Vnone
p434
tp435
(dp436
Vflavours
p437
(lp438
Varm64
p439
ass(Vimage
p440
Vpowerpcspe
p441
tp442
(dp443
Vinstall-stem
p444
Vvmlinux
p445
sVsuggests
p446
Vmkvmlinuz
p447
ss(Vdescription
p448
g341
NVloongson-3
p449
tp450
(dp451
Vhardware
p452
VLoongson 3A/3B
p453
sVhardware-long
p454
VLoongson 3A or 3B based systems (e.g. from Loongson or Lemote)
p455
ss(Vbuild
p456
g229
tp457
(dp458
Vsigned-modules
p459
I00
sVimage-file
p460
Vvmlinux.gz
p461
ss(Vbase
p462
g5
Vrt
p463
tp464
(dp465
Vflavours
p466
(lp467
V686-pae
p468
ass(Vimage
p469
g229
tp470
(dp471
Vinstall-stem
p472
Vvmlinuz
p473
sVsuggests
p474
Vvmelilo, fdutils
p475
ss(Vdescription
p476
g213
NVsparc64-smp
p477
tp478
(dp479
Vhardware
p480
Vmultiprocessor 64-bit UltraSPARC
p481
ss(g228
g139
g100
tp482
(dp483
g232
I01
sg233
(lp484
Vpowerpc64
p485
ass(Vimage
p486
g5
tp487
(dp488
Vinstall-stem
p489
Vvmlinuz
p490
sVbootloaders
p491
(lp492
Vgrub-pc
p493
aVextlinux
p494
asVbreaks
p495
Vxserver-xorg-input-vmmouse (<< 1:13.0.99)
p496
ss(Vbase
p497
g63
Vrt
p498
tp499
(dp500
Vflavours
p501
(lp502
Vamd64
p503
ass(Vbuild
p504
g384
tp505
(dp506
Vsigned-modules
p507
I00
sVimage-file
p508
Vvmlinux
p509
ss(Vdescription
p510
g5
g6
V686-pae
p511
tp512
(dp513
Vparts
p514
(lp515
Vxen
p516
ass(Vimage
p517
g84
tp518
(dp519
Vinstall-stem
p520
Vvmlinuz
p521
ss(Vdescription
p522
g213
NVsparc64
p523
tp524
(dp525
Vhardware
p526
Vuniprocessor 64-bit UltraSPARC
p527
ss(g228
g384
g100
tp528
(dp529
g232
I01
sg233
(lp530
Vparisc
p531
aVparisc64-smp
p532
ass(Vdescription
p533
g229
NVm68k
p534
tp535
(dp536
Vhardware
p537
VMotorola MC68020+ family
p538
ss(g228
g341
g100
tp539
(dp540
g232
I01
sg233
(lp541
V5kc-malta
p542
aVloongson-3
p543
aVocteon
p544
ass(Vimage
p545
g332
tp546
(dp547
Vinstall-stem
p548
Vvmlinux
p549
sVsuggests
p550
Vmkvmlinuz
p551
sVconfigs
p552
(lp553
ss(Vimage
p554
g25
NVpowerpc64le
p555
tp556
(dp557
Vconfigs
p558
(lp559
Vkernelarch-powerpc/config-arch-64
p560
aVkernelarch-powerpc/config-arch-64-le
p561
ass(Vdescription
p562
g341
NVocteon
p563
tp564
(dp565
Vhardware
p566
VOcteon
p567
sVhardware-long
p568
VCavium Networks Octeon
p569
ss(Vbuild
p570
g332
tp571
(dp572
Vvdso
p573
I01
sVimage-file
p574
Vvmlinux
p575
ss(Vdescription
p576
g441
tp577
(dp578
Vhardware
p579
V32-bit PowerPC with SPE (instead of AltiVec) with SMP support
p580
ss(Vimage
p581
g341
tp582
(dp583
Vinstall-stem
p584
Vvmlinux
p585
ss(Vbase
p586
g305
tp587
(dp588
Vkernel-arch
p589
Vsh
p590
sg98
(lp591
g100
ass(Vbuild
p592
g5
tp593
(dp594
Vvdso
p595
I01
sVimage-file
p596
Varch/x86/boot/bzImage
p597
ss(Vimage
p598
g213
NVsparc64
p599
tp600
(dp601
Vconfigs
p602
(lp603
Vkernelarch-sparc/config-up
p604
ass(Vbase
p605
Vs390
p606
tp607
(dp608
Vkernel-arch
p609
Vs390
p610
sVfeaturesets
p611
(lp612
ss(Vimage
p613
g384
tp614
(dp615
Vinstall-stem
p616
Vvmlinux
p617
sVsuggests
p618
Vpalo
p619
ss(Vbase
p620
Vmipsn32
p621
tp622
(dp623
Vkernel-arch
p624
Vmips
p625
sVfeaturesets
p626
(lp627
ss(Vbase
p628
Vor1k
p629
tp630
(dp631
Vkernel-arch
p632
Vopenrisc
p633
sVfeaturesets
p634
(lp635
ss(Vdescription
p636
g384
NVparisc
p637
tp638
(dp639
Vhardware
p640
V32-bit PA-RISC
p641
sVhardware-long
p642
VHP PA-RISC 32-bit systems with max 4 GB RAM
p643
ss(Vdescription
p644
g251
NVocteon
p645
tp646
(dp647
Vhardware
p648
VOcteon
p649
sVhardware-long
p650
VCavium Networks Octeon
p651
ss(Vdescription
p652
g332
NVpowerpc-smp
p653
tp654
(dp655
Vhardware
p656
Vmultiprocessor 32-bit PowerPC
p657
ss(Vdescription
p658
g63
NVamd64
p659
tp660
(dp661
Vhardware
p662
V64-bit PCs
p663
sVhardware-long
p664
VPCs with AMD64, Intel 64 or VIA Nano processors
p665
ss(Vimage
p666
g251
tp667
(dp668
Vinstall-stem
p669
Vvmlinux
p670
ss(Vbase
p671
g441
tp672
(dp673
Vkernel-arch
p674
Vpowerpc
p675
sg98
(lp676
g100
ass(Vrelations
p677
g5
tp678
(dp679
Vheaders%gcc-5
p680
Vlinux-compiler-gcc-5-x86
p681
ss(Vdescription
p682
g251
NV4kc-malta
p683
tp684
(dp685
Vhardware
p686
VMIPS Malta
p687
sVhardware-long
p688
VMIPS Malta boards
p689
ss(Vimage
p690
g25
tp691
(dp692
Vinstall-stem
p693
Vvmlinux
p694
sVsuggests
p695
Vmkvmlinuz
p696
sVconfigs
p697
(lp698
ss(Vimage
p699
g341
NVocteon
p700
tp701
(dp702
Vconfigs
p703
(lp704
Vkernelarch-mips/config.octeon
p705
ass(Vimage
p706
g341
NVloongson-3
p707
tp708
(dp709
Vconfigs
p710
(lp711
Vkernelarch-mips/config.loongson-3
p712
ass(Vdescription
p713
g93
NValpha-smp
p714
tp715
(dp716
Vhardware
p717
VAlpha SMP
p718
sVhardware-long
p719
VDEC Alpha SMP systems with extended kernel start address (Wildfire, Titan, Marvel)
p720
ss(Vbuild
p721
g93
tp722
(dp723
Vsigned-modules
p724
I00
sVimage-file
p725
Varch/alpha/boot/vmlinux.gz
p726
ss(Vdescription
p727
Ng32
tp728
(dp729
Vpart-short-rt
p730
VPREEMPT_RT
p731
sVpart-long-rt
p732
VThis kernel includes the PREEMPT_RT realtime patch set.
p733
sVparts
p734
(lp735
Vrt
p736
ass(Vimage
p737
g93
tp738
(dp739
Vinstall-stem
p740
Vvmlinuz
p741
sVsuggests
p742
Vaboot, fdutils
p743
ss(Vimage
p744
g132
NV5kc-malta
p745
tp746
(dp747
Vconfigs
p748
(lp749
Vkernelarch-mips/config.malta
p750
aVkernelarch-mips/config.mips64r2
p751
ass(Vdescription
p752
g132
NV5kc-malta
p753
tp754
(dp755
Vhardware
p756
VMIPS Malta (64-bit)
p757
sVhardware-long
p758
VMIPS Malta boards (64-bit)
p759
ss(g228
g305
g100
tp760
(dp761
g232
I01
sg233
(lp762
Vsh7751r
p763
aVsh7785lcr
p764
ass(Vdescription
p765
g93
NValpha-generic
p766
tp767
(dp768
Vhardware
p769
VAlpha
p770
sVhardware-long
p771
VDEC Alpha systems with extended kernel start address (Wildfire, Titan, Marvel)
p772
ss(Vdescription
p773
g251
NV5kc-malta
p774
tp775
(dp776
Vhardware
p777
VMIPS Malta (64-bit)
p778
sVhardware-long
p779
VMIPS Malta boards (64-bit)
p780
ss(Vbase
p781
g229
tp782
(dp783
g98
(lp784
g100
asVkernel-arch
p785
Vm68k
p786
sVcflags
p787
V-ffreestanding
p788
ss(Vdescription
p789
g332
NVpowerpc64
p790
tp791
(dp792
Vhardware
p793
V64-bit PowerPC
p794
ss(Vimage
p795
g251
NV5kc-malta
p796
tp797
(dp798
Vconfigs
p799
(lp800
Vkernelarch-mips/config.malta
p801
aVkernelarch-mips/config.mips64r2
p802
ass(g228
g441
g100
tp803
(dp804
g232
I01
sg233
(lp805
Vpowerpcspe
p806
ass(Vbuild
p807
g213
tp808
(dp809
Vsigned-modules
p810
I00
sVimage-file
p811
Varch/sparc/boot/zImage
p812
ss(Vbuild
p813
g251
tp814
(dp815
Vsigned-modules
p816
I00
sVimage-file
p817
Vvmlinux
p818
ss(Vbuild
p819
g341
tp820
(dp821
Vsigned-modules
p822
I00
sVimage-file
p823
Vvmlinux
p824
ss(Vimage
p825
g153
tp826
(dp827
Vinstall-stem
p828
Vvmlinux
p829
ss(Vrelations
p830
g48
tp831
(dp832
Vheaders%gcc-5
p833
Vlinux-compiler-gcc-5-arm
p834
ss(Vdescription
p835
g384
NVparisc64-smp
p836
tp837
(dp838
Vhardware
p839
Vmultiprocessor 64-bit PA-RISC
p840
sVhardware-long
p841
VHP PA-RISC 64-bit SMP systems with support for more than 4 GB RAM
p842
ss(Vimage
p843
g251
NVocteon
p844
tp845
(dp846
Vconfigs
p847
(lp848
Vkernelarch-mips/config.octeon
p849
ass(Vbase
p850
g84
tp851
(dp852
Vkernel-arch
p853
Varm
p854
sg98
(lp855
g100
ass(Vbuild
p856
g139
tp857
(dp858
Vvdso
p859
I01
sVsigned-modules
p860
I00
sVimage-file
p861
Vvmlinux
p862
ss(Vdescription
p863
g48
NVmarvell
p864
tp865
(dp866
Vhardware
p867
VMarvell Kirkwood/Orion
p868
sVhardware-long
p869
VMarvell Kirkwood based systems (SheevaPlug, QNAP TS-119/TS-219, etc)\u000aand Orion 5181, 5182 and 5281 based systems (QNAP TS-109/TS-209, etc)
p870
ss(Vabi
p871
tp872
(dp873
Vabiname
p874
V1
p875
ss(Vbase
p876
g153
tp877
(dp878
Vkernel-arch
p879
Vmips
p880
sg98
(lp881
g100
ass(Vbuild
p882
g84
tp883
(dp884
Vvdso
p885
I01
sVimage-file
p886
Varch/arm/boot/zImage
p887
ss(Vbase
p888
g25
tp889
(dp890
Vkernel-arch
p891
Vpowerpc
p892
sg98
(lp893
g100
ass(Vbase
p894
g384
NVparisc64-smp
p895
tp896
(dp897
Voverride-host-type
p898
Vhppa64-linux-gnu
p899
sVcflags
p900
V-fno-cse-follow-jumps
p901
ss(Vdescription
p902
g5
tp903
(dp904
Vpart-long-pae
p905
VThis kernel requires PAE (Physical Address Extension).\u000aThis feature is supported by the Intel Pentium Pro/II/III/4/4M/D, Xeon,\u000aCore and Atom; AMD Geode NX, Athlon (K7), Duron, Opteron, Sempron,\u000aTurion or Phenom; Transmeta Efficeon; VIA C7; and some other processors.
p906
ss(Vimage
p907
g78
tp908
(dp909
Vinstall-stem
p910
Vvmlinuz
p911
sVbootloaders
p912
(lp913
Vs390-tools
p914
ass(Vbase
p915
NVrt
p916
tp917
(dp918
Venabled
p919
I00
ss(Vbuild
p920
g441
tp921
(dp922
Vvdso
p923
I01
sVsigned-modules
p924
I00
sVimage-file
p925
Vvmlinux
p926
ss(g228
g84
g100
tp927
(dp928
g232
I01
sg233
(lp929
Varmmp
p930
aVarmmp-lpae
p931
ass(Vdescription
p932
g153
NVocteon
p933
tp934
(dp935
Vhardware
p936
VOcteon
p937
sVhardware-long
p938
VCavium Networks Octeon
p939
ss(Vbuild
p940
g25
tp941
(dp942
Vvdso
p943
I01
sVimage-file
p944
Vvmlinux
p945
ss(Vdescription
p946
g63
g117
Vamd64
p947
tp948
(dp949
Vparts
p950
(lp951
Vxen
p952
ass(Vimage
p953
g132
NVloongson-3
p954
tp955
(dp956
Vconfigs
p957
(lp958
Vkernelarch-mips/config.loongson-3
p959
ass(Vbase
p960
tp961
(dp962
Vcompiler
p963
Vgcc-5
p964
sVarches
p965
(lp966
Valpha
p967
aVamd64
p968
aVarm64
p969
aVarmel
p970
aVarmhf
p971
aVhppa
p972
aVi386
p973
aVm68k
p974
aVmips
p975
aVmipsel
p976
aVmipsn32
p977
aVmipsn32el
p978
aVmips64
p979
aVmips64el
p980
aVor1k
p981
aVpowerpc
p982
aVpowerpcspe
p983
aVppc64
p984
aVppc64el
p985
aVs390
p986
aVs390x
p987
aVsh4
p988
aVsparc
p989
aVsparc64
p990
aVtilegx
p991
aVx32
p992
asVfeaturesets
p993
(lp994
Vnone
p995
aVrt
p996
ass(Vimage
p997
g132
NV4kc-malta
p998
tp999
(dp1000
Vconfigs
p1001
(lp1002
Vkernelarch-mips/config.malta
p1003
aVkernelarch-mips/config.mips32r2
p1004
ass(Vdescription
p1005
g5
NV686
p1006
tp1007
(dp1008
Vhardware
p1009
Volder PCs
p1010
sVhardware-long
p1011
VPCs with one or more processors not supporting PAE
p1012
ss(Vdescription
p1013
g305
NVsh7785lcr
p1014
tp1015
(dp1016
Vhardware
p1017
Vsh7785lcr
p1018
sVhardware-long
p1019
VRenesas SH7785 reference board
p1020
ss(Vimage
p1021
g341
NV5kc-malta
p1022
tp1023
(dp1024
Vconfigs
p1025
(lp1026
Vkernelarch-mips/config.malta
p1027
aVkernelarch-mips/config.mips64r2
p1028
ass(g228
g132
g100
tp1029
(dp1030
g232
I01
sg233
(lp1031
V4kc-malta
p1032
aV5kc-malta
p1033
aVloongson-3
p1034
aVocteon
p1035
ass(Vdescription
p1036
g69
NVarm64
p1037
tp1038
(dp1039
Vhardware
p1040
V64-bit ARMv8 machines
p1041
ss(Vbase
p1042
g341
tp1043
(dp1044
Vkernel-arch
p1045
Vmips
p1046
sg98
(lp1047
g100
ass(Vbase
p1048
g251
tp1049
(dp1050
Vkernel-arch
p1051
Vmips
p1052
sg98
(lp1053
g100
ass(Vimage
p1054
g48
tp1055
(dp1056
Vinstall-stem
p1057
Vvmlinuz
p1058
ss(g228
g48
g100
tp1059
(dp1060
g232
I01
sg233
(lp1061
Vmarvell
p1062
aVversatile
p1063
ass(Vbase
p1064
g213
tp1065
(dp1066
Vkernel-arch
p1067
Vsparc
p1068
sg98
(lp1069
g100
ass(Vimage
p1070
g69
NVarm64
p1071
tp1072
(dp1073
s(Vbase
p1074
g332
tp1075
(dp1076
Vkernel-arch
p1077
Vpowerpc
p1078
sg98
(lp1079
g100
ass(Vbuild
p1080
tp1081
(dp1082
Vsigned-modules
p1083
I01
sVdebug-info
p1084
I01
ss(Vdescription
p1085
g139
NVpowerpc64
p1086
tp1087
(dp1088
Vhardware
p1089
V64-bit PowerPC
p1090
ss(Vdescription
p1091
g132
NVloongson-3
p1092
tp1093
(dp1094
Vhardware
p1095
VLoongson 3A/3B
p1096
sVhardware-long
p1097
VLoongson 3A or 3B based systems (e.g. from Loongson or Lemote)
p1098
ss(Vdescription
p1099
g5
NV686-pae
p1100
tp1101
(dp1102
Vhardware
p1103
Vmodern PCs
p1104
sVparts
p1105
(lp1106
Vpae
p1107
asVhardware-long
p1108
VPCs with one or more processors supporting PAE
p1109
ss(g228
g213
g100
tp1110
(dp1111
g232
I01
sg233
(lp1112
Vsparc64
p1113
aVsparc64-smp
p1114
ass(Vimage
p1115
g132
tp1116
(dp1117
Vinstall-stem
p1118
Vvmlinux
p1119
ss(Vbase
p1120
g384
tp1121
(dp1122
Vkernel-arch
p1123
Vparisc
p1124
sg98
(lp1125
g100
ass(Vdescription
p1126
g332
NVpowerpc
p1127
tp1128
(dp1129
Vhardware
p1130
Vuniprocessor 32-bit PowerPC
p1131
ss(g228
g153
g100
tp1132
(dp1133
g232
I01
sg233
(lp1134
V5kc-malta
p1135
aVocteon
p1136
ass(Vxen
p1137
g63
g117
Vamd64
p1138
tp1139
(dp1140
Vflavours
p1141
(lp1142
Vamd64
p1143
ass(Vdescription
p1144
g305
NVsh7751r
p1145
tp1146
(dp1147
Vhardware
p1148
Vsh7751r
p1149
sVhardware-long
p1150
VRenesas SH7751R R2D plus board
p1151
ss(Vimage
p1152
g332
NVpowerpc64
p1153
tp1154
(dp1155
Vconfigs
p1156
(lp1157
Vkernelarch-powerpc/config-arch-64
p1158
aVkernelarch-powerpc/config-arch-64-be
p1159
ass(Vbase
p1160
Vmipsn32el
p1161
tp1162
(dp1163
Vkernel-arch
p1164
Vmips
p1165
sVfeaturesets
p1166
(lp1167
ss(g228
g93
g100
tp1168
(dp1169
g232
I01
sg233
(lp1170
Valpha-generic
p1171
aValpha-smp
p1172
ass(Vbuild
p1173
g132
tp1174
(dp1175
Vsigned-modules
p1176
I00
sVimage-file
p1177
Vvmlinux
p1178
sstp1179
Rp1180
.