ccopy_reg
_reconstructor
p0
(cdebian_linux.config
ConfigCore
p1
c__builtin__
dict
p2
(dp3
(Vbase
p4
Vi386
p5
Vrt
p6
tp7
(dp8
Vflavours
p9
(lp10
V686-pae
p11
ass(Vbase
p12
Vppc64el
p13
Vnone
p14
tp15
(dp16
Vimplicit-flavour
p17
I01
sVflavours
p18
(lp19
Vpowerpc64le
p20
ass(Vdescription
p21
Vhppa
p22
NVparisc64-smp
p23
tp24
(dp25
Vhardware
p26
Vmultiprocessor 64-bit PA-RISC
p27
sVhardware-long
p28
VHP PA-RISC 64-bit SMP systems with support for more than 4 GB RAM
p29
ss(Vimage
p30
Vpowerpcspe
p31
tp32
(dp33
Vsuggests
p34
Vmkvmlinuz
p35
sVinstall-stem
p36
Vvmlinux
p37
ss(Vdescription
p38
Vsparc64
p39
NVsparc64-smp
p40
tp41
(dp42
Vhardware
p43
Vmultiprocessor 64-bit UltraSPARC
p44
ss(Vimage
p45
Varmhf
p46
tp47
(dp48
Vinstall-stem
p49
Vvmlinuz
p50
ss(Vbase
p51
Vamd64
p52
Vnone
p53
tp54
(dp55
Vflavours
p56
(lp57
Vamd64
p58
ass(Vbase
p59
Varm64
p60
Vnone
p61
tp62
(dp63
Vflavours
p64
(lp65
Varm64
p66
ass(Vdescription
p67
Vmipsel
p68
NVloongson-3
p69
tp70
(dp71
Vhardware
p72
VLoongson 3A/3B
p73
sVhardware-long
p74
VLoongson 3A or 3B based systems (e.g. from Loongson or Lemote)
p75
ss(Vimage
p76
g39
NVsparc64
p77
tp78
(dp79
Vconfigs
p80
(lp81
Vkernelarch-sparc/config-up
p82
ass(Vdescription
p83
g60
NVarm64
p84
tp85
(dp86
Vhardware
p87
V64-bit ARMv8 machines
p88
ss(Vdescription
p89
Vmips64el
p90
NVloongson-3
p91
tp92
(dp93
Vhardware
p94
VLoongson 3A/3B
p95
sVhardware-long
p96
VLoongson 3A or 3B based systems (e.g. from Loongson or Lemote)
p97
ss(Vbase
p98
Varmel
p99
tp100
(dp101
Vkernel-arch
p102
Varm
p103
sVfeaturesets
p104
(lp105
g14
ass(Vdescription
p106
Vsh4
p107
NVsh7751r
p108
tp109
(dp110
Vhardware
p111
Vsh7751r
p112
sVhardware-long
p113
VRenesas SH7751R R2D plus board
p114
ss(Vdescription
p115
Vpowerpc
p116
NVpowerpc-smp
p117
tp118
(dp119
Vhardware
p120
Vmultiprocessor 32-bit PowerPC
p121
ss(Vimage
p122
Vmips
p123
NV5kc-malta
p124
tp125
(dp126
Vconfigs
p127
(lp128
Vkernelarch-mips/config.malta
p129
aVkernelarch-mips/config.mips64r2
p130
ass(Vimage
p131
g68
NVloongson-3
p132
tp133
(dp134
Vconfigs
p135
(lp136
Vkernelarch-mips/config.loongson-3
p137
ass(Vbuild
p138
g46
tp139
(dp140
Vvdso
p141
I01
sVimage-file
p142
Varch/arm/boot/zImage
p143
ss(g12
Vs390x
p144
g14
tp145
(dp146
g17
I01
sg18
(lp147
Vs390x
p148
ass(g12
g68
g14
tp149
(dp150
g17
I01
sg18
(lp151
V4kc-malta
p152
aV5kc-malta
p153
aVloongson-3
p154
aVocteon
p155
ass(Vbase
p156
g60
tp157
(dp158
Vkernel-arch
p159
Varm64
p160
sVfeaturesets
p161
(lp162
Vnone
p163
ass(Vbase
p164
Vmipsn32
p165
tp166
(dp167
Vkernel-arch
p168
Vmips
p169
sVfeaturesets
p170
(lp171
ss(g12
g46
g14
tp172
(dp173
g17
I01
sg18
(lp174
Varmmp
p175
aVarmmp-lpae
p176
ass(Vbuild
p177
Vm68k
p178
tp179
(dp180
Vsigned-modules
p181
I00
sVimage-file
p182
Vvmlinux.gz
p183
ss(Vimage
p184
g52
tp185
(dp186
Vbootloaders
p187
(lp188
Vgrub-pc
p189
aVgrub-efi-amd64
p190
aVextlinux
p191
asVinstall-stem
p192
Vvmlinuz
p193
sVbreaks
p194
Vxserver-xorg-input-vmmouse (<< 1:13.0.99)
p195
ss(g12
g123
g14
tp196
(dp197
g17
I01
sg18
(lp198
V4kc-malta
p199
aV5kc-malta
p200
aVocteon
p201
ass(Vimage
p202
g60
NVarm64
p203
tp204
(dp205
s(Vdescription
p206
g116
NVpowerpc
p207
tp208
(dp209
Vhardware
p210
Vuniprocessor 32-bit PowerPC
p211
ss(Vbase
p212
g68
tp213
(dp214
Vkernel-arch
p215
Vmips
p216
sg104
(lp217
g14
ass(Vdescription
p218
g5
NV686
p219
tp220
(dp221
Vhardware
p222
Volder PCs
p223
sVhardware-long
p224
VPCs with one or more processors not supporting PAE
p225
ss(Vdescription
p226
g90
NV5kc-malta
p227
tp228
(dp229
Vhardware
p230
VMIPS Malta
p231
sVhardware-long
p232
VMIPS Malta boards
p233
ss(g12
Valpha
p234
g14
tp235
(dp236
g17
I01
sg18
(lp237
Valpha-generic
p238
aValpha-smp
p239
ass(Vbase
p240
Vs390
p241
tp242
(dp243
Vkernel-arch
p244
Vs390
p245
sVfeaturesets
p246
(lp247
ss(Vxen
p248
g52
g53
Vamd64
p249
tp250
(dp251
Vflavours
p252
(lp253
Vamd64
p254
ass(Vbuild
p255
g144
NVs390x
p256
tp257
(dp258
Vdebug-info
p259
I01
ss(Vbase
p260
g178
tp261
(dp262
Vkernel-arch
p263
Vm68k
p264
sVcflags
p265
V-ffreestanding
p266
sg104
(lp267
g14
ass(Vbase
p268
g5
tp269
(dp270
Vkernel-arch
p271
Vx86
p272
sVfeaturesets
p273
(lp274
Vnone
p275
aVrt
p276
ass(Vdescription
p277
g68
NVocteon
p278
tp279
(dp280
Vhardware
p281
VOcteon
p282
sVhardware-long
p283
VCavium Networks Octeon
p284
ss(g12
g31
g14
tp285
(dp286
g17
I01
sg18
(lp287
Vpowerpcspe
p288
ass(Vbase
p289
Vmipsn32el
p290
tp291
(dp292
Vkernel-arch
p293
Vmips
p294
sVfeaturesets
p295
(lp296
ss(Vimage
p297
tp298
(dp299
Vinitramfs-generators
p300
(lp301
Vinitramfs-tools
p302
aVinitramfs-fallback
p303
ass(Vbase
p304
g22
tp305
(dp306
Vkernel-arch
p307
Vparisc
p308
sg104
(lp309
g14
ass(Vbuild
p310
Vppc64
p311
tp312
(dp313
Vvdso
p314
I01
sVsigned-modules
p315
I00
sVimage-file
p316
Vvmlinux
p317
ss(Vrelations
p318
g46
tp319
(dp320
Vheaders%gcc-5
p321
Vlinux-compiler-gcc-5-arm
p322
ss(Vbase
p323
g46
tp324
(dp325
Vkernel-arch
p326
Varm
p327
sg104
(lp328
g14
ass(Vbase
p329
Vsparc
p330
tp331
(dp332
Vkernel-arch
p333
Vsparc
p334
sVfeaturesets
p335
(lp336
ss(Vbuild
p337
g5
NV686-pae
p338
tp339
(dp340
Vdebug-info
p341
I01
ss(Vbuild
p342
tp343
(dp344
Vsigned-modules
p345
I01
sVdebug-info
p346
I01
ss(Vimage
p347
g116
NVpowerpc64
p348
tp349
(dp350
Vconfigs
p351
(lp352
Vkernelarch-powerpc/config-arch-64
p353
aVkernelarch-powerpc/config-arch-64-be
p354
ass(Vbuild
p355
g60
tp356
(dp357
Vvdso
p358
I01
sVimage-file
p359
Varch/arm64/boot/Image
p360
sVdebug-info
p361
I01
ss(Vdescription
p362
g234
NValpha-smp
p363
tp364
(dp365
Vhardware
p366
VAlpha SMP
p367
sVhardware-long
p368
VDEC Alpha SMP systems with extended kernel start address (Wildfire, Titan, Marvel)
p369
ss(Vimage
p370
g107
tp371
(dp372
Vinstall-stem
p373
Vvmlinuz
p374
ss(Vdescription
p375
g178
NVm68k
p376
tp377
(dp378
Vhardware
p379
VMotorola MC68020+ family
p380
ss(Vdescription
p381
g52
g53
Vamd64
p382
tp383
(dp384
Vparts
p385
(lp386
Vxen
p387
ass(Vimage
p388
g178
tp389
(dp390
Vsuggests
p391
Vvmelilo, fdutils
p392
sVinstall-stem
p393
Vvmlinuz
p394
ss(Vbase
p395
NVrt
p396
tp397
(dp398
Venabled
p399
I01
ss(Vbuild
p400
g52
tp401
(dp402
Vvdso
p403
I01
sVimage-file
p404
Varch/x86/boot/bzImage
p405
sVdebug-info
p406
I01
ss(Vdescription
p407
g52
NVamd64
p408
tp409
(dp410
Vhardware
p411
V64-bit PCs
p412
sVhardware-long
p413
VPCs with AMD64, Intel 64 or VIA Nano processors
p414
ss(Vbase
p415
g144
tp416
(dp417
Vkernel-arch
p418
Vs390
p419
sg104
(lp420
g14
ass(Vabi
p421
NVrt
p422
tp423
(dp424
Vignore-changes
p425
(lp426
V*
p427
ass(Vimage
p428
g90
NVocteon
p429
tp430
(dp431
Vconfigs
p432
(lp433
Vkernelarch-mips/config.octeon
p434
ass(Vbase
p435
g22
NVparisc64-smp
p436
tp437
(dp438
Voverride-host-type
p439
Vhppa64-linux-gnu
p440
sVcflags
p441
V-fno-cse-follow-jumps
p442
ss(Vdescription
p443
g123
NV5kc-malta
p444
tp445
(dp446
Vhardware
p447
VMIPS Malta (64-bit)
p448
sVhardware-long
p449
VMIPS Malta boards (64-bit)
p450
ss(Vbase
p451
Vor1k
p452
tp453
(dp454
Vkernel-arch
p455
Vopenrisc
p456
sVfeaturesets
p457
(lp458
ss(Vbase
p459
Vtilegx
p460
tp461
(dp462
Vkernel-arch
p463
Vtile
p464
sVfeaturesets
p465
(lp466
ss(Vdescription
p467
g68
NV5kc-malta
p468
tp469
(dp470
Vhardware
p471
VMIPS Malta (64-bit)
p472
sVhardware-long
p473
VMIPS Malta boards (64-bit)
p474
ss(Vimage
p475
g68
NV5kc-malta
p476
tp477
(dp478
Vconfigs
p479
(lp480
Vkernelarch-mips/config.malta
p481
aVkernelarch-mips/config.mips64r2
p482
ass(Vimage
p483
g116
NVpowerpc-smp
p484
tp485
(dp486
Vconfigs
p487
(lp488
Vpowerpc/config.powerpc
p489
aVpowerpc/config.powerpc-smp
p490
ass(Vimage
p491
g144
tp492
(dp493
Vbootloaders
p494
(lp495
Vs390-tools
p496
asVinstall-stem
p497
Vvmlinuz
p498
ss(Vrelations
p499
tp500
(dp501
Vinitramfs-tools
p502
Vinitramfs-tools (>= 0.110~)
p503
sVgcc-5
p504
Vgcc-5 <!stage1 !cross>, gcc-5-@gnu-type-package@:native <!stage1 cross>
p505
sVinitramfs-fallback
p506
Vlinux-initramfs-tool
p507
ss(Vimage
p508
g39
tp509
(dp510
Vsuggests
p511
Vsilo, fdutils
p512
sVinstall-stem
p513
Vvmlinuz
p514
sVconfigs
p515
(lp516
ss(Vrelations
p517
g52
tp518
(dp519
Vheaders%gcc-5
p520
Vlinux-compiler-gcc-5-x86
p521
ss(g12
g311
g14
tp522
(dp523
g17
I01
sg18
(lp524
Vpowerpc64
p525
ass(Vdescription
p526
g311
NVpowerpc64
p527
tp528
(dp529
Vhardware
p530
V64-bit PowerPC
p531
ss(Vbase
p532
g39
tp533
(dp534
Vkernel-arch
p535
Vsparc
p536
sg104
(lp537
g14
ass(Vimage
p538
g107
NVsh7785lcr
p539
tp540
(dp541
Vrecommends
p542
Vu-boot-tools
p543
sVcheck-size
p544
L4194304L
ss(Vbuild
p545
g116
tp546
(dp547
Vvdso
p548
I01
sVimage-file
p549
Vvmlinux
p550
ss(Vimage
p551
g99
NVmarvell
p552
tp553
(dp554
Vrecommends
p555
Vu-boot-tools
p556
sVbreaks
p557
Vflash-kernel (<< 3.57~)
p558
sVcheck-size
p559
L2097080L
sVcheck-size-with-dtb
p560
I01
ss(Vimage
p561
g311
tp562
(dp563
Vsuggests
p564
Vmkvmlinuz
p565
sVinstall-stem
p566
Vvmlinux
p567
sVconfigs
p568
(lp569
ss(Vdescription
p570
g5
tp571
(dp572
Vpart-long-pae
p573
VThis kernel requires PAE (Physical Address Extension).\u000aThis feature is supported by the Intel Pentium Pro/II/III/4/4M/D, Xeon,\u000aCore and Atom; AMD Geode NX, Athlon (K7), Duron, Opteron, Sempron,\u000aTurion or Phenom; Transmeta Efficeon; VIA C7; and some other processors.
p574
ss(Vabi
p575
tp576
(dp577
Vignore-changes
p578
(lp579
Vmodule:arch/x86/kvm/*
p580
aVmodule:drivers/nvdimm/libnvdimm
p581
asVabiname
p582
V2
p583
ss(Vbuild
p584
g123
tp585
(dp586
Vsigned-modules
p587
I00
sVimage-file
p588
Vvmlinux
p589
ss(Vbuild
p590
g144
tp591
(dp592
Vvdso
p593
I01
sVimage-file
p594
Varch/s390/boot/image
p595
ss(Vimage
p596
g60
tp597
(dp598
Vinstall-stem
p599
Vvmlinuz
p600
ss(Vimage
p601
g13
tp602
(dp603
Vsuggests
p604
Vmkvmlinuz
p605
sVinstall-stem
p606
Vvmlinux
p607
sVconfigs
p608
(lp609
ss(Vdescription
p610
g5
NV686-pae
p611
tp612
(dp613
Vparts
p614
(lp615
Vpae
p616
asVhardware
p617
Vmodern PCs
p618
sVhardware-long
p619
VPCs with one or more processors supporting PAE
p620
ss(Vimage
p621
Vmips64
p622
NVocteon
p623
tp624
(dp625
Vconfigs
p626
(lp627
Vkernelarch-mips/config.octeon
p628
ass(Vbase
p629
g234
tp630
(dp631
Vkernel-arch
p632
Valpha
p633
sg104
(lp634
g14
ass(g12
g99
g14
tp635
(dp636
g17
I01
sg18
(lp637
Vmarvell
p638
aVversatile
p639
ass(Vbase
p640
g5
Vnone
p641
tp642
(dp643
Vflavours
p644
(lp645
V686
p646
aV686-pae
p647
ass(Vrelations
p648
g5
tp649
(dp650
Vheaders%gcc-5
p651
Vlinux-compiler-gcc-5-x86
p652
ss(g12
g178
g14
tp653
(dp654
g17
I01
sg18
(lp655
Vm68k
p656
ass(g12
g90
g14
tp657
(dp658
g17
I01
sg18
(lp659
V5kc-malta
p660
aVloongson-3
p661
aVocteon
p662
ass(Vdescription
p663
g622
NV5kc-malta
p664
tp665
(dp666
Vhardware
p667
VMIPS Malta
p668
sVhardware-long
p669
VMIPS Malta boards
p670
ss(Vimage
p671
g123
tp672
(dp673
Vinstall-stem
p674
Vvmlinux
p675
ss(Vimage
p676
g22
tp677
(dp678
Vsuggests
p679
Vpalo
p680
sVinstall-stem
p681
Vvmlinux
p682
ss(Vimage
p683
g90
NVloongson-3
p684
tp685
(dp686
Vconfigs
p687
(lp688
Vkernelarch-mips/config.loongson-3
p689
ass(Vbase
p690
g52
tp691
(dp692
Vkernel-arch
p693
Vx86
p694
sVfeaturesets
p695
(lp696
Vnone
p697
aVrt
p698
ass(Vbuild
p699
g39
tp700
(dp701
Vsigned-modules
p702
I00
sVimage-file
p703
Varch/sparc/boot/zImage
p704
ss(Vrelations
p705
g22
tp706
(dp707
Vgcc-5
p708
Vgcc-5 <!stage1 !cross>, binutils-hppa64-linux-gnu <!stage1 !cross>, gcc-5-hppa64-linux-gnu <!stage1 !cross>, gcc-5-hppa-linux-gnu:native <!stage1 cross>, binutils-hppa64-linux-gnu:native <!stage1 cross>, gcc-5-hppa64-linux-gnu:native <!stage1 cross>
p709
ss(Vimage
p710
g99
tp711
(dp712
Vinstall-stem
p713
Vvmlinuz
p714
ss(Vimage
p715
g39
NVsparc64-smp
p716
tp717
(dp718
Vconfigs
p719
(lp720
Vkernelarch-sparc/config-smp
p721
ass(Vbuild
p722
g5
tp723
(dp724
Vvdso
p725
I01
sVimage-file
p726
Varch/x86/boot/bzImage
p727
ss(Vimage
p728
g90
tp729
(dp730
Vinstall-stem
p731
Vvmlinux
p732
ss(Vrelations
p733
g99
tp734
(dp735
Vheaders%gcc-5
p736
Vlinux-compiler-gcc-5-arm
p737
ss(Vdescription
p738
g234
NValpha-generic
p739
tp740
(dp741
Vhardware
p742
VAlpha
p743
sVhardware-long
p744
VDEC Alpha systems with extended kernel start address (Wildfire, Titan, Marvel)
p745
ss(Vdescription
p746
g22
NVparisc
p747
tp748
(dp749
Vhardware
p750
V32-bit PA-RISC
p751
sVhardware-long
p752
VHP PA-RISC 32-bit systems with max 4 GB RAM
p753
ss(Vversion
p754
tp755
(dp756
Vupstream
p757
V4.8
p758
sVsource
p759
V4.8.15-2
p760
sVabiname
p761
V4.8.0-2
p762
sVabiname_base
p763
V4.8.0
p764
ss(Vrelations
p765
g144
tp766
(dp767
Vheaders%gcc-5
p768
Vlinux-compiler-gcc-5-s390
p769
ss(Vbase
p770
g52
Vrt
p771
tp772
(dp773
Vflavours
p774
(lp775
Vamd64
p776
ass(Vdescription
p777
g99
NVversatile
p778
tp779
(dp780
Vhardware
p781
VVersatile
p782
sVhardware-long
p783
VVersatile systems (PB, AB, Qemu)
p784
ss(Vbuild
p785
g68
tp786
(dp787
Vsigned-modules
p788
I00
sVimage-file
p789
Vvmlinux
p790
ss(Vdescription
p791
g46
NVarmmp
p792
tp793
(dp794
Vhardware
p795
VARMv7 multiplatform compatible SoCs
p796
sVhardware-long
p797
VARMv7 multiplatform kernel. See\u000ahttps://wiki.debian.org/DebianKernel/ARMMP for details of supported\u000aplatforms
p798
ss(Vbase
p799
g116
tp800
(dp801
Vkernel-arch
p802
Vpowerpc
p803
sg104
(lp804
g14
ass(Vbuild
p805
g99
tp806
(dp807
Vsigned-modules
p808
I00
sVimage-file
p809
Varch/arm/boot/zImage
p810
ss(Vdescription
p811
g90
NVocteon
p812
tp813
(dp814
Vhardware
p815
VOcteon
p816
sVhardware-long
p817
VCavium Networks Octeon
p818
ss(g12
g22
g14
tp819
(dp820
g17
I01
sg18
(lp821
Vparisc
p822
aVparisc64-smp
p823
ass(Vdescription
p824
g99
NVmarvell
p825
tp826
(dp827
Vhardware
p828
VMarvell Kirkwood/Orion
p829
sVhardware-long
p830
VMarvell Kirkwood based systems (SheevaPlug, QNAP TS-119/TS-219, etc)\u000aand Orion 5181, 5182 and 5281 based systems (QNAP TS-109/TS-209, etc)
p831
ss(Vbase
p832
tp833
(dp834
Vcompiler
p835
Vgcc-5
p836
sVarches
p837
(lp838
Valpha
p839
aVamd64
p840
aVarm64
p841
aVarmel
p842
aVarmhf
p843
aVhppa
p844
aVi386
p845
aVm68k
p846
aVmips
p847
aVmipsel
p848
aVmipsn32
p849
aVmipsn32el
p850
aVmips64
p851
aVmips64el
p852
aVor1k
p853
aVpowerpc
p854
aVpowerpcspe
p855
aVppc64
p856
aVppc64el
p857
aVs390
p858
aVs390x
p859
aVsh4
p860
aVsparc
p861
aVsparc64
p862
aVtilegx
p863
aVx32
p864
asVfeaturesets
p865
(lp866
Vnone
p867
aVrt
p868
ass(Vbuild
p869
g622
tp870
(dp871
Vsigned-modules
p872
I00
sVimage-file
p873
Vvmlinux
p874
ss(Vdescription
p875
g144
NVs390x
p876
tp877
(dp878
Vhardware
p879
VIBM zSeries
p880
ss(Vimage
p881
g68
NV4kc-malta
p882
tp883
(dp884
Vconfigs
p885
(lp886
Vkernelarch-mips/config.malta
p887
aVkernelarch-mips/config.mips32r2
p888
ass(Vbuild
p889
g234
tp890
(dp891
Vsigned-modules
p892
I00
sVimage-file
p893
Varch/alpha/boot/vmlinux.gz
p894
ss(Vbase
p895
g31
tp896
(dp897
Vkernel-arch
p898
Vpowerpc
p899
sg104
(lp900
g14
ass(Vbuild
p901
g31
tp902
(dp903
Vvdso
p904
I01
sVsigned-modules
p905
I00
sVimage-file
p906
Vvmlinux
p907
ss(Vdescription
p908
g107
NVsh7785lcr
p909
tp910
(dp911
Vhardware
p912
Vsh7785lcr
p913
sVhardware-long
p914
VRenesas SH7785 reference board
p915
ss(Vbuild
p916
g22
tp917
(dp918
Vsigned-modules
p919
I00
sVimage-file
p920
Vvmlinux
p921
ss(Vimage
p922
g68
NVocteon
p923
tp924
(dp925
Vconfigs
p926
(lp927
Vkernelarch-mips/config.octeon
p928
ass(Vimage
p929
g90
NV5kc-malta
p930
tp931
(dp932
Vconfigs
p933
(lp934
Vkernelarch-mips/config.malta
p935
aVkernelarch-mips/config.mips64r2
p936
ass(Vimage
p937
g622
tp938
(dp939
Vinstall-stem
p940
Vvmlinux
p941
ss(Vimage
p942
g5
tp943
(dp944
Vbootloaders
p945
(lp946
Vgrub-pc
p947
aVextlinux
p948
asVinstall-stem
p949
Vvmlinuz
p950
sVbreaks
p951
Vxserver-xorg-input-vmmouse (<< 1:13.0.99)
p952
ss(Vbuild
p953
g90
tp954
(dp955
Vsigned-modules
p956
I00
sVimage-file
p957
Vvmlinux
p958
ss(Vimage
p959
g123
NVocteon
p960
tp961
(dp962
Vconfigs
p963
(lp964
Vkernelarch-mips/config.octeon
p965
ass(g12
g107
g14
tp966
(dp967
g17
I01
sg18
(lp968
Vsh7751r
p969
aVsh7785lcr
p970
ass(Vbuild
p971
g107
tp972
(dp973
Vsigned-modules
p974
I00
sVimage-file
p975
Varch/sh/boot/zImage
p976
ss(Vdescription
p977
g622
NVocteon
p978
tp979
(dp980
Vhardware
p981
VOcteon
p982
sVhardware-long
p983
VCavium Networks Octeon
p984
ss(Vimage
p985
g311
NVpowerpc64
p986
tp987
(dp988
Vconfigs
p989
(lp990
Vkernelarch-powerpc/config-arch-64
p991
aVkernelarch-powerpc/config-arch-64-be
p992
ass(g12
g622
g14
tp993
(dp994
g17
I01
sg18
(lp995
V5kc-malta
p996
aVocteon
p997
ass(Vdescription
p998
g116
NVpowerpc64
p999
tp1000
(dp1001
Vhardware
p1002
V64-bit PowerPC
p1003
ss(Vimage
p1004
g68
tp1005
(dp1006
Vinstall-stem
p1007
Vvmlinux
p1008
ss(Vbuild
p1009
g13
tp1010
(dp1011
Vvdso
p1012
I01
sVimage-file
p1013
Vvmlinux
p1014
ss(g12
g39
g14
tp1015
(dp1016
g17
I01
sg18
(lp1017
Vsparc64
p1018
aVsparc64-smp
p1019
ass(Vdescription
p1020
g13
NVpowerpc64le
p1021
tp1022
(dp1023
Vhardware
p1024
VLittle-endian 64-bit PowerPC
p1025
ss(Vbase
p1026
g13
tp1027
(dp1028
Vkernel-arch
p1029
Vpowerpc
p1030
sg104
(lp1031
g14
ass(Vbase
p1032
g90
tp1033
(dp1034
Vkernel-arch
p1035
Vmips
p1036
sg104
(lp1037
g14
ass(Vbase
p1038
g107
tp1039
(dp1040
Vkernel-arch
p1041
Vsh
p1042
sg104
(lp1043
g14
ass(Vbase
p1044
g622
tp1045
(dp1046
Vkernel-arch
p1047
Vmips
p1048
sg104
(lp1049
g14
ass(Vimage
p1050
g234
tp1051
(dp1052
Vsuggests
p1053
Vaboot, fdutils
p1054
sVinstall-stem
p1055
Vvmlinuz
p1056
ss(Vimage
p1057
g13
NVpowerpc64le
p1058
tp1059
(dp1060
Vconfigs
p1061
(lp1062
Vkernelarch-powerpc/config-arch-64
p1063
aVkernelarch-powerpc/config-arch-64-le
p1064
ass(Vbase
p1065
g123
tp1066
(dp1067
Vkernel-arch
p1068
Vmips
p1069
sg104
(lp1070
g14
ass(Vdescription
p1071
Ng422
tp1072
(dp1073
Vparts
p1074
(lp1075
Vrt
p1076
asVpart-long-rt
p1077
VThis kernel includes the PREEMPT_RT realtime patch set.
p1078
sVpart-short-rt
p1079
VPREEMPT_RT
p1080
ss(Vdescription
p1081
g46
NVarmmp-lpae
p1082
tp1083
(dp1084
Vhardware
p1085
VARMv7 multiplatform compatible SoCs supporting LPAE
p1086
sVhardware-long
p1087
VARMv7 multiplatform kernel supporting LPAE. See\u000ahttps://wiki.debian.org/DebianKernel/ARMMP for details of supported\u000aplatforms.
p1088
ss(Vdescription
p1089
g123
NVocteon
p1090
tp1091
(dp1092
Vhardware
p1093
VOcteon
p1094
sVhardware-long
p1095
VCavium Networks Octeon
p1096
ss(Vdescription
p1097
tp1098
(dp1099
Vpart-long-up
p1100
VThis kernel is not suitable for SMP (multi-processor,\u000amulti-core or hyper-threaded) systems.
p1101
sVpart-long-xen
p1102
VThis kernel also runs on a Xen hypervisor.\u000aIt supports both privileged (dom0) and unprivileged (domU) operation.
p1103
ss(Vimage
p1104
g622
NV5kc-malta
p1105
tp1106
(dp1107
Vconfigs
p1108
(lp1109
Vkernelarch-mips/config.malta
p1110
aVkernelarch-mips/config.mips64r2
p1111
ass(Vdescription
p1112
g123
NV4kc-malta
p1113
tp1114
(dp1115
Vhardware
p1116
VMIPS Malta
p1117
sVhardware-long
p1118
VMIPS Malta boards
p1119
ss(g12
g116
g14
tp1120
(dp1121
g17
I01
sg18
(lp1122
Vpowerpc
p1123
aVpowerpc-smp
p1124
aVpowerpc64
p1125
ass(Vdescription
p1126
g68
NV4kc-malta
p1127
tp1128
(dp1129
Vhardware
p1130
VMIPS Malta
p1131
sVhardware-long
p1132
VMIPS Malta boards
p1133
ss(Vimage
p1134
g123
NV4kc-malta
p1135
tp1136
(dp1137
Vconfigs
p1138
(lp1139
Vkernelarch-mips/config.malta
p1140
aVkernelarch-mips/config.mips32r2
p1141
ass(Vdescription
p1142
g5
g641
V686-pae
p1143
tp1144
(dp1145
Vparts
p1146
(lp1147
Vxen
p1148
ass(Vbase
p1149
Vx32
p1150
tp1151
(dp1152
Vkernel-arch
p1153
Vx86
p1154
sVfeaturesets
p1155
(lp1156
ss(Vdescription
p1157
g31
tp1158
(dp1159
Vhardware
p1160
V32-bit PowerPC with SPE (instead of AltiVec) with SMP support
p1161
ss(Vdescription
p1162
g39
NVsparc64
p1163
tp1164
(dp1165
Vhardware
p1166
Vuniprocessor 64-bit UltraSPARC
p1167
ss(Vbase
p1168
g311
tp1169
(dp1170
Vkernel-arch
p1171
Vpowerpc
p1172
sg104
(lp1173
g14
ass(Vimage
p1174
g116
tp1175
(dp1176
Vsuggests
p1177
Vmkvmlinuz
p1178
sVinstall-stem
p1179
Vvmlinux
p1180
sVconfigs
p1181
(lp1182
sstp1183
Rp1184
.