ccopy_reg
_reconstructor
p0
(cdebian_linux.config
ConfigCore
p1
c__builtin__
dict
p2
(dp3
(Vimage
p4
Vhppa
p5
tp6
(dp7
Vinstall-stem
p8
Vvmlinux
p9
sVsuggests
p10
Vpalo
p11
ss(Vbase
p12
Vmipsel
p13
Vnone
p14
tp15
(dp16
Vflavours
p17
(lp18
V4kc-malta
p19
aV5kc-malta
p20
aVloongson-3
p21
aVocteon
p22
asVimplicit-flavour
p23
I01
ss(Vdescription
p24
Vmips64
p25
NV5kc-malta
p26
tp27
(dp28
Vhardware-long
p29
VMIPS Malta boards
p30
sVhardware
p31
VMIPS Malta
p32
ss(Vdescription
p33
Vmips
p34
NV4kc-malta
p35
tp36
(dp37
Vhardware-long
p38
VMIPS Malta boards
p39
sVhardware
p40
VMIPS Malta
p41
ss(Vbase
p42
Vtilegx
p43
tp44
(dp45
Vkernel-arch
p46
Vtile
p47
sVfeaturesets
p48
(lp49
ss(Vimage
p50
g13
NV5kc-malta
p51
tp52
(dp53
Vconfigs
p54
(lp55
Vkernelarch-mips/config.malta
p56
aVkernelarch-mips/config.mips64r2
p57
ass(Vbase
p58
Vx32
p59
tp60
(dp61
Vkernel-arch
p62
Vx86
p63
sVfeaturesets
p64
(lp65
ss(g12
g25
g14
tp66
(dp67
g17
(lp68
V5kc-malta
p69
aVocteon
p70
asg23
I01
ss(Vimage
p71
Vpowerpc
p72
NVpowerpc64
p73
tp74
(dp75
Vconfigs
p76
(lp77
Vkernelarch-powerpc/config-arch-64
p78
aVkernelarch-powerpc/config-arch-64-be
p79
ass(Vdescription
p80
g72
NVpowerpc64
p81
tp82
(dp83
Vhardware
p84
V64-bit PowerPC
p85
ss(Vbase
p86
Vs390x
p87
tp88
(dp89
Vkernel-arch
p90
Vs390
p91
sVfeaturesets
p92
(lp93
g14
ass(Vxen
p94
Vamd64
p95
Vnone
p96
Vamd64
p97
tp98
(dp99
Vflavours
p100
(lp101
Vamd64
p102
ass(Vbuild
p103
g13
tp104
(dp105
Vimage-file
p106
Vvmlinux
p107
sVsigned-modules
p108
I00
ss(Vbase
p109
Vor1k
p110
tp111
(dp112
Vkernel-arch
p113
Vopenrisc
p114
sVfeaturesets
p115
(lp116
ss(Vimage
p117
Vmips64el
p118
NV5kc-malta
p119
tp120
(dp121
Vconfigs
p122
(lp123
Vkernelarch-mips/config.malta
p124
aVkernelarch-mips/config.mips64r2
p125
ass(Vimage
p126
g34
NVocteon
p127
tp128
(dp129
Vconfigs
p130
(lp131
Vkernelarch-mips/config.octeon
p132
ass(Vdescription
p133
Vi386
p134
NV686
p135
tp136
(dp137
Vhardware-long
p138
VPCs with one or more processors not supporting PAE
p139
sVhardware
p140
Volder PCs
p141
ss(Vdescription
p142
g34
NVocteon
p143
tp144
(dp145
Vhardware-long
p146
VCavium Networks Octeon
p147
sVhardware
p148
VOcteon
p149
ss(Vrelations
p150
g5
tp151
(dp152
Vgcc-5
p153
Vgcc-5 <!stage1 !cross>, binutils-hppa64-linux-gnu <!stage1 !cross>, gcc-5-hppa64-linux-gnu <!stage1 !cross>, gcc-5-hppa-linux-gnu:native <!stage1 cross>, binutils-hppa64-linux-gnu:native <!stage1 cross>, gcc-5-hppa64-linux-gnu:native <!stage1 cross>
p154
ss(Vimage
p155
Vppc64el
p156
NVpowerpc64le
p157
tp158
(dp159
Vconfigs
p160
(lp161
Vkernelarch-powerpc/config-arch-64
p162
aVkernelarch-powerpc/config-arch-64-le
p163
ass(Vbuild
p164
g95
tp165
(dp166
Vvdso
p167
I01
sVimage-file
p168
Varch/x86/boot/bzImage
p169
sVdebug-info
p170
I01
ss(g12
Varmel
p171
g14
tp172
(dp173
g17
(lp174
Vmarvell
p175
aVversatile
p176
asg23
I01
ss(Vbase
p177
g134
tp178
(dp179
Vkernel-arch
p180
Vx86
p181
sVfeaturesets
p182
(lp183
Vnone
p184
aVrt
p185
ass(Vbase
p186
Vs390
p187
tp188
(dp189
Vkernel-arch
p190
Vs390
p191
sVfeaturesets
p192
(lp193
ss(Vbase
p194
NVrt
p195
tp196
(dp197
Venabled
p198
I01
ss(Vimage
p199
Vsparc64
p200
NVsparc64-smp
p201
tp202
(dp203
Vconfigs
p204
(lp205
Vkernelarch-sparc/config-smp
p206
ass(Vdescription
p207
g95
NVamd64
p208
tp209
(dp210
Vhardware-long
p211
VPCs with AMD64, Intel 64 or VIA Nano processors
p212
sVhardware
p213
V64-bit PCs
p214
ss(Vbuild
p215
g118
tp216
(dp217
Vimage-file
p218
Vvmlinux
p219
sVsigned-modules
p220
I00
ss(Vdescription
p221
g134
NV686-pae
p222
tp223
(dp224
Vparts
p225
(lp226
Vpae
p227
asVhardware-long
p228
VPCs with one or more processors supporting PAE
p229
sVhardware
p230
Vmodern PCs
p231
ss(Vdescription
p232
g34
NV5kc-malta
p233
tp234
(dp235
Vhardware-long
p236
VMIPS Malta boards (64-bit)
p237
sVhardware
p238
VMIPS Malta (64-bit)
p239
ss(g12
g34
g14
tp240
(dp241
g17
(lp242
V4kc-malta
p243
aV5kc-malta
p244
aVocteon
p245
asg23
I01
ss(Vbase
p246
Vsh4
p247
tp248
(dp249
Vkernel-arch
p250
Vsh
p251
sg92
(lp252
g14
ass(g12
g200
g14
tp253
(dp254
g17
(lp255
Vsparc64
p256
aVsparc64-smp
p257
asg23
I01
ss(Vbuild
p258
Vpowerpcspe
p259
tp260
(dp261
Vvdso
p262
I01
sVimage-file
p263
Vvmlinux
p264
sVsigned-modules
p265
I00
ss(g12
g247
g14
tp266
(dp267
g17
(lp268
Vsh7751r
p269
aVsh7785lcr
p270
asg23
I01
ss(Vrelations
p271
g171
tp272
(dp273
Vheaders%gcc-5
p274
Vlinux-compiler-gcc-5-arm
p275
ss(Vimage
p276
g25
NVocteon
p277
tp278
(dp279
Vconfigs
p280
(lp281
Vkernelarch-mips/config.octeon
p282
ass(Vbuild
p283
g5
tp284
(dp285
Vimage-file
p286
Vvmlinux
p287
sVsigned-modules
p288
I00
ss(Vbase
p289
tp290
(dp291
Varches
p292
(lp293
Valpha
p294
aVamd64
p295
aVarm64
p296
aVarmel
p297
aVarmhf
p298
aVhppa
p299
aVi386
p300
aVm68k
p301
aVmips
p302
aVmipsel
p303
aVmipsn32
p304
aVmipsn32el
p305
aVmips64
p306
aVmips64el
p307
aVor1k
p308
aVpowerpc
p309
aVpowerpcspe
p310
aVppc64
p311
aVppc64el
p312
aVs390
p313
aVs390x
p314
aVsh4
p315
aVsparc
p316
aVsparc64
p317
aVtilegx
p318
aVx32
p319
asVfeaturesets
p320
(lp321
Vnone
p322
aVrt
p323
asVcompiler
p324
Vgcc-5
p325
ss(g12
g72
g14
tp326
(dp327
g17
(lp328
Vpowerpc
p329
aVpowerpc-smp
p330
aVpowerpc64
p331
asg23
I01
ss(Vdescription
p332
NVrt
p333
tp334
(dp335
Vpart-short-rt
p336
VPREEMPT_RT
p337
sVparts
p338
(lp339
Vrt
p340
asVpart-long-rt
p341
VThis kernel includes the PREEMPT_RT realtime patch set.
p342
ss(Vimage
p343
g13
NVocteon
p344
tp345
(dp346
Vconfigs
p347
(lp348
Vkernelarch-mips/config.octeon
p349
ass(Vdescription
p350
g134
Vnone
p351
V686-pae
p352
tp353
(dp354
Vparts
p355
(lp356
Vxen
p357
ass(Vbase
p358
g200
tp359
(dp360
Vkernel-arch
p361
Vsparc
p362
sg92
(lp363
g14
ass(Vbuild
p364
g34
tp365
(dp366
Vimage-file
p367
Vvmlinux
p368
sVsigned-modules
p369
I00
ss(Vbase
p370
g13
tp371
(dp372
Vkernel-arch
p373
Vmips
p374
sg92
(lp375
g14
ass(Vbase
p376
Valpha
p377
tp378
(dp379
Vkernel-arch
p380
Valpha
p381
sg92
(lp382
g14
ass(Vdescription
p383
g13
NV4kc-malta
p384
tp385
(dp386
Vhardware-long
p387
VMIPS Malta boards
p388
sVhardware
p389
VMIPS Malta
p390
ss(Vdescription
p391
g377
NValpha-generic
p392
tp393
(dp394
Vhardware-long
p395
VDEC Alpha systems with extended kernel start address (Wildfire, Titan, Marvel)
p396
sVhardware
p397
VAlpha
p398
ss(Vdescription
p399
g72
NVpowerpc
p400
tp401
(dp402
Vhardware
p403
Vuniprocessor 32-bit PowerPC
p404
ss(Vbase
p405
Vppc64
p406
tp407
(dp408
Vkernel-arch
p409
Vpowerpc
p410
sg92
(lp411
g14
ass(g12
Vm68k
p412
g14
tp413
(dp414
g17
(lp415
Vm68k
p416
asg23
I01
ss(g12
g156
g14
tp417
(dp418
g17
(lp419
Vpowerpc64le
p420
asg23
I01
ss(Vimage
p421
g200
tp422
(dp423
Vconfigs
p424
(lp425
sVinstall-stem
p426
Vvmlinuz
p427
sVsuggests
p428
Vsilo, fdutils
p429
ss(Vbuild
p430
tp431
(dp432
Vdebug-info
p433
I01
sVsigned-modules
p434
I01
ss(Vdescription
p435
g259
tp436
(dp437
Vhardware
p438
V32-bit PowerPC with SPE (instead of AltiVec) with SMP support
p439
ss(Vbase
p440
g134
g351
tp441
(dp442
Vflavours
p443
(lp444
V686
p445
aV686-pae
p446
ass(Vbuild
p447
g134
tp448
(dp449
Vvdso
p450
I01
sVimage-file
p451
Varch/x86/boot/bzImage
p452
ss(Vdescription
p453
g406
NVpowerpc64
p454
tp455
(dp456
Vhardware
p457
V64-bit PowerPC
p458
ss(Vimage
p459
g406
tp460
(dp461
Vconfigs
p462
(lp463
sVinstall-stem
p464
Vvmlinux
p465
sVsuggests
p466
Vmkvmlinuz
p467
ss(Vbase
p468
g156
tp469
(dp470
Vkernel-arch
p471
Vpowerpc
p472
sg92
(lp473
g14
ass(Vimage
p474
Varmhf
p475
tp476
(dp477
Vinstall-stem
p478
Vvmlinuz
p479
ss(Vdescription
p480
g118
NVloongson-3
p481
tp482
(dp483
Vhardware-long
p484
VLoongson 3A or 3B based systems (e.g. from Loongson or Lemote)
p485
sVhardware
p486
VLoongson 3A/3B
p487
ss(Vimage
p488
g25
NV5kc-malta
p489
tp490
(dp491
Vconfigs
p492
(lp493
Vkernelarch-mips/config.malta
p494
aVkernelarch-mips/config.mips64r2
p495
ass(g12
g118
g14
tp496
(dp497
g17
(lp498
V5kc-malta
p499
aVloongson-3
p500
aVocteon
p501
asg23
I01
ss(Vdescription
p502
g475
NVarmmp
p503
tp504
(dp505
Vhardware-long
p506
VARMv7 multiplatform kernel. See\u000ahttps://wiki.debian.org/DebianKernel/ARMMP for details of supported\u000aplatforms
p507
sVhardware
p508
VARMv7 multiplatform compatible SoCs
p509
ss(Vbuild
p510
g377
tp511
(dp512
Vimage-file
p513
Varch/alpha/boot/vmlinux.gz
p514
sVsigned-modules
p515
I00
ss(Vversion
p516
tp517
(dp518
Vsource
p519
V4.8.11-1
p520
sVabiname_base
p521
V4.8.0
p522
sVabiname
p523
V4.8.0-2
p524
sVupstream
p525
V4.8
p526
ss(Vimage
p527
g247
tp528
(dp529
Vinstall-stem
p530
Vvmlinuz
p531
ss(Vbuild
p532
g171
tp533
(dp534
Vimage-file
p535
Varch/arm/boot/zImage
p536
sVsigned-modules
p537
I00
ss(Vdescription
p538
tp539
(dp540
Vpart-long-xen
p541
VThis kernel also runs on a Xen hypervisor.\u000aIt supports both privileged (dom0) and unprivileged (domU) operation.
p542
sVpart-long-up
p543
VThis kernel is not suitable for SMP (multi-processor,\u000amulti-core or hyper-threaded) systems.
p544
ss(Vimage
p545
g25
tp546
(dp547
Vinstall-stem
p548
Vvmlinux
p549
ss(Vbase
p550
g25
tp551
(dp552
Vkernel-arch
p553
Vmips
p554
sg92
(lp555
g14
ass(Vbase
p556
g475
tp557
(dp558
Vkernel-arch
p559
Varm
p560
sg92
(lp561
g14
ass(Vdescription
p562
g171
NVversatile
p563
tp564
(dp565
Vhardware-long
p566
VVersatile systems (PB, AB, Qemu)
p567
sVhardware
p568
VVersatile
p569
ss(Vdescription
p570
g13
NV5kc-malta
p571
tp572
(dp573
Vhardware-long
p574
VMIPS Malta boards (64-bit)
p575
sVhardware
p576
VMIPS Malta (64-bit)
p577
ss(Vabi
p578
Ng333
tp579
(dp580
Vignore-changes
p581
(lp582
V*
p583
ass(Vdescription
p584
g13
NVocteon
p585
tp586
(dp587
Vhardware-long
p588
VCavium Networks Octeon
p589
sVhardware
p590
VOcteon
p591
ss(Vimage
p592
g406
NVpowerpc64
p593
tp594
(dp595
Vconfigs
p596
(lp597
Vkernelarch-powerpc/config-arch-64
p598
aVkernelarch-powerpc/config-arch-64-be
p599
ass(Vimage
p600
g377
tp601
(dp602
Vinstall-stem
p603
Vvmlinuz
p604
sVsuggests
p605
Vaboot, fdutils
p606
ss(Vdescription
p607
g412
NVm68k
p608
tp609
(dp610
Vhardware
p611
VMotorola MC68020+ family
p612
ss(Vbuild
p613
g25
tp614
(dp615
Vimage-file
p616
Vvmlinux
p617
sVsigned-modules
p618
I00
ss(Vdescription
p619
g377
NValpha-smp
p620
tp621
(dp622
Vhardware-long
p623
VDEC Alpha SMP systems with extended kernel start address (Wildfire, Titan, Marvel)
p624
sVhardware
p625
VAlpha SMP
p626
ss(Vdescription
p627
g475
NVarmmp-lpae
p628
tp629
(dp630
Vhardware-long
p631
VARMv7 multiplatform kernel supporting LPAE. See\u000ahttps://wiki.debian.org/DebianKernel/ARMMP for details of supported\u000aplatforms.
p632
sVhardware
p633
VARMv7 multiplatform compatible SoCs supporting LPAE
p634
ss(Vbase
p635
Varm64
p636
Vnone
p637
tp638
(dp639
Vflavours
p640
(lp641
Varm64
p642
ass(Vimage
p643
g200
NVsparc64
p644
tp645
(dp646
Vconfigs
p647
(lp648
Vkernelarch-sparc/config-up
p649
ass(Vbase
p650
Vsparc
p651
tp652
(dp653
Vkernel-arch
p654
Vsparc
p655
sVfeaturesets
p656
(lp657
ss(Vbuild
p658
g87
tp659
(dp660
Vvdso
p661
I01
sVimage-file
p662
Varch/s390/boot/image
p663
ss(Vbuild
p664
g636
tp665
(dp666
Vvdso
p667
I01
sVimage-file
p668
Varch/arm64/boot/Image
p669
sVdebug-info
p670
I01
ss(Vimage
p671
g134
tp672
(dp673
Vbootloaders
p674
(lp675
Vgrub-pc
p676
aVextlinux
p677
asVinstall-stem
p678
Vvmlinuz
p679
sVbreaks
p680
Vxserver-xorg-input-vmmouse (<< 1:13.0.99)
p681
ss(Vimage
p682
g72
tp683
(dp684
Vconfigs
p685
(lp686
sVinstall-stem
p687
Vvmlinux
p688
sVsuggests
p689
Vmkvmlinuz
p690
ss(Vimage
p691
g118
NVocteon
p692
tp693
(dp694
Vconfigs
p695
(lp696
Vkernelarch-mips/config.octeon
p697
ass(Vimage
p698
g118
NVloongson-3
p699
tp700
(dp701
Vconfigs
p702
(lp703
Vkernelarch-mips/config.loongson-3
p704
ass(Vbuild
p705
g134
NV686-pae
p706
tp707
(dp708
Vdebug-info
p709
I01
ss(Vimage
p710
g156
tp711
(dp712
Vconfigs
p713
(lp714
sVinstall-stem
p715
Vvmlinux
p716
sVsuggests
p717
Vmkvmlinuz
p718
ss(Vdescription
p719
g13
NVloongson-3
p720
tp721
(dp722
Vhardware-long
p723
VLoongson 3A or 3B based systems (e.g. from Loongson or Lemote)
p724
sVhardware
p725
VLoongson 3A/3B
p726
ss(Vbase
p727
g95
tp728
(dp729
Vkernel-arch
p730
Vx86
p731
sVfeaturesets
p732
(lp733
Vnone
p734
aVrt
p735
ass(Vdescription
p736
g72
NVpowerpc-smp
p737
tp738
(dp739
Vhardware
p740
Vmultiprocessor 32-bit PowerPC
p741
ss(Vbuild
p742
g72
tp743
(dp744
Vvdso
p745
I01
sVimage-file
p746
Vvmlinux
p747
ss(Vimage
p748
g636
NVarm64
p749
tp750
(dp751
s(Vdescription
p752
g247
NVsh7785lcr
p753
tp754
(dp755
Vhardware-long
p756
VRenesas SH7785 reference board
p757
sVhardware
p758
Vsh7785lcr
p759
ss(Vrelations
p760
g134
tp761
(dp762
Vheaders%gcc-5
p763
Vlinux-compiler-gcc-5-x86
p764
ss(Vimage
p765
tp766
(dp767
Vinitramfs-generators
p768
(lp769
Vinitramfs-tools
p770
aVinitramfs-fallback
p771
ass(Vimage
p772
g13
NVloongson-3
p773
tp774
(dp775
Vconfigs
p776
(lp777
Vkernelarch-mips/config.loongson-3
p778
ass(Vimage
p779
g247
NVsh7785lcr
p780
tp781
(dp782
Vcheck-size
p783
L4194304L
sVrecommends
p784
Vu-boot-tools
p785
ss(Vdescription
p786
g5
NVparisc
p787
tp788
(dp789
Vhardware-long
p790
VHP PA-RISC 32-bit systems with max 4 GB RAM
p791
sVhardware
p792
V32-bit PA-RISC
p793
ss(Vimage
p794
g34
NV4kc-malta
p795
tp796
(dp797
Vconfigs
p798
(lp799
Vkernelarch-mips/config.malta
p800
aVkernelarch-mips/config.mips32r2
p801
ass(Vdescription
p802
g118
NV5kc-malta
p803
tp804
(dp805
Vhardware-long
p806
VMIPS Malta boards
p807
sVhardware
p808
VMIPS Malta
p809
ss(Vbase
p810
g171
tp811
(dp812
Vkernel-arch
p813
Varm
p814
sg92
(lp815
g14
ass(g12
g5
g14
tp816
(dp817
g17
(lp818
Vparisc
p819
aVparisc64-smp
p820
asg23
I01
ss(Vbase
p821
g95
Vrt
p822
tp823
(dp824
Vflavours
p825
(lp826
Vamd64
p827
ass(Vdescription
p828
g200
NVsparc64-smp
p829
tp830
(dp831
Vhardware
p832
Vmultiprocessor 64-bit UltraSPARC
p833
ss(Vdescription
p834
g171
NVmarvell
p835
tp836
(dp837
Vhardware-long
p838
VMarvell Kirkwood based systems (SheevaPlug, QNAP TS-119/TS-219, etc)\u000aand Orion 5181, 5182 and 5281 based systems (QNAP TS-109/TS-209, etc)
p839
sVhardware
p840
VMarvell Kirkwood/Orion
p841
ss(Vbase
p842
g5
tp843
(dp844
Vkernel-arch
p845
Vparisc
p846
sg92
(lp847
g14
ass(Vimage
p848
g13
tp849
(dp850
Vinstall-stem
p851
Vvmlinux
p852
ss(Vbase
p853
g412
tp854
(dp855
Vcflags
p856
V-ffreestanding
p857
sg92
(lp858
g14
asVkernel-arch
p859
Vm68k
p860
ss(Vimage
p861
g13
NV4kc-malta
p862
tp863
(dp864
Vconfigs
p865
(lp866
Vkernelarch-mips/config.malta
p867
aVkernelarch-mips/config.mips32r2
p868
ass(Vrelations
p869
tp870
(dp871
Vinitramfs-fallback
p872
Vlinux-initramfs-tool
p873
sVinitramfs-tools
p874
Vinitramfs-tools (>= 0.110~)
p875
sVgcc-5
p876
Vgcc-5 <!stage1 !cross>, gcc-5-@gnu-type-package@:native <!stage1 cross>
p877
ss(Vdescription
p878
g636
NVarm64
p879
tp880
(dp881
Vhardware
p882
V64-bit ARMv8 machines
p883
ss(Vimage
p884
g171
tp885
(dp886
Vinstall-stem
p887
Vvmlinuz
p888
ss(Vbase
p889
g134
Vrt
p890
tp891
(dp892
Vflavours
p893
(lp894
V686-pae
p895
ass(Vimage
p896
g118
tp897
(dp898
Vinstall-stem
p899
Vvmlinux
p900
ss(Vimage
p901
g259
tp902
(dp903
Vinstall-stem
p904
Vvmlinux
p905
sVsuggests
p906
Vmkvmlinuz
p907
ss(Vbase
p908
g72
tp909
(dp910
Vkernel-arch
p911
Vpowerpc
p912
sg92
(lp913
g14
ass(Vbuild
p914
g412
tp915
(dp916
Vimage-file
p917
Vvmlinux.gz
p918
sVsigned-modules
p919
I00
ss(Vrelations
p920
g87
tp921
(dp922
Vheaders%gcc-5
p923
Vlinux-compiler-gcc-5-s390
p924
ss(Vbuild
p925
g247
tp926
(dp927
Vimage-file
p928
Varch/sh/boot/zImage
p929
sVsigned-modules
p930
I00
ss(Vbase
p931
g95
g96
tp932
(dp933
Vflavours
p934
(lp935
Vamd64
p936
ass(Vdescription
p937
g87
NVs390x
p938
tp939
(dp940
Vhardware
p941
VIBM zSeries
p942
ss(g12
g475
g14
tp943
(dp944
g17
(lp945
Varmmp
p946
aVarmmp-lpae
p947
asg23
I01
ss(Vimage
p948
g95
tp949
(dp950
Vbootloaders
p951
(lp952
Vgrub-pc
p953
aVgrub-efi-amd64
p954
aVextlinux
p955
asVinstall-stem
p956
Vvmlinuz
p957
sVbreaks
p958
Vxserver-xorg-input-vmmouse (<< 1:13.0.99)
p959
ss(Vbuild
p960
g200
tp961
(dp962
Vimage-file
p963
Varch/sparc/boot/zImage
p964
sVsigned-modules
p965
I00
ss(Vbuild
p966
g156
tp967
(dp968
Vvdso
p969
I01
sVimage-file
p970
Vvmlinux
p971
ss(Vbuild
p972
g406
tp973
(dp974
Vvdso
p975
I01
sVimage-file
p976
Vvmlinux
p977
sVsigned-modules
p978
I00
ss(Vdescription
p979
g247
NVsh7751r
p980
tp981
(dp982
Vhardware-long
p983
VRenesas SH7751R R2D plus board
p984
sVhardware
p985
Vsh7751r
p986
ss(g12
g377
g14
tp987
(dp988
g17
(lp989
Valpha-generic
p990
aValpha-smp
p991
asg23
I01
ss(Vimage
p992
g34
NV5kc-malta
p993
tp994
(dp995
Vconfigs
p996
(lp997
Vkernelarch-mips/config.malta
p998
aVkernelarch-mips/config.mips64r2
p999
ass(Vdescription
p1000
g156
NVpowerpc64le
p1001
tp1002
(dp1003
Vhardware
p1004
VLittle-endian 64-bit PowerPC
p1005
ss(Vdescription
p1006
g25
NVocteon
p1007
tp1008
(dp1009
Vhardware-long
p1010
VCavium Networks Octeon
p1011
sVhardware
p1012
VOcteon
p1013
ss(Vimage
p1014
g34
tp1015
(dp1016
Vinstall-stem
p1017
Vvmlinux
p1018
ss(Vabi
p1019
tp1020
(dp1021
Vabiname
p1022
V2
p1023
ss(Vimage
p1024
g636
tp1025
(dp1026
Vinstall-stem
p1027
Vvmlinuz
p1028
ss(Vimage
p1029
g87
tp1030
(dp1031
Vbootloaders
p1032
(lp1033
Vs390-tools
p1034
asVinstall-stem
p1035
Vvmlinuz
p1036
ss(Vbuild
p1037
g87
NVs390x
p1038
tp1039
(dp1040
Vdebug-info
p1041
I01
ss(Vimage
p1042
g412
tp1043
(dp1044
Vinstall-stem
p1045
Vvmlinuz
p1046
sVsuggests
p1047
Vvmelilo, fdutils
p1048
ss(Vdescription
p1049
g5
NVparisc64-smp
p1050
tp1051
(dp1052
Vhardware-long
p1053
VHP PA-RISC 64-bit SMP systems with support for more than 4 GB RAM
p1054
sVhardware
p1055
Vmultiprocessor 64-bit PA-RISC
p1056
ss(Vbase
p1057
g259
tp1058
(dp1059
Vkernel-arch
p1060
Vpowerpc
p1061
sg92
(lp1062
g14
ass(Vdescription
p1063
g200
NVsparc64
p1064
tp1065
(dp1066
Vhardware
p1067
Vuniprocessor 64-bit UltraSPARC
p1068
ss(Vdescription
p1069
g95
g96
Vamd64
p1070
tp1071
(dp1072
Vparts
p1073
(lp1074
Vxen
p1075
ass(Vrelations
p1076
g475
tp1077
(dp1078
Vheaders%gcc-5
p1079
Vlinux-compiler-gcc-5-arm
p1080
ss(Vrelations
p1081
g95
tp1082
(dp1083
Vheaders%gcc-5
p1084
Vlinux-compiler-gcc-5-x86
p1085
ss(Vimage
p1086
g171
NVmarvell
p1087
tp1088
(dp1089
Vcheck-size
p1090
L2097080L
sVcheck-size-with-dtb
p1091
I01
sVbreaks
p1092
Vflash-kernel (<< 3.57~)
p1093
sVrecommends
p1094
Vu-boot-tools
p1095
ss(Vbase
p1096
Vmipsn32
p1097
tp1098
(dp1099
Vkernel-arch
p1100
Vmips
p1101
sVfeaturesets
p1102
(lp1103
ss(g12
g259
g14
tp1104
(dp1105
g17
(lp1106
Vpowerpcspe
p1107
asg23
I01
ss(Vdescription
p1108
g134
tp1109
(dp1110
Vpart-long-pae
p1111
VThis kernel requires PAE (Physical Address Extension).\u000aThis feature is supported by the Intel Pentium Pro/II/III/4/4M/D, Xeon,\u000aCore and Atom; AMD Geode NX, Athlon (K7), Duron, Opteron, Sempron,\u000aTurion or Phenom; Transmeta Efficeon; VIA C7; and some other processors.
p1112
ss(Vdescription
p1113
g118
NVocteon
p1114
tp1115
(dp1116
Vhardware-long
p1117
VCavium Networks Octeon
p1118
sVhardware
p1119
VOcteon
p1120
ss(g12
g87
g14
tp1121
(dp1122
g17
(lp1123
Vs390x
p1124
asg23
I01
ss(Vbase
p1125
g118
tp1126
(dp1127
Vkernel-arch
p1128
Vmips
p1129
sg92
(lp1130
g14
ass(Vbase
p1131
Vmipsn32el
p1132
tp1133
(dp1134
Vkernel-arch
p1135
Vmips
p1136
sVfeaturesets
p1137
(lp1138
ss(Vbase
p1139
g34
tp1140
(dp1141
Vkernel-arch
p1142
Vmips
p1143
sg92
(lp1144
g14
ass(Vbase
p1145
g636
tp1146
(dp1147
Vkernel-arch
p1148
Varm64
p1149
sVfeaturesets
p1150
(lp1151
Vnone
p1152
ass(Vbuild
p1153
g475
tp1154
(dp1155
Vvdso
p1156
I01
sVimage-file
p1157
Varch/arm/boot/zImage
p1158
ss(g12
g406
g14
tp1159
(dp1160
g17
(lp1161
Vpowerpc64
p1162
asg23
I01
ss(Vbase
p1163
g5
NVparisc64-smp
p1164
tp1165
(dp1166
Vcflags
p1167
V-fno-cse-follow-jumps
p1168
sVoverride-host-type
p1169
Vhppa64-linux-gnu
p1170
ss(Vimage
p1171
g72
NVpowerpc-smp
p1172
tp1173
(dp1174
Vconfigs
p1175
(lp1176
Vpowerpc/config.powerpc
p1177
aVpowerpc/config.powerpc-smp
p1178
asstp1179
Rp1180
.