cdebian_linux.config
ConfigCore
p0
(tRp1
(Vabi
p2
tp3
(dp4
Vabiname
p5
V6
p6
sVignore-changes
p7
(lp8
V__cpuhp_*
p9
aVbpf_analyzer
p10
aVcxl_*
p11
aVinet_frag_*
p12
aVinet_frags_*
p13
aVmm_iommu_*
p14
aVmv_mbus_*
p15
aVregister_cxl_calls
p16
aVregister_key_type
p17
aVunregister_cxl_calls
p18
aVmodule:arch/x86/kvm/*
p19
aVmodule:drivers/crypto/ccp/*
p20
aVmodule:drivers/hv/*
p21
aVmodule:drivers/iio/common/hid-sensors/*
p22
aVmodule:drivers/iio/common/st_sensors/**
p23
aVmodule:drivers/net/wireless/**
p24
aVmodule:drivers/nvdimm/*
p25
aVmodule:drivers/power/supply/bq27xxx_battery
p26
aVmodule:drivers/s390/net/qeth
p27
aVmodule:drivers/s390/net/qeth*
p28
aVmodule:drivers/scsi/cxgbi/*
p29
aVmodule:drivers/scsi/libiscs*
p30
aVmodule:drivers/scsi/qla2xxx/qla2xxx
p31
aVmodule:drivers/scsi/ufs/*
p32
aVmodule:drivers/target/**
p33
aVmodule:drivers/usb/chipidea/**
p34
aVmodule:drivers/usb/gadget/**
p35
aVmodule:drivers/usb/host/**
p36
aVmodule:drivers/usb/musb/**
p37
aVmodule:fs/nfs/nfs
p38
aVmodule:net/ceph/libceph
p39
aVmodule:net/l2tp/**
p40
aVmodule:sound/firewire/snd-firewire-lib
p41
aVbtree_*
p42
aVvisitor*
p43
aVcan_rx_register
p44
aVip6_xmit
p45
aVmodule:net/dccp/dccp
p46
aVmodule:net/rds/rds
p47
aVdevfreq_*
p48
aVdevm_devfreq_*
p49
aVupdate_devfreq
p50
aVmodule:drivers/infiniband/**
p51
aVacpi_ec_add_query_handler
p52
aVacpi_ec_remove_query_handler
p53
aVfirst_ec
p54
aVdebugfs_create_automount
p55
ass(Vbase
p56
tp57
(dp58
Varches
p59
(lp60
Valpha
p61
aVamd64
p62
aVarm64
p63
aVarmel
p64
aVarmhf
p65
aVhppa
p66
aVi386
p67
aVm68k
p68
aVmips
p69
aVmipsel
p70
aVmipsn32
p71
aVmipsn32el
p72
aVmips64
p73
aVmips64el
p74
aVpowerpc
p75
aVpowerpcspe
p76
aVppc64
p77
aVppc64el
p78
aVs390
p79
aVs390x
p80
aVsh3
p81
aVsh4
p82
aVsparc
p83
aVsparc64
p84
aVtilegx
p85
aVx32
p86
asVcompiler
p87
Vgcc-6
p88
sVfeaturesets
p89
(lp90
Vnone
p91
aVrt
p92
ass(Vbuild
p93
tp94
(dp95
Vdebug-info
p96
I01
sVsigned-modules
p97
I00
ss(Vbase
p98
NVrt
p99
tp100
(dp101
Venabled
p102
I01
ss(Vdescription
p103
tp104
(dp105
Vpart-long-up
p106
VThis kernel is not suitable for SMP (multi-processor,\u000amulti-core or hyper-threaded) systems.
p107
sVpart-long-xen
p108
VThis kernel also runs on a Xen hypervisor.\u000aIt supports both privileged (dom0) and unprivileged (domU) operation.
p109
ss(Vimage
p110
tp111
(dp112
Vinitramfs-generators
p113
(lp114
Vinitramfs-tools
p115
aVinitramfs-fallback
p116
ass(Vrelations
p117
tp118
(dp119
Vgcc-6
p120
Vgcc-6 <!stage1 !cross>, gcc-6-@gnu-type-package@ <!stage1 cross>
p121
sVinitramfs-fallback
p122
Vlinux-initramfs-tool
p123
sVinitramfs-tools
p124
Vinitramfs-tools (>= 0.120+deb8u2)
p125
ss(Vbase
p126
Valpha
p127
tp128
(dp129
Vkernel-arch
p130
Valpha
p131
sVfeaturesets
p132
(lp133
Vnone
p134
ass(Vbuild
p135
g127
tp136
(dp137
Vimage-file
p138
Varch/alpha/boot/vmlinux.gz
p139
sVsigned-modules
p140
I00
ss(Vimage
p141
g127
tp142
(dp143
Vsuggests
p144
Vaboot, fdutils
p145
sVinstall-stem
p146
Vvmlinuz
p147
ss(Vdescription
p148
g127
NValpha-generic
p149
tp150
(dp151
Vhardware
p152
VAlpha
p153
sVhardware-long
p154
VDEC Alpha systems with extended kernel start address (Wildfire, Titan, Marvel)
p155
ss(Vdescription
p156
g127
NValpha-smp
p157
tp158
(dp159
Vhardware
p160
VAlpha SMP
p161
sVhardware-long
p162
VDEC Alpha SMP systems with extended kernel start address (Wildfire, Titan, Marvel)
p163
ss(Vbase
p164
g127
g134
tp165
(dp166
Vflavours
p167
(lp168
Valpha-generic
p169
aValpha-smp
p170
asVimplicit-flavour
p171
I01
ss(Vbase
p172
Vamd64
p173
tp174
(dp175
Vfeaturesets
p176
(lp177
Vnone
p178
aVrt
p179
asVkernel-arch
p180
Vx86
p181
ss(Vbuild
p182
g173
tp183
(dp184
Vdebug-info
p185
I01
sVimage-file
p186
Varch/x86/boot/bzImage
p187
sVvdso
p188
I01
ss(Vimage
p189
g173
tp190
(dp191
Vbootloaders
p192
(lp193
Vgrub-pc
p194
aVgrub-efi-amd64
p195
aVextlinux
p196
asVinstall-stem
p197
Vvmlinuz
p198
sVbreaks
p199
Vxserver-xorg-input-vmmouse (<< 1:13.0.99)
p200
ss(Vrelations
p201
g173
tp202
(dp203
Vgcc-6
p204
Vgcc-6 (>= 6.3.0-18+deb9u1~) <!stage1 !cross>, gcc-6-@gnu-type-package@ (>= 6.3.0-18+deb9u1~) <!stage1 cross>
p205
sVheaders%gcc-6
p206
Vlinux-compiler-gcc-6-x86 (>= 4.9.82-1+deb9u1~)
p207
ss(Vdescription
p208
g173
NVamd64
p209
tp210
(dp211
Vhardware
p212
V64-bit PCs
p213
sVhardware-long
p214
VPCs with AMD64, Intel 64 or VIA Nano processors
p215
ss(Vbase
p216
g173
Vnone
p217
tp218
(dp219
Vflavours
p220
(lp221
Vamd64
p222
ass(Vdescription
p223
g173
g217
Vamd64
p224
tp225
(dp226
Vparts
p227
(lp228
Vxen
p229
ass(Vbase
p230
g173
Vrt
p231
tp232
(dp233
Vflavours
p234
(lp235
Vamd64
p236
ass(Vbase
p237
Varm64
p238
tp239
(dp240
Vkernel-arch
p241
Varm64
p242
sVfeaturesets
p243
(lp244
Vnone
p245
ass(Vbuild
p246
g238
tp247
(dp248
Vdebug-info
p249
I01
sVimage-file
p250
Varch/arm64/boot/Image
p251
sVvdso
p252
I01
ss(Vimage
p253
g238
tp254
(dp255
Vinstall-stem
p256
Vvmlinuz
p257
sVbreaks
p258
Vlibmozjs185-1.0, libmozjs-24-0 (<< 24.2.0-5.1~)
p259
ss(Vdescription
p260
g238
NVarm64
p261
tp262
(dp263
Vhardware
p264
V64-bit ARMv8 machines
p265
ss(Vimage
p266
g238
NVarm64
p267
tp268
(dp269
s(Vbase
p270
g238
Vnone
p271
tp272
(dp273
Vflavours
p274
(lp275
Varm64
p276
ass(Vbase
p277
Varmel
p278
tp279
(dp280
Vkernel-arch
p281
Varm
p282
sg132
(lp283
g134
ass(Vbuild
p284
g278
tp285
(dp286
Vimage-file
p287
Varch/arm/boot/zImage
p288
sVsigned-modules
p289
I00
ss(Vimage
p290
g278
tp291
(dp292
Vinstall-stem
p293
Vvmlinuz
p294
ss(Vrelations
p295
g278
tp296
(dp297
Vheaders%gcc-6
p298
Vlinux-compiler-gcc-6-arm
p299
ss(Vdescription
p300
g278
NVmarvell
p301
tp302
(dp303
Vhardware
p304
VMarvell Kirkwood/Orion
p305
sVhardware-long
p306
VMarvell Kirkwood based systems (SheevaPlug, QNAP TS-119/TS-219, etc)\u000aand Orion 5181, 5182 and 5281 based systems (QNAP TS-109/TS-209, etc)
p307
ss(Vimage
p308
g278
NVmarvell
p309
tp310
(dp311
Vrecommends
p312
Vu-boot-tools
p313
sVcheck-size
p314
L2097080L
sVcheck-size-with-dtb
p315
I01
sVbreaks
p316
Vflash-kernel (<< 3.57~)
p317
ss(g164
g278
g134
tp318
(dp319
g167
(lp320
Vmarvell
p321
asg171
I01
ss(Vbase
p322
Varmhf
p323
tp324
(dp325
Vkernel-arch
p326
Varm
p327
sg132
(lp328
g134
ass(Vbuild
p329
g323
tp330
(dp331
Vimage-file
p332
Varch/arm/boot/zImage
p333
sVvdso
p334
I01
ss(Vimage
p335
g323
tp336
(dp337
Vinstall-stem
p338
Vvmlinuz
p339
ss(Vrelations
p340
g323
tp341
(dp342
Vheaders%gcc-6
p343
Vlinux-compiler-gcc-6-arm
p344
ss(Vdescription
p345
g323
NVarmmp
p346
tp347
(dp348
Vhardware
p349
VARMv7 multiplatform compatible SoCs
p350
sVhardware-long
p351
VARMv7 multiplatform kernel. See\u000ahttps://wiki.debian.org/DebianKernel/ARMMP for details of supported\u000aplatforms
p352
ss(Vdescription
p353
g323
NVarmmp-lpae
p354
tp355
(dp356
Vhardware
p357
VARMv7 multiplatform compatible SoCs supporting LPAE
p358
sVhardware-long
p359
VARMv7 multiplatform kernel supporting LPAE. See\u000ahttps://wiki.debian.org/DebianKernel/ARMMP for details of supported\u000aplatforms.
p360
ss(g164
g323
g134
tp361
(dp362
g167
(lp363
Varmmp
p364
aVarmmp-lpae
p365
asg171
I01
ss(Vbase
p366
Vhppa
p367
tp368
(dp369
Vkernel-arch
p370
Vparisc
p371
sg132
(lp372
g134
ass(Vbuild
p373
g367
tp374
(dp375
Vimage-file
p376
Vvmlinux
p377
sVsigned-modules
p378
I00
ss(Vimage
p379
g367
tp380
(dp381
Vsuggests
p382
Vpalo
p383
sVinstall-stem
p384
Vvmlinux
p385
ss(Vdescription
p386
g367
NVparisc
p387
tp388
(dp389
Vhardware
p390
V32-bit PA-RISC
p391
sVhardware-long
p392
VHP PA-RISC 32-bit systems with max 4 GB RAM
p393
ss(Vbase
p394
g367
NVparisc64-smp
p395
tp396
(dp397
Vcflags
p398
V-fno-cse-follow-jumps
p399
sVoverride-host-type
p400
Vhppa64-linux-gnu
p401
ss(Vdescription
p402
g367
NVparisc64-smp
p403
tp404
(dp405
Vhardware
p406
Vmultiprocessor 64-bit PA-RISC
p407
sVhardware-long
p408
VHP PA-RISC 64-bit SMP systems with support for more than 4 GB RAM
p409
ss(Vrelations
p410
g367
tp411
(dp412
Vgcc-6
p413
Vgcc-6 <!stage1 !cross>, binutils-hppa64-linux-gnu <!stage1 !cross>, gcc-6-hppa64-linux-gnu <!stage1 !cross>, gcc-6-hppa-linux-gnu <!stage1 cross>, binutils-hppa64-linux-gnu <!stage1 cross>, gcc-6-hppa64-linux-gnu <!stage1 cross>
p414
ss(g164
g367
g134
tp415
(dp416
g167
(lp417
Vparisc
p418
aVparisc64-smp
p419
asg171
I01
ss(Vbase
p420
Vi386
p421
tp422
(dp423
Vfeaturesets
p424
(lp425
Vnone
p426
aVrt
p427
asVkernel-arch
p428
Vx86
p429
ss(Vbuild
p430
g421
tp431
(dp432
Vimage-file
p433
Varch/x86/boot/bzImage
p434
sVvdso
p435
I01
ss(Vdescription
p436
g421
tp437
(dp438
Vpart-long-pae
p439
VThis kernel requires PAE (Physical Address Extension).\u000aThis feature is supported by the Intel Pentium Pro/II/III/4/4M/D, Xeon,\u000aCore and Atom; AMD Geode NX, Athlon (K7), Duron, Opteron, Sempron,\u000aTurion or Phenom; Transmeta Efficeon; VIA C7; and some other processors.
p440
ss(Vimage
p441
g421
tp442
(dp443
Vbootloaders
p444
(lp445
Vgrub-pc
p446
aVextlinux
p447
asVinstall-stem
p448
Vvmlinuz
p449
sVbreaks
p450
Vxserver-xorg-input-vmmouse (<< 1:13.0.99)
p451
ss(Vrelations
p452
g421
tp453
(dp454
Vgcc-6
p455
Vgcc-6 (>= 6.3.0-18+deb9u1~) <!stage1 !cross>, gcc-6-@gnu-type-package@ (>= 6.3.0-18+deb9u1~) <!stage1 cross>
p456
sVheaders%gcc-6
p457
Vlinux-compiler-gcc-6-x86 (>= 4.9.82-1+deb9u1~)
p458
ss(Vdescription
p459
g421
NV686
p460
tp461
(dp462
Vhardware
p463
Volder PCs
p464
sVhardware-long
p465
VPCs with one or more processors not supporting PAE
p466
ss(Vbuild
p467
g421
NV686-pae
p468
tp469
(dp470
Vdebug-info
p471
I01
ss(Vdescription
p472
g421
NV686-pae
p473
tp474
(dp475
Vhardware
p476
Vmodern PCs
p477
sVhardware-long
p478
VPCs with one or more processors supporting PAE
p479
sVparts
p480
(lp481
Vpae
p482
ass(Vbase
p483
g421
Vnone
p484
tp485
(dp486
Vflavours
p487
(lp488
V686
p489
aV686-pae
p490
ass(Vdescription
p491
g421
g484
V686-pae
p492
tp493
(dp494
Vparts
p495
(lp496
Vxen
p497
ass(Vbase
p498
g421
Vrt
p499
tp500
(dp501
Vflavours
p502
(lp503
V686-pae
p504
ass(Vbase
p505
Vm68k
p506
tp507
(dp508
Vcflags
p509
V-ffreestanding
p510
sVkernel-arch
p511
Vm68k
p512
sg132
(lp513
g134
ass(Vbuild
p514
g506
tp515
(dp516
Vimage-file
p517
Vvmlinux.gz
p518
sVsigned-modules
p519
I00
ss(Vimage
p520
g506
tp521
(dp522
Vsuggests
p523
Vvmelilo, fdutils
p524
sVinstall-stem
p525
Vvmlinuz
p526
ss(Vdescription
p527
g506
NVm68k
p528
tp529
(dp530
Vhardware
p531
VMotorola MC68020+ family
p532
ss(g164
g506
g134
tp533
(dp534
g167
(lp535
Vm68k
p536
asg171
I01
ss(Vbase
p537
Vmips
p538
tp539
(dp540
Vkernel-arch
p541
Vmips
p542
sg132
(lp543
g134
ass(Vbuild
p544
g538
tp545
(dp546
Vimage-file
p547
Vvmlinux
p548
sVsigned-modules
p549
I00
ss(Vimage
p550
g538
tp551
(dp552
Vinstall-stem
p553
Vvmlinux
p554
ss(Vdescription
p555
g538
NV4kc-malta
p556
tp557
(dp558
Vhardware
p559
VMIPS Malta
p560
sVhardware-long
p561
VMIPS Malta boards
p562
ss(Vimage
p563
g538
NV4kc-malta
p564
tp565
(dp566
Vconfigs
p567
(lp568
Vkernelarch-mips/config.malta
p569
aVkernelarch-mips/config.mips32r2
p570
ass(Vdescription
p571
g538
NV5kc-malta
p572
tp573
(dp574
Vhardware
p575
VMIPS Malta (64-bit)
p576
sVhardware-long
p577
VMIPS Malta boards (64-bit)
p578
ss(Vimage
p579
g538
NV5kc-malta
p580
tp581
(dp582
Vconfigs
p583
(lp584
Vkernelarch-mips/config.malta
p585
aVkernelarch-mips/config.mips64r2
p586
ass(Vdescription
p587
g538
NVocteon
p588
tp589
(dp590
Vhardware
p591
VOcteon
p592
sVhardware-long
p593
VCavium Networks Octeon
p594
ss(Vimage
p595
g538
NVocteon
p596
tp597
(dp598
Vconfigs
p599
(lp600
Vkernelarch-mips/config.octeon
p601
ass(g164
g538
g134
tp602
(dp603
g167
(lp604
V4kc-malta
p605
aV5kc-malta
p606
aVocteon
p607
asg171
I01
ss(Vbase
p608
Vmipsel
p609
tp610
(dp611
Vkernel-arch
p612
Vmips
p613
sg132
(lp614
g134
ass(Vbuild
p615
g609
tp616
(dp617
Vimage-file
p618
Vvmlinux
p619
sVsigned-modules
p620
I00
ss(Vimage
p621
g609
tp622
(dp623
Vinstall-stem
p624
Vvmlinux
p625
ss(Vdescription
p626
g609
NV4kc-malta
p627
tp628
(dp629
Vhardware
p630
VMIPS Malta
p631
sVhardware-long
p632
VMIPS Malta boards
p633
ss(Vimage
p634
g609
NV4kc-malta
p635
tp636
(dp637
Vconfigs
p638
(lp639
Vkernelarch-mips/config.malta
p640
aVkernelarch-mips/config.mips32r2
p641
ass(Vdescription
p642
g609
NV5kc-malta
p643
tp644
(dp645
Vhardware
p646
VMIPS Malta (64-bit)
p647
sVhardware-long
p648
VMIPS Malta boards (64-bit)
p649
ss(Vimage
p650
g609
NV5kc-malta
p651
tp652
(dp653
Vconfigs
p654
(lp655
Vkernelarch-mips/config.malta
p656
aVkernelarch-mips/config.mips64r2
p657
ass(Vdescription
p658
g609
NVloongson-3
p659
tp660
(dp661
Vhardware
p662
VLoongson 3A/3B
p663
sVhardware-long
p664
VLoongson 3A or 3B based systems (e.g. from Loongson or Lemote)
p665
ss(Vimage
p666
g609
NVloongson-3
p667
tp668
(dp669
Vconfigs
p670
(lp671
Vkernelarch-mips/config.loongson-3
p672
ass(Vdescription
p673
g609
NVocteon
p674
tp675
(dp676
Vhardware
p677
VOcteon
p678
sVhardware-long
p679
VCavium Networks Octeon
p680
ss(Vimage
p681
g609
NVocteon
p682
tp683
(dp684
Vconfigs
p685
(lp686
Vkernelarch-mips/config.octeon
p687
ass(g164
g609
g134
tp688
(dp689
g167
(lp690
V4kc-malta
p691
aV5kc-malta
p692
aVloongson-3
p693
aVocteon
p694
asg171
I01
ss(Vbase
p695
Vmipsn32
p696
tp697
(dp698
Vkernel-arch
p699
Vmips
p700
sVfeaturesets
p701
(lp702
ss(Vbase
p703
Vmipsn32el
p704
tp705
(dp706
Vkernel-arch
p707
Vmips
p708
sVfeaturesets
p709
(lp710
ss(Vbase
p711
Vmips64
p712
tp713
(dp714
Vkernel-arch
p715
Vmips
p716
sg132
(lp717
g134
ass(Vbuild
p718
g712
tp719
(dp720
Vimage-file
p721
Vvmlinux
p722
sVsigned-modules
p723
I00
ss(Vimage
p724
g712
tp725
(dp726
Vinstall-stem
p727
Vvmlinux
p728
ss(Vdescription
p729
g712
NV5kc-malta
p730
tp731
(dp732
Vhardware
p733
VMIPS Malta
p734
sVhardware-long
p735
VMIPS Malta boards
p736
ss(Vimage
p737
g712
NV5kc-malta
p738
tp739
(dp740
Vconfigs
p741
(lp742
Vkernelarch-mips/config.malta
p743
aVkernelarch-mips/config.mips64r2
p744
ass(Vdescription
p745
g712
NVocteon
p746
tp747
(dp748
Vhardware
p749
VOcteon
p750
sVhardware-long
p751
VCavium Networks Octeon
p752
ss(Vimage
p753
g712
NVocteon
p754
tp755
(dp756
Vconfigs
p757
(lp758
Vkernelarch-mips/config.octeon
p759
ass(g164
g712
g134
tp760
(dp761
g167
(lp762
V5kc-malta
p763
aVocteon
p764
asg171
I01
ss(Vbase
p765
Vmips64el
p766
tp767
(dp768
Vkernel-arch
p769
Vmips
p770
sg132
(lp771
g134
ass(Vbuild
p772
g766
tp773
(dp774
Vimage-file
p775
Vvmlinux
p776
sVsigned-modules
p777
I00
ss(Vimage
p778
g766
tp779
(dp780
Vinstall-stem
p781
Vvmlinux
p782
ss(Vdescription
p783
g766
NV5kc-malta
p784
tp785
(dp786
Vhardware
p787
VMIPS Malta
p788
sVhardware-long
p789
VMIPS Malta boards
p790
ss(Vimage
p791
g766
NV5kc-malta
p792
tp793
(dp794
Vconfigs
p795
(lp796
Vkernelarch-mips/config.malta
p797
aVkernelarch-mips/config.mips64r2
p798
ass(Vdescription
p799
g766
NVloongson-3
p800
tp801
(dp802
Vhardware
p803
VLoongson 3A/3B
p804
sVhardware-long
p805
VLoongson 3A or 3B based systems (e.g. from Loongson or Lemote)
p806
ss(Vimage
p807
g766
NVloongson-3
p808
tp809
(dp810
Vconfigs
p811
(lp812
Vkernelarch-mips/config.loongson-3
p813
ass(Vdescription
p814
g766
NVocteon
p815
tp816
(dp817
Vhardware
p818
VOcteon
p819
sVhardware-long
p820
VCavium Networks Octeon
p821
ss(Vimage
p822
g766
NVocteon
p823
tp824
(dp825
Vconfigs
p826
(lp827
Vkernelarch-mips/config.octeon
p828
ass(g164
g766
g134
tp829
(dp830
g167
(lp831
V5kc-malta
p832
aVloongson-3
p833
aVocteon
p834
asg171
I01
ss(Vbase
p835
Vpowerpc
p836
tp837
(dp838
Vkernel-arch
p839
Vpowerpc
p840
sg132
(lp841
g134
ass(Vbuild
p842
g836
tp843
(dp844
Vimage-file
p845
Vvmlinux
p846
sVvdso
p847
I01
ss(Vimage
p848
g836
tp849
(dp850
Vconfigs
p851
(lp852
sVsuggests
p853
Vmkvmlinuz
p854
sVinstall-stem
p855
Vvmlinux
p856
ss(Vdescription
p857
g836
NVpowerpc
p858
tp859
(dp860
Vhardware
p861
Vuniprocessor 32-bit PowerPC
p862
ss(Vdescription
p863
g836
NVpowerpc-smp
p864
tp865
(dp866
Vhardware
p867
Vmultiprocessor 32-bit PowerPC
p868
ss(Vimage
p869
g836
NVpowerpc-smp
p870
tp871
(dp872
Vconfigs
p873
(lp874
Vpowerpc/config.powerpc
p875
aVpowerpc/config.powerpc-smp
p876
ass(Vdescription
p877
g836
NVpowerpc64
p878
tp879
(dp880
Vhardware
p881
V64-bit PowerPC
p882
ss(Vimage
p883
g836
NVpowerpc64
p884
tp885
(dp886
Vconfigs
p887
(lp888
Vkernelarch-powerpc/config-arch-64
p889
aVkernelarch-powerpc/config-arch-64-be
p890
ass(g164
g836
g134
tp891
(dp892
g167
(lp893
Vpowerpc
p894
aVpowerpc-smp
p895
aVpowerpc64
p896
asg171
I01
ss(Vbase
p897
Vpowerpcspe
p898
tp899
(dp900
Vkernel-arch
p901
Vpowerpc
p902
sg132
(lp903
g134
ass(Vbuild
p904
g898
tp905
(dp906
Vimage-file
p907
Vvmlinux
p908
sVsigned-modules
p909
I00
sVvdso
p910
I01
ss(Vimage
p911
g898
tp912
(dp913
Vsuggests
p914
Vmkvmlinuz
p915
sVinstall-stem
p916
Vvmlinux
p917
ss(Vdescription
p918
g898
tp919
(dp920
Vhardware
p921
V32-bit PowerPC with SPE (instead of AltiVec) with SMP support
p922
ss(g164
g898
g134
tp923
(dp924
g167
(lp925
Vpowerpcspe
p926
asg171
I01
ss(Vbase
p927
Vppc64
p928
tp929
(dp930
Vkernel-arch
p931
Vpowerpc
p932
sg132
(lp933
g134
ass(Vbuild
p934
g928
tp935
(dp936
Vimage-file
p937
Vvmlinux
p938
sVsigned-modules
p939
I00
sVvdso
p940
I01
ss(Vimage
p941
g928
tp942
(dp943
Vconfigs
p944
(lp945
sVsuggests
p946
Vmkvmlinuz
p947
sVinstall-stem
p948
Vvmlinux
p949
ss(Vdescription
p950
g928
NVpowerpc64
p951
tp952
(dp953
Vhardware
p954
V64-bit PowerPC
p955
ss(Vimage
p956
g928
NVpowerpc64
p957
tp958
(dp959
Vconfigs
p960
(lp961
Vkernelarch-powerpc/config-arch-64
p962
aVkernelarch-powerpc/config-arch-64-be
p963
ass(g164
g928
g134
tp964
(dp965
g167
(lp966
Vpowerpc64
p967
asg171
I01
ss(Vbase
p968
Vppc64el
p969
tp970
(dp971
Vkernel-arch
p972
Vpowerpc
p973
sg132
(lp974
g134
ass(Vbuild
p975
g969
tp976
(dp977
Vimage-file
p978
Vvmlinux
p979
sVvdso
p980
I01
ss(Vimage
p981
g969
tp982
(dp983
Vconfigs
p984
(lp985
sVsuggests
p986
Vmkvmlinuz
p987
sVinstall-stem
p988
Vvmlinux
p989
ss(Vdescription
p990
g969
NVpowerpc64le
p991
tp992
(dp993
Vhardware
p994
VLittle-endian 64-bit PowerPC
p995
ss(Vimage
p996
g969
NVpowerpc64le
p997
tp998
(dp999
Vconfigs
p1000
(lp1001
Vkernelarch-powerpc/config-arch-64
p1002
aVkernelarch-powerpc/config-arch-64-le
p1003
ass(g164
g969
g134
tp1004
(dp1005
g167
(lp1006
Vpowerpc64le
p1007
asg171
I01
ss(Vbase
p1008
Vs390
p1009
tp1010
(dp1011
Vkernel-arch
p1012
Vs390
p1013
sVfeaturesets
p1014
(lp1015
ss(Vbase
p1016
Vs390x
p1017
tp1018
(dp1019
Vkernel-arch
p1020
Vs390
p1021
sg132
(lp1022
g134
ass(Vbuild
p1023
g1017
tp1024
(dp1025
Vimage-file
p1026
Varch/s390/boot/image
p1027
sVvdso
p1028
I01
ss(Vimage
p1029
g1017
tp1030
(dp1031
Vbootloaders
p1032
(lp1033
Vs390-tools
p1034
asVinstall-stem
p1035
Vvmlinuz
p1036
ss(Vrelations
p1037
g1017
tp1038
(dp1039
Vheaders%gcc-6
p1040
Vlinux-compiler-gcc-6-s390
p1041
ss(Vbuild
p1042
g1017
NVs390x
p1043
tp1044
(dp1045
Vdebug-info
p1046
I01
ss(Vdescription
p1047
g1017
NVs390x
p1048
tp1049
(dp1050
Vhardware
p1051
VIBM zSeries
p1052
ss(g164
g1017
g134
tp1053
(dp1054
g167
(lp1055
Vs390x
p1056
asg171
I01
ss(Vbase
p1057
Vsh3
p1058
tp1059
(dp1060
Vkernel-arch
p1061
Vsh
p1062
sVfeaturesets
p1063
(lp1064
ss(Vbase
p1065
Vsh4
p1066
tp1067
(dp1068
Vkernel-arch
p1069
Vsh
p1070
sg132
(lp1071
g134
ass(Vbuild
p1072
g1066
tp1073
(dp1074
Vimage-file
p1075
Varch/sh/boot/zImage
p1076
sVsigned-modules
p1077
I00
ss(Vimage
p1078
g1066
tp1079
(dp1080
Vinstall-stem
p1081
Vvmlinuz
p1082
ss(Vdescription
p1083
g1066
NVsh7751r
p1084
tp1085
(dp1086
Vhardware
p1087
Vsh7751r
p1088
sVhardware-long
p1089
VRenesas SH7751R R2D plus board
p1090
ss(Vdescription
p1091
g1066
NVsh7785lcr
p1092
tp1093
(dp1094
Vhardware
p1095
Vsh7785lcr
p1096
sVhardware-long
p1097
VRenesas SH7785 reference board
p1098
ss(Vimage
p1099
g1066
NVsh7785lcr
p1100
tp1101
(dp1102
Vrecommends
p1103
Vu-boot-tools
p1104
sVcheck-size
p1105
L4194304L
ss(g164
g1066
g134
tp1106
(dp1107
g167
(lp1108
Vsh7751r
p1109
aVsh7785lcr
p1110
asg171
I01
ss(Vbase
p1111
Vsparc
p1112
tp1113
(dp1114
Vkernel-arch
p1115
Vsparc
p1116
sVfeaturesets
p1117
(lp1118
ss(Vbase
p1119
Vsparc64
p1120
tp1121
(dp1122
Vkernel-arch
p1123
Vsparc
p1124
sg132
(lp1125
g134
ass(Vbuild
p1126
g1120
tp1127
(dp1128
Vimage-file
p1129
Varch/sparc/boot/zImage
p1130
sVsigned-modules
p1131
I00
ss(Vimage
p1132
g1120
tp1133
(dp1134
Vconfigs
p1135
(lp1136
sVsuggests
p1137
Vsilo, fdutils
p1138
sVinstall-stem
p1139
Vvmlinuz
p1140
ss(Vdescription
p1141
g1120
NVsparc64
p1142
tp1143
(dp1144
Vhardware
p1145
Vuniprocessor 64-bit UltraSPARC
p1146
ss(Vimage
p1147
g1120
NVsparc64
p1148
tp1149
(dp1150
Vconfigs
p1151
(lp1152
Vkernelarch-sparc/config-up
p1153
ass(Vdescription
p1154
g1120
NVsparc64-smp
p1155
tp1156
(dp1157
Vhardware
p1158
Vmultiprocessor 64-bit UltraSPARC
p1159
ss(Vimage
p1160
g1120
NVsparc64-smp
p1161
tp1162
(dp1163
Vconfigs
p1164
(lp1165
Vkernelarch-sparc/config-smp
p1166
ass(g164
g1120
g134
tp1167
(dp1168
g167
(lp1169
Vsparc64
p1170
aVsparc64-smp
p1171
asg171
I01
ss(Vbase
p1172
Vtilegx
p1173
tp1174
(dp1175
Vkernel-arch
p1176
Vtile
p1177
sVfeaturesets
p1178
(lp1179
ss(Vbase
p1180
Vx32
p1181
tp1182
(dp1183
Vkernel-arch
p1184
Vx86
p1185
sVfeaturesets
p1186
(lp1187
ss(Vabi
p1188
NVrt
p1189
tp1190
(dp1191
Vignore-changes
p1192
(lp1193
V*
p1194
ass(Vdescription
p1195
Ng1189
tp1196
(dp1197
Vpart-long-rt
p1198
VThis kernel includes the PREEMPT_RT realtime patch set.
p1199
sVpart-short-rt
p1200
VPREEMPT_RT
p1201
sVparts
p1202
(lp1203
Vrt
p1204
ass(Vversion
p1205
tp1206
(dp1207
Vsource
p1208
V4.9.82-1+deb9u2
p1209
sVupstream
p1210
V4.9
p1211
sVabiname_base
p1212
V4.9.0
p1213
sVabiname
p1214
V4.9.0-6
p1215
ss.