cdebian_linux.config
ConfigCore
p0
(tRp1
(Vbase
p2
tp3
(dp4
Varches
p5
(lp6
Valpha
p7
aVamd64
p8
aVarm64
p9
aVarmel
p10
aVarmhf
p11
aVhppa
p12
aVi386
p13
aVm68k
p14
aVmips
p15
aVmipsel
p16
aVmipsn32
p17
aVmipsn32el
p18
aVmips64
p19
aVmips64el
p20
aVor1k
p21
aVpowerpc
p22
aVpowerpcspe
p23
aVppc64
p24
aVppc64el
p25
aVs390
p26
aVs390x
p27
aVsh3
p28
aVsh4
p29
aVsparc
p30
aVsparc64
p31
aVtilegx
p32
aVx32
p33
asVfeaturesets
p34
(lp35
Vnone
p36
aVrt
p37
asVcompiler
p38
Vgcc-6
p39
ss(Vbuild
p40
tp41
(dp42
Vsigned-modules
p43
I01
sVdebug-info
p44
I01
ss(Vbase
p45
NVrt
p46
tp47
(dp48
Venabled
p49
I01
ss(Vdescription
p50
tp51
(dp52
Vpart-long-up
p53
VThis kernel is not suitable for SMP (multi-processor,\u000amulti-core or hyper-threaded) systems.
p54
sVpart-long-xen
p55
VThis kernel also runs on a Xen hypervisor.\u000aIt supports both privileged (dom0) and unprivileged (domU) operation.
p56
ss(Vrelations
p57
tp58
(dp59
Vinitramfs-tools
p60
Vinitramfs-tools (>= 0.110~)
p61
sVgcc-6
p62
Vgcc-6 <!stage1 !cross>, gcc-6-@gnu-type-package@:native <!stage1 cross>
p63
sVinitramfs-fallback
p64
Vlinux-initramfs-tool
p65
ss(Vimage
p66
tp67
(dp68
Vinitramfs-generators
p69
(lp70
Vinitramfs-tools
p71
aVinitramfs-fallback
p72
ass(Vabi
p73
tp74
(dp75
Vabiname
p76
V1
p77
ss(Vbase
p78
Valpha
p79
tp80
(dp81
Vfeaturesets
p82
(lp83
Vnone
p84
asVkernel-arch
p85
Valpha
p86
ss(Vdescription
p87
g79
NValpha-smp
p88
tp89
(dp90
Vhardware
p91
VAlpha SMP
p92
sVhardware-long
p93
VDEC Alpha SMP systems with extended kernel start address (Wildfire, Titan, Marvel)
p94
ss(Vbuild
p95
g79
tp96
(dp97
Vsigned-modules
p98
I00
sVimage-file
p99
Varch/alpha/boot/vmlinux.gz
p100
ss(Vdescription
p101
g79
NValpha-generic
p102
tp103
(dp104
Vhardware
p105
VAlpha
p106
sVhardware-long
p107
VDEC Alpha systems with extended kernel start address (Wildfire, Titan, Marvel)
p108
ss(Vimage
p109
g79
tp110
(dp111
Vsuggests
p112
Vaboot, fdutils
p113
sVinstall-stem
p114
Vvmlinuz
p115
ss(Vbase
p116
g79
g84
tp117
(dp118
Vflavours
p119
(lp120
Valpha-generic
p121
aValpha-smp
p122
asVimplicit-flavour
p123
I01
ss(Vbase
p124
Vamd64
p125
tp126
(dp127
Vfeaturesets
p128
(lp129
Vnone
p130
aVrt
p131
asVkernel-arch
p132
Vx86
p133
ss(Vdescription
p134
g125
NVamd64
p135
tp136
(dp137
Vhardware
p138
V64-bit PCs
p139
sVhardware-long
p140
VPCs with AMD64, Intel 64 or VIA Nano processors
p141
ss(Vbuild
p142
g125
tp143
(dp144
Vvdso
p145
I01
sVimage-file
p146
Varch/x86/boot/bzImage
p147
sVdebug-info
p148
I01
ss(Vrelations
p149
g125
tp150
(dp151
Vheaders%gcc-5
p152
Vlinux-compiler-gcc-5-x86
p153
ss(Vimage
p154
g125
tp155
(dp156
Vbreaks
p157
Vxserver-xorg-input-vmmouse (<< 1:13.0.99)
p158
sVinstall-stem
p159
Vvmlinuz
p160
sVbootloaders
p161
(lp162
Vgrub-pc
p163
aVgrub-efi-amd64
p164
aVextlinux
p165
ass(Vbase
p166
g125
Vnone
p167
tp168
(dp169
Vflavours
p170
(lp171
Vamd64
p172
ass(Vdescription
p173
g125
g167
Vamd64
p174
tp175
(dp176
Vparts
p177
(lp178
Vxen
p179
ass(Vbase
p180
g125
Vrt
p181
tp182
(dp183
Vflavours
p184
(lp185
Vamd64
p186
ass(Vbase
p187
Varm64
p188
tp189
(dp190
Vfeaturesets
p191
(lp192
Vnone
p193
asVkernel-arch
p194
Varm64
p195
ss(Vdescription
p196
g188
NVarm64
p197
tp198
(dp199
Vhardware
p200
V64-bit ARMv8 machines
p201
ss(Vbuild
p202
g188
tp203
(dp204
Vvdso
p205
I01
sVimage-file
p206
Varch/arm64/boot/Image
p207
sVdebug-info
p208
I01
ss(Vimage
p209
g188
NVarm64
p210
tp211
(dp212
s(Vimage
p213
g188
tp214
(dp215
Vbreaks
p216
Vlibmozjs185-1.0, libmozjs-24-0 (<< 24.2.0-5.1~)
p217
sVinstall-stem
p218
Vvmlinuz
p219
ss(Vbase
p220
g188
Vnone
p221
tp222
(dp223
Vflavours
p224
(lp225
Varm64
p226
ass(Vbase
p227
Varmel
p228
tp229
(dp230
g82
(lp231
g84
asVkernel-arch
p232
Varm
p233
ss(Vbuild
p234
g228
tp235
(dp236
Vsigned-modules
p237
I00
sVimage-file
p238
Varch/arm/boot/zImage
p239
ss(Vimage
p240
g228
NVmarvell
p241
tp242
(dp243
Vrecommends
p244
Vu-boot-tools
p245
sVbreaks
p246
Vflash-kernel (<< 3.57~)
p247
sVcheck-size-with-dtb
p248
I01
sVcheck-size
p249
L2097080L
ss(Vdescription
p250
g228
NVmarvell
p251
tp252
(dp253
Vhardware
p254
VMarvell Kirkwood/Orion
p255
sVhardware-long
p256
VMarvell Kirkwood based systems (SheevaPlug, QNAP TS-119/TS-219, etc)\u000aand Orion 5181, 5182 and 5281 based systems (QNAP TS-109/TS-209, etc)
p257
ss(Vrelations
p258
g228
tp259
(dp260
Vheaders%gcc-5
p261
Vlinux-compiler-gcc-5-arm
p262
ss(Vimage
p263
g228
tp264
(dp265
Vinstall-stem
p266
Vvmlinuz
p267
ss(g116
g228
g84
tp268
(dp269
g119
(lp270
Vmarvell
p271
asg123
I01
ss(Vbase
p272
Varmhf
p273
tp274
(dp275
g82
(lp276
g84
asVkernel-arch
p277
Varm
p278
ss(Vdescription
p279
g273
NVarmmp
p280
tp281
(dp282
Vhardware
p283
VARMv7 multiplatform compatible SoCs
p284
sVhardware-long
p285
VARMv7 multiplatform kernel. See\u000ahttps://wiki.debian.org/DebianKernel/ARMMP for details of supported\u000aplatforms
p286
ss(Vbuild
p287
g273
tp288
(dp289
Vvdso
p290
I01
sVimage-file
p291
Varch/arm/boot/zImage
p292
ss(Vdescription
p293
g273
NVarmmp-lpae
p294
tp295
(dp296
Vhardware
p297
VARMv7 multiplatform compatible SoCs supporting LPAE
p298
sVhardware-long
p299
VARMv7 multiplatform kernel supporting LPAE. See\u000ahttps://wiki.debian.org/DebianKernel/ARMMP for details of supported\u000aplatforms.
p300
ss(Vrelations
p301
g273
tp302
(dp303
Vheaders%gcc-5
p304
Vlinux-compiler-gcc-5-arm
p305
ss(Vimage
p306
g273
tp307
(dp308
Vinstall-stem
p309
Vvmlinuz
p310
ss(g116
g273
g84
tp311
(dp312
g119
(lp313
Varmmp
p314
aVarmmp-lpae
p315
asg123
I01
ss(Vbase
p316
Vhppa
p317
tp318
(dp319
g82
(lp320
g84
asVkernel-arch
p321
Vparisc
p322
ss(Vbuild
p323
g317
tp324
(dp325
Vsigned-modules
p326
I00
sVimage-file
p327
Vvmlinux
p328
ss(Vdescription
p329
g317
NVparisc64-smp
p330
tp331
(dp332
Vhardware
p333
Vmultiprocessor 64-bit PA-RISC
p334
sVhardware-long
p335
VHP PA-RISC 64-bit SMP systems with support for more than 4 GB RAM
p336
ss(Vbase
p337
g317
NVparisc64-smp
p338
tp339
(dp340
Vcflags
p341
V-fno-cse-follow-jumps
p342
sVoverride-host-type
p343
Vhppa64-linux-gnu
p344
ss(Vrelations
p345
g317
tp346
(dp347
Vgcc-6
p348
Vgcc-6 <!stage1 !cross>, binutils-hppa64-linux-gnu <!stage1 !cross>, gcc-6-hppa64-linux-gnu <!stage1 !cross>, gcc-6-hppa-linux-gnu:native <!stage1 cross>, binutils-hppa64-linux-gnu:native <!stage1 cross>, gcc-6-hppa64-linux-gnu:native <!stage1 cross>
p349
ss(Vdescription
p350
g317
NVparisc
p351
tp352
(dp353
Vhardware
p354
V32-bit PA-RISC
p355
sVhardware-long
p356
VHP PA-RISC 32-bit systems with max 4 GB RAM
p357
ss(Vimage
p358
g317
tp359
(dp360
Vsuggests
p361
Vpalo
p362
sVinstall-stem
p363
Vvmlinux
p364
ss(g116
g317
g84
tp365
(dp366
g119
(lp367
Vparisc
p368
aVparisc64-smp
p369
asg123
I01
ss(Vbase
p370
Vi386
p371
tp372
(dp373
Vfeaturesets
p374
(lp375
Vnone
p376
aVrt
p377
asVkernel-arch
p378
Vx86
p379
ss(Vbuild
p380
g371
tp381
(dp382
Vvdso
p383
I01
sVimage-file
p384
Varch/x86/boot/bzImage
p385
ss(Vdescription
p386
g371
NV686-pae
p387
tp388
(dp389
Vhardware
p390
Vmodern PCs
p391
sVhardware-long
p392
VPCs with one or more processors supporting PAE
p393
sVparts
p394
(lp395
Vpae
p396
ass(Vdescription
p397
g371
tp398
(dp399
Vpart-long-pae
p400
VThis kernel requires PAE (Physical Address Extension).\u000aThis feature is supported by the Intel Pentium Pro/II/III/4/4M/D, Xeon,\u000aCore and Atom; AMD Geode NX, Athlon (K7), Duron, Opteron, Sempron,\u000aTurion or Phenom; Transmeta Efficeon; VIA C7; and some other processors.
p401
ss(Vbuild
p402
g371
NV686-pae
p403
tp404
(dp405
Vdebug-info
p406
I01
ss(Vdescription
p407
g371
NV686
p408
tp409
(dp410
Vhardware
p411
Volder PCs
p412
sVhardware-long
p413
VPCs with one or more processors not supporting PAE
p414
ss(Vrelations
p415
g371
tp416
(dp417
Vheaders%gcc-5
p418
Vlinux-compiler-gcc-5-x86
p419
ss(Vimage
p420
g371
tp421
(dp422
Vbreaks
p423
Vxserver-xorg-input-vmmouse (<< 1:13.0.99)
p424
sVinstall-stem
p425
Vvmlinuz
p426
sVbootloaders
p427
(lp428
Vgrub-pc
p429
aVextlinux
p430
ass(Vbase
p431
g371
Vnone
p432
tp433
(dp434
Vflavours
p435
(lp436
V686
p437
aV686-pae
p438
ass(Vdescription
p439
g371
g432
V686-pae
p440
tp441
(dp442
Vparts
p443
(lp444
Vxen
p445
ass(Vbase
p446
g371
Vrt
p447
tp448
(dp449
Vflavours
p450
(lp451
V686-pae
p452
ass(Vbase
p453
Vm68k
p454
tp455
(dp456
Vcflags
p457
V-ffreestanding
p458
sg82
(lp459
g84
asVkernel-arch
p460
Vm68k
p461
ss(Vbuild
p462
g454
tp463
(dp464
Vsigned-modules
p465
I00
sVimage-file
p466
Vvmlinux.gz
p467
ss(Vdescription
p468
g454
NVm68k
p469
tp470
(dp471
Vhardware
p472
VMotorola MC68020+ family
p473
ss(Vimage
p474
g454
tp475
(dp476
Vsuggests
p477
Vvmelilo, fdutils
p478
sVinstall-stem
p479
Vvmlinuz
p480
ss(g116
g454
g84
tp481
(dp482
g119
(lp483
Vm68k
p484
asg123
I01
ss(Vbase
p485
Vmips
p486
tp487
(dp488
g82
(lp489
g84
asVkernel-arch
p490
Vmips
p491
ss(Vbuild
p492
g486
tp493
(dp494
Vsigned-modules
p495
I00
sVimage-file
p496
Vvmlinux
p497
ss(Vimage
p498
g486
NV4kc-malta
p499
tp500
(dp501
Vconfigs
p502
(lp503
Vkernelarch-mips/config.malta
p504
aVkernelarch-mips/config.mips32r2
p505
ass(Vimage
p506
g486
NV5kc-malta
p507
tp508
(dp509
Vconfigs
p510
(lp511
Vkernelarch-mips/config.malta
p512
aVkernelarch-mips/config.mips64r2
p513
ass(Vdescription
p514
g486
NVocteon
p515
tp516
(dp517
Vhardware
p518
VOcteon
p519
sVhardware-long
p520
VCavium Networks Octeon
p521
ss(Vimage
p522
g486
NVocteon
p523
tp524
(dp525
Vconfigs
p526
(lp527
Vkernelarch-mips/config.octeon
p528
ass(Vimage
p529
g486
tp530
(dp531
Vinstall-stem
p532
Vvmlinux
p533
ss(Vdescription
p534
g486
NV5kc-malta
p535
tp536
(dp537
Vhardware
p538
VMIPS Malta (64-bit)
p539
sVhardware-long
p540
VMIPS Malta boards (64-bit)
p541
ss(Vdescription
p542
g486
NV4kc-malta
p543
tp544
(dp545
Vhardware
p546
VMIPS Malta
p547
sVhardware-long
p548
VMIPS Malta boards
p549
ss(g116
g486
g84
tp550
(dp551
g119
(lp552
V4kc-malta
p553
aV5kc-malta
p554
aVocteon
p555
asg123
I01
ss(Vbase
p556
Vmipsel
p557
tp558
(dp559
g82
(lp560
g84
asVkernel-arch
p561
Vmips
p562
ss(Vimage
p563
g557
NVloongson-3
p564
tp565
(dp566
Vconfigs
p567
(lp568
Vkernelarch-mips/config.loongson-3
p569
ass(Vbuild
p570
g557
tp571
(dp572
Vsigned-modules
p573
I00
sVimage-file
p574
Vvmlinux
p575
ss(Vimage
p576
g557
NV4kc-malta
p577
tp578
(dp579
Vconfigs
p580
(lp581
Vkernelarch-mips/config.malta
p582
aVkernelarch-mips/config.mips32r2
p583
ass(Vimage
p584
g557
NV5kc-malta
p585
tp586
(dp587
Vconfigs
p588
(lp589
Vkernelarch-mips/config.malta
p590
aVkernelarch-mips/config.mips64r2
p591
ass(Vdescription
p592
g557
NVocteon
p593
tp594
(dp595
Vhardware
p596
VOcteon
p597
sVhardware-long
p598
VCavium Networks Octeon
p599
ss(Vdescription
p600
g557
NVloongson-3
p601
tp602
(dp603
Vhardware
p604
VLoongson 3A/3B
p605
sVhardware-long
p606
VLoongson 3A or 3B based systems (e.g. from Loongson or Lemote)
p607
ss(Vimage
p608
g557
NVocteon
p609
tp610
(dp611
Vconfigs
p612
(lp613
Vkernelarch-mips/config.octeon
p614
ass(Vimage
p615
g557
tp616
(dp617
Vinstall-stem
p618
Vvmlinux
p619
ss(Vdescription
p620
g557
NV5kc-malta
p621
tp622
(dp623
Vhardware
p624
VMIPS Malta (64-bit)
p625
sVhardware-long
p626
VMIPS Malta boards (64-bit)
p627
ss(Vdescription
p628
g557
NV4kc-malta
p629
tp630
(dp631
Vhardware
p632
VMIPS Malta
p633
sVhardware-long
p634
VMIPS Malta boards
p635
ss(g116
g557
g84
tp636
(dp637
g119
(lp638
V4kc-malta
p639
aV5kc-malta
p640
aVloongson-3
p641
aVocteon
p642
asg123
I01
ss(Vbase
p643
Vmipsn32
p644
tp645
(dp646
Vfeaturesets
p647
(lp648
sVkernel-arch
p649
Vmips
p650
ss(Vbase
p651
Vmipsn32el
p652
tp653
(dp654
Vfeaturesets
p655
(lp656
sVkernel-arch
p657
Vmips
p658
ss(Vbase
p659
Vmips64
p660
tp661
(dp662
g82
(lp663
g84
asVkernel-arch
p664
Vmips
p665
ss(Vbuild
p666
g660
tp667
(dp668
Vsigned-modules
p669
I00
sVimage-file
p670
Vvmlinux
p671
ss(Vimage
p672
g660
NV5kc-malta
p673
tp674
(dp675
Vconfigs
p676
(lp677
Vkernelarch-mips/config.malta
p678
aVkernelarch-mips/config.mips64r2
p679
ass(Vdescription
p680
g660
NVocteon
p681
tp682
(dp683
Vhardware
p684
VOcteon
p685
sVhardware-long
p686
VCavium Networks Octeon
p687
ss(Vimage
p688
g660
tp689
(dp690
Vinstall-stem
p691
Vvmlinux
p692
ss(Vdescription
p693
g660
NV5kc-malta
p694
tp695
(dp696
Vhardware
p697
VMIPS Malta
p698
sVhardware-long
p699
VMIPS Malta boards
p700
ss(Vimage
p701
g660
NVocteon
p702
tp703
(dp704
Vconfigs
p705
(lp706
Vkernelarch-mips/config.octeon
p707
ass(g116
g660
g84
tp708
(dp709
g119
(lp710
V5kc-malta
p711
aVocteon
p712
asg123
I01
ss(Vbase
p713
Vmips64el
p714
tp715
(dp716
g82
(lp717
g84
asVkernel-arch
p718
Vmips
p719
ss(Vimage
p720
g714
NVloongson-3
p721
tp722
(dp723
Vconfigs
p724
(lp725
Vkernelarch-mips/config.loongson-3
p726
ass(Vbuild
p727
g714
tp728
(dp729
Vsigned-modules
p730
I00
sVimage-file
p731
Vvmlinux
p732
ss(Vimage
p733
g714
NV5kc-malta
p734
tp735
(dp736
Vconfigs
p737
(lp738
Vkernelarch-mips/config.malta
p739
aVkernelarch-mips/config.mips64r2
p740
ass(Vdescription
p741
g714
NVocteon
p742
tp743
(dp744
Vhardware
p745
VOcteon
p746
sVhardware-long
p747
VCavium Networks Octeon
p748
ss(Vdescription
p749
g714
NVloongson-3
p750
tp751
(dp752
Vhardware
p753
VLoongson 3A/3B
p754
sVhardware-long
p755
VLoongson 3A or 3B based systems (e.g. from Loongson or Lemote)
p756
ss(Vimage
p757
g714
tp758
(dp759
Vinstall-stem
p760
Vvmlinux
p761
ss(Vdescription
p762
g714
NV5kc-malta
p763
tp764
(dp765
Vhardware
p766
VMIPS Malta
p767
sVhardware-long
p768
VMIPS Malta boards
p769
ss(Vimage
p770
g714
NVocteon
p771
tp772
(dp773
Vconfigs
p774
(lp775
Vkernelarch-mips/config.octeon
p776
ass(g116
g714
g84
tp777
(dp778
g119
(lp779
V5kc-malta
p780
aVloongson-3
p781
aVocteon
p782
asg123
I01
ss(Vbase
p783
Vor1k
p784
tp785
(dp786
Vfeaturesets
p787
(lp788
sVkernel-arch
p789
Vopenrisc
p790
ss(Vbase
p791
Vpowerpc
p792
tp793
(dp794
g82
(lp795
g84
asVkernel-arch
p796
Vpowerpc
p797
ss(Vdescription
p798
g792
NVpowerpc64
p799
tp800
(dp801
Vhardware
p802
V64-bit PowerPC
p803
ss(Vbuild
p804
g792
tp805
(dp806
Vvdso
p807
I01
sVimage-file
p808
Vvmlinux
p809
ss(Vimage
p810
g792
NVpowerpc-smp
p811
tp812
(dp813
Vconfigs
p814
(lp815
Vpowerpc/config.powerpc
p816
aVpowerpc/config.powerpc-smp
p817
ass(Vdescription
p818
g792
NVpowerpc
p819
tp820
(dp821
Vhardware
p822
Vuniprocessor 32-bit PowerPC
p823
ss(Vimage
p824
g792
NVpowerpc64
p825
tp826
(dp827
Vconfigs
p828
(lp829
Vkernelarch-powerpc/config-arch-64
p830
aVkernelarch-powerpc/config-arch-64-be
p831
ass(Vdescription
p832
g792
NVpowerpc-smp
p833
tp834
(dp835
Vhardware
p836
Vmultiprocessor 32-bit PowerPC
p837
ss(Vimage
p838
g792
tp839
(dp840
Vsuggests
p841
Vmkvmlinuz
p842
sVinstall-stem
p843
Vvmlinux
p844
sVconfigs
p845
(lp846
ss(g116
g792
g84
tp847
(dp848
g119
(lp849
Vpowerpc
p850
aVpowerpc-smp
p851
aVpowerpc64
p852
asg123
I01
ss(Vbase
p853
Vpowerpcspe
p854
tp855
(dp856
g82
(lp857
g84
asVkernel-arch
p858
Vpowerpc
p859
ss(Vbuild
p860
g854
tp861
(dp862
Vsigned-modules
p863
I00
sVimage-file
p864
Vvmlinux
p865
sVvdso
p866
I01
ss(Vimage
p867
g854
tp868
(dp869
Vsuggests
p870
Vmkvmlinuz
p871
sVinstall-stem
p872
Vvmlinux
p873
ss(Vdescription
p874
g854
tp875
(dp876
Vhardware
p877
V32-bit PowerPC with SPE (instead of AltiVec) with SMP support
p878
ss(g116
g854
g84
tp879
(dp880
g119
(lp881
Vpowerpcspe
p882
asg123
I01
ss(Vbase
p883
Vppc64
p884
tp885
(dp886
g82
(lp887
g84
asVkernel-arch
p888
Vpowerpc
p889
ss(Vdescription
p890
g884
NVpowerpc64
p891
tp892
(dp893
Vhardware
p894
V64-bit PowerPC
p895
ss(Vbuild
p896
g884
tp897
(dp898
Vsigned-modules
p899
I00
sVimage-file
p900
Vvmlinux
p901
sVvdso
p902
I01
ss(Vimage
p903
g884
NVpowerpc64
p904
tp905
(dp906
Vconfigs
p907
(lp908
Vkernelarch-powerpc/config-arch-64
p909
aVkernelarch-powerpc/config-arch-64-be
p910
ass(Vimage
p911
g884
tp912
(dp913
Vsuggests
p914
Vmkvmlinuz
p915
sVinstall-stem
p916
Vvmlinux
p917
sVconfigs
p918
(lp919
ss(g116
g884
g84
tp920
(dp921
g119
(lp922
Vpowerpc64
p923
asg123
I01
ss(Vbase
p924
Vppc64el
p925
tp926
(dp927
g82
(lp928
g84
asVkernel-arch
p929
Vpowerpc
p930
ss(Vdescription
p931
g925
NVpowerpc64le
p932
tp933
(dp934
Vhardware
p935
VLittle-endian 64-bit PowerPC
p936
ss(Vbuild
p937
g925
tp938
(dp939
Vvdso
p940
I01
sVimage-file
p941
Vvmlinux
p942
ss(Vimage
p943
g925
tp944
(dp945
Vsuggests
p946
Vmkvmlinuz
p947
sVinstall-stem
p948
Vvmlinux
p949
sVconfigs
p950
(lp951
ss(Vimage
p952
g925
NVpowerpc64le
p953
tp954
(dp955
Vconfigs
p956
(lp957
Vkernelarch-powerpc/config-arch-64
p958
aVkernelarch-powerpc/config-arch-64-le
p959
ass(g116
g925
g84
tp960
(dp961
g119
(lp962
Vpowerpc64le
p963
asg123
I01
ss(Vbase
p964
Vs390
p965
tp966
(dp967
Vfeaturesets
p968
(lp969
sVkernel-arch
p970
Vs390
p971
ss(Vbase
p972
Vs390x
p973
tp974
(dp975
g82
(lp976
g84
asVkernel-arch
p977
Vs390
p978
ss(Vdescription
p979
g973
NVs390x
p980
tp981
(dp982
Vhardware
p983
VIBM zSeries
p984
ss(Vbuild
p985
g973
tp986
(dp987
Vvdso
p988
I01
sVimage-file
p989
Varch/s390/boot/image
p990
ss(Vbuild
p991
g973
NVs390x
p992
tp993
(dp994
Vdebug-info
p995
I01
ss(Vrelations
p996
g973
tp997
(dp998
Vheaders%gcc-5
p999
Vlinux-compiler-gcc-5-s390
p1000
ss(Vimage
p1001
g973
tp1002
(dp1003
Vinstall-stem
p1004
Vvmlinuz
p1005
sVbootloaders
p1006
(lp1007
Vs390-tools
p1008
ass(g116
g973
g84
tp1009
(dp1010
g119
(lp1011
Vs390x
p1012
asg123
I01
ss(Vbase
p1013
Vsh3
p1014
tp1015
(dp1016
Vfeaturesets
p1017
(lp1018
sVkernel-arch
p1019
Vsh
p1020
ss(Vbase
p1021
Vsh4
p1022
tp1023
(dp1024
g82
(lp1025
g84
asVkernel-arch
p1026
Vsh
p1027
ss(Vbuild
p1028
g1022
tp1029
(dp1030
Vsigned-modules
p1031
I00
sVimage-file
p1032
Varch/sh/boot/zImage
p1033
ss(Vdescription
p1034
g1022
NVsh7751r
p1035
tp1036
(dp1037
Vhardware
p1038
Vsh7751r
p1039
sVhardware-long
p1040
VRenesas SH7751R R2D plus board
p1041
ss(Vdescription
p1042
g1022
NVsh7785lcr
p1043
tp1044
(dp1045
Vhardware
p1046
Vsh7785lcr
p1047
sVhardware-long
p1048
VRenesas SH7785 reference board
p1049
ss(Vimage
p1050
g1022
tp1051
(dp1052
Vinstall-stem
p1053
Vvmlinuz
p1054
ss(Vimage
p1055
g1022
NVsh7785lcr
p1056
tp1057
(dp1058
Vrecommends
p1059
Vu-boot-tools
p1060
sVcheck-size
p1061
L4194304L
ss(g116
g1022
g84
tp1062
(dp1063
g119
(lp1064
Vsh7751r
p1065
aVsh7785lcr
p1066
asg123
I01
ss(Vbase
p1067
Vsparc
p1068
tp1069
(dp1070
Vfeaturesets
p1071
(lp1072
sVkernel-arch
p1073
Vsparc
p1074
ss(Vbase
p1075
Vsparc64
p1076
tp1077
(dp1078
g82
(lp1079
g84
asVkernel-arch
p1080
Vsparc
p1081
ss(Vbuild
p1082
g1076
tp1083
(dp1084
Vsigned-modules
p1085
I00
sVimage-file
p1086
Varch/sparc/boot/zImage
p1087
ss(Vimage
p1088
g1076
NVsparc64
p1089
tp1090
(dp1091
Vconfigs
p1092
(lp1093
Vkernelarch-sparc/config-up
p1094
ass(Vimage
p1095
g1076
NVsparc64-smp
p1096
tp1097
(dp1098
Vconfigs
p1099
(lp1100
Vkernelarch-sparc/config-smp
p1101
ass(Vimage
p1102
g1076
tp1103
(dp1104
Vsuggests
p1105
Vsilo, fdutils
p1106
sVinstall-stem
p1107
Vvmlinuz
p1108
sVconfigs
p1109
(lp1110
ss(Vdescription
p1111
g1076
NVsparc64-smp
p1112
tp1113
(dp1114
Vhardware
p1115
Vmultiprocessor 64-bit UltraSPARC
p1116
ss(Vdescription
p1117
g1076
NVsparc64
p1118
tp1119
(dp1120
Vhardware
p1121
Vuniprocessor 64-bit UltraSPARC
p1122
ss(g116
g1076
g84
tp1123
(dp1124
g119
(lp1125
Vsparc64
p1126
aVsparc64-smp
p1127
asg123
I01
ss(Vbase
p1128
Vtilegx
p1129
tp1130
(dp1131
Vfeaturesets
p1132
(lp1133
sVkernel-arch
p1134
Vtile
p1135
ss(Vbase
p1136
Vx32
p1137
tp1138
(dp1139
Vfeaturesets
p1140
(lp1141
sVkernel-arch
p1142
Vx86
p1143
ss(Vdescription
p1144
NVrt
p1145
tp1146
(dp1147
Vparts
p1148
(lp1149
Vrt
p1150
asVpart-long-rt
p1151
VThis kernel includes the PREEMPT_RT realtime patch set.
p1152
sVpart-short-rt
p1153
VPREEMPT_RT
p1154
ss(Vabi
p1155
Ng1145
tp1156
(dp1157
Vignore-changes
p1158
(lp1159
V*
p1160
ass(Vversion
p1161
tp1162
(dp1163
Vupstream
p1164
V4.9
p1165
sVsource
p1166
V4.9.2-2
p1167
sVabiname
p1168
V4.9.0-1
p1169
sVabiname_base
p1170
V4.9.0
p1171
ss.