cdebian_linux.config
ConfigCore
p0
(tRp1
(Vbase
p2
tp3
(dp4
Varches
p5
(lp6
Valpha
p7
aVamd64
p8
aVarm64
p9
aVarmel
p10
aVarmhf
p11
aVhppa
p12
aVi386
p13
aVm68k
p14
aVmips
p15
aVmipsel
p16
aVmipsn32
p17
aVmipsn32el
p18
aVmips64
p19
aVmips64el
p20
aVpowerpc
p21
aVpowerpcspe
p22
aVppc64
p23
aVppc64el
p24
aVs390
p25
aVs390x
p26
aVsh3
p27
aVsh4
p28
aVsparc
p29
aVsparc64
p30
aVtilegx
p31
aVx32
p32
asVfeaturesets
p33
(lp34
Vnone
p35
aVrt
p36
asVcompiler
p37
Vgcc-4.9
p38
ss(Vbuild
p39
tp40
(dp41
Vdebug-info
p42
I01
ss(Vbase
p43
NVrt
p44
tp45
(dp46
Venabled
p47
I01
ss(Vdescription
p48
tp49
(dp50
Vpart-long-up
p51
VThis kernel is not suitable for SMP (multi-processor,\u000amulti-core or hyper-threaded) systems.
p52
sVpart-long-xen
p53
VThis kernel also runs on a Xen hypervisor.\u000aIt supports both privileged (dom0) and unprivileged (domU) operation.
p54
ss(Vrelations
p55
tp56
(dp57
Vgcc-4.9
p58
Vgcc-4.9 <!stage1 !cross>, gcc-6-@gnu-type-package@:native <!stage1 cross>
p59
sVinitramfs-tools
p60
Vinitramfs-tools (>= 0.120+deb8u2)
p61
sVinitramfs-fallback
p62
Vlinux-initramfs-tool
p63
ss(Vimage
p64
tp65
(dp66
Vinitramfs-generators
p67
(lp68
Vinitramfs-tools
p69
aVinitramfs-fallback
p70
ass(Vabi
p71
tp72
(dp73
Vabiname
p74
V6
p75
sVignore-changes
p76
(lp77
V__cpuhp_*
p78
aVbpf_analyzer
p79
aVcxl_*
p80
aVinet_frag_*
p81
aVinet_frags_*
p82
aVmm_iommu_*
p83
aVmv_mbus_*
p84
aVpaca
p85
aVregister_cxl_calls
p86
aVregister_key_type
p87
aVunregister_cxl_calls
p88
aVmodule:arch/x86/kvm/*
p89
aVmodule:drivers/crypto/ccp/*
p90
aVmodule:drivers/hv/*
p91
aVmodule:drivers/iio/common/hid-sensors/*
p92
aVmodule:drivers/iio/common/st_sensors/**
p93
aVmodule:drivers/net/wireless/**
p94
aVmodule:drivers/nvdimm/*
p95
aVmodule:drivers/power/supply/bq27xxx_battery
p96
aVmodule:drivers/s390/net/qeth
p97
aVmodule:drivers/s390/net/qeth*
p98
aVmodule:drivers/scsi/cxgbi/*
p99
aVmodule:drivers/scsi/libiscs*
p100
aVmodule:drivers/scsi/qla2xxx/qla2xxx
p101
aVmodule:drivers/scsi/ufs/*
p102
aVmodule:drivers/target/**
p103
aVmodule:drivers/usb/chipidea/**
p104
aVmodule:drivers/usb/gadget/**
p105
aVmodule:drivers/usb/host/**
p106
aVmodule:drivers/usb/musb/**
p107
aVmodule:fs/nfs/nfs
p108
aVmodule:net/ceph/libceph
p109
aVmodule:net/l2tp/**
p110
aVmodule:sound/firewire/snd-firewire-lib
p111
aVbtree_*
p112
aVvisitor*
p113
aVcan_rx_register
p114
aVip6_xmit
p115
aVmodule:net/dccp/dccp
p116
aVmodule:net/rds/rds
p117
aVdevfreq_*
p118
aVdevm_devfreq_*
p119
aVupdate_devfreq
p120
aVmodule:drivers/infiniband/**
p121
aVacpi_ec_add_query_handler
p122
aVacpi_ec_remove_query_handler
p123
aVfirst_ec
p124
aVdebugfs_create_automount
p125
ass(Vbase
p126
Valpha
p127
tp128
(dp129
Vfeaturesets
p130
(lp131
Vnone
p132
asVkernel-arch
p133
Valpha
p134
ss(Vdescription
p135
g127
NValpha-smp
p136
tp137
(dp138
Vhardware
p139
VAlpha SMP
p140
sVhardware-long
p141
VDEC Alpha SMP systems with extended kernel start address (Wildfire, Titan, Marvel)
p142
ss(Vbuild
p143
g127
tp144
(dp145
Vsigned-modules
p146
I00
sVimage-file
p147
Varch/alpha/boot/vmlinux.gz
p148
ss(Vdescription
p149
g127
NValpha-generic
p150
tp151
(dp152
Vhardware
p153
VAlpha
p154
sVhardware-long
p155
VDEC Alpha systems with extended kernel start address (Wildfire, Titan, Marvel)
p156
ss(Vimage
p157
g127
tp158
(dp159
Vsuggests
p160
Vaboot, fdutils
p161
sVinstall-stem
p162
Vvmlinuz
p163
ss(Vbase
p164
g127
g132
tp165
(dp166
Vflavours
p167
(lp168
Valpha-generic
p169
aValpha-smp
p170
asVimplicit-flavour
p171
I01
ss(Vbase
p172
Vamd64
p173
tp174
(dp175
Vfeaturesets
p176
(lp177
Vnone
p178
aVrt
p179
asVkernel-arch
p180
Vx86
p181
ss(Vdescription
p182
g173
NVamd64
p183
tp184
(dp185
Vhardware
p186
V64-bit PCs
p187
sVhardware-long
p188
VPCs with AMD64, Intel 64 or VIA Nano processors
p189
ss(Vbuild
p190
g173
tp191
(dp192
Vvdso
p193
I01
sVimage-file
p194
Varch/x86/boot/bzImage
p195
sVdebug-info
p196
I01
ss(Vrelations
p197
g173
tp198
(dp199
Vheaders%gcc-6
p200
Vlinux-compiler-gcc-6-x86 (>= 4.9.82-1+deb9u1~)
p201
sVgcc-6
p202
Vgcc-6 (>= 6.3.0-18+deb9u1~) <!stage1 !cross>, gcc-6-@gnu-type-package@ (>= 6.3.0-18+deb9u1~) <!stage1 cross>
p203
ss(Vimage
p204
g173
tp205
(dp206
Vbreaks
p207
Vxserver-xorg-input-vmmouse (<< 1:13.0.99)
p208
sVinstall-stem
p209
Vvmlinuz
p210
sVbootloaders
p211
(lp212
Vgrub-pc
p213
aVgrub-efi-amd64
p214
aVextlinux
p215
ass(Vbase
p216
g173
Vnone
p217
tp218
(dp219
Vflavours
p220
(lp221
Vamd64
p222
ass(Vdescription
p223
g173
g217
Vamd64
p224
tp225
(dp226
Vparts
p227
(lp228
Vxen
p229
ass(Vbase
p230
g173
Vrt
p231
tp232
(dp233
Vflavours
p234
(lp235
Vamd64
p236
ass(Vbase
p237
Varm64
p238
tp239
(dp240
Vfeaturesets
p241
(lp242
Vnone
p243
asVkernel-arch
p244
Varm64
p245
ss(Vdescription
p246
g238
NVarm64
p247
tp248
(dp249
Vhardware
p250
V64-bit ARMv8 machines
p251
ss(Vbuild
p252
g238
tp253
(dp254
Vvdso
p255
I01
sVimage-file
p256
Varch/arm64/boot/Image
p257
sVdebug-info
p258
I01
ss(Vimage
p259
g238
NVarm64
p260
tp261
(dp262
s(Vimage
p263
g238
tp264
(dp265
Vbreaks
p266
Vlibmozjs185-1.0, libmozjs-24-0 (<< 24.2.0-5.1~)
p267
sVinstall-stem
p268
Vvmlinuz
p269
ss(Vbase
p270
g238
Vnone
p271
tp272
(dp273
Vflavours
p274
(lp275
Varm64
p276
ass(Vbase
p277
Varmel
p278
tp279
(dp280
g130
(lp281
g132
asVkernel-arch
p282
Varm
p283
ss(Vbuild
p284
g278
tp285
(dp286
Vsigned-modules
p287
I00
sVimage-file
p288
Varch/arm/boot/zImage
p289
ss(Vimage
p290
g278
NVmarvell
p291
tp292
(dp293
Vrecommends
p294
Vu-boot-tools
p295
sVbreaks
p296
Vflash-kernel (<< 3.57~)
p297
sVcheck-size-with-dtb
p298
I01
sVcheck-size
p299
L2097080L
ss(Vdescription
p300
g278
NVmarvell
p301
tp302
(dp303
Vhardware
p304
VMarvell Kirkwood/Orion
p305
sVhardware-long
p306
VMarvell Kirkwood based systems (SheevaPlug, QNAP TS-119/TS-219, etc)\u000aand Orion 5181, 5182 and 5281 based systems (QNAP TS-109/TS-209, etc)
p307
ss(Vrelations
p308
g278
tp309
(dp310
Vheaders%gcc-6
p311
Vlinux-compiler-gcc-6-arm
p312
ss(Vimage
p313
g278
tp314
(dp315
Vinstall-stem
p316
Vvmlinuz
p317
ss(g164
g278
g132
tp318
(dp319
g167
(lp320
Vmarvell
p321
asg171
I01
ss(Vdescription
p322
Varmhf
p323
NVarmmp
p324
tp325
(dp326
Vhardware
p327
VARMv7 multiplatform compatible SoCs
p328
sVhardware-long
p329
VARMv7 multiplatform kernel. See\u000ahttps://wiki.debian.org/DebianKernel/ARMMP for details of supported\u000aplatforms
p330
ss(Vdescription
p331
g323
NVrpi
p332
tp333
(dp334
Vhardware
p335
VRaspberryPI
p336
sVhardware-long
p337
VRaspberry PI
p338
ss(Vdescription
p339
g323
NVarmmp-lpae
p340
tp341
(dp342
Vhardware
p343
VARMv7 multiplatform compatible SoCs supporting LPAE
p344
sVhardware-long
p345
VARMv7 multiplatform kernel supporting LPAE. See\u000ahttps://wiki.debian.org/DebianKernel/ARMMP for details of supported\u000aplatforms.
p346
ss(Vbuild
p347
g323
NVrpi
p348
tp349
(dp350
Vimage-file
p351
Varch/arm/boot/zImagerpdt
p352
ss(Vrelations
p353
g323
tp354
(dp355
Vheaders%gcc-4.9
p356
Vlinux-compiler-gcc-4.9-arm
p357
ss(Vimage
p358
g323
tp359
(dp360
Vinstall-stem
p361
Vvmlinuz
p362
ss(Vbase
p363
g323
tp364
(dp365
g130
(lp366
g132
asVkernel-arch
p367
Varm
p368
ss(Vbuild
p369
g323
tp370
(dp371
Vvdso
p372
I01
sVimage-file
p373
Varch/arm/boot/zImage
p374
ss(Vbuild
p375
g323
NVrpi2
p376
tp377
(dp378
Vimage-file
p379
Varch/arm/boot/zImagerpdt
p380
ss(Vimage
p381
g323
NVrpi2
p382
tp383
(dp384
Vconfigs
p385
(lp386
Varmhf/config.rpix
p387
aVarmhf/config.rpi2
p388
ass(Vimage
p389
g323
NVrpi
p390
tp391
(dp392
Vconfigs
p393
(lp394
Varmhf/config.rpix
p395
aVarmhf/config.rpi
p396
ass(Vdescription
p397
g323
NVrpi2
p398
tp399
(dp400
Vhardware
p401
VRaspberryPI2
p402
sVhardware-long
p403
VRaspberry PI 2
p404
ss(g164
g323
g132
tp405
(dp406
g167
(lp407
Vrpi
p408
aVrpi2
p409
asg171
I01
ss(Vbase
p410
Vhppa
p411
tp412
(dp413
g130
(lp414
g132
asVkernel-arch
p415
Vparisc
p416
ss(Vbuild
p417
g411
tp418
(dp419
Vsigned-modules
p420
I00
sVimage-file
p421
Vvmlinux
p422
ss(Vdescription
p423
g411
NVparisc64-smp
p424
tp425
(dp426
Vhardware
p427
Vmultiprocessor 64-bit PA-RISC
p428
sVhardware-long
p429
VHP PA-RISC 64-bit SMP systems with support for more than 4 GB RAM
p430
ss(Vbase
p431
g411
NVparisc64-smp
p432
tp433
(dp434
Vcflags
p435
V-fno-cse-follow-jumps
p436
sVoverride-host-type
p437
Vhppa64-linux-gnu
p438
ss(Vrelations
p439
g411
tp440
(dp441
Vgcc-6
p442
Vgcc-6 <!stage1 !cross>, binutils-hppa64-linux-gnu <!stage1 !cross>, gcc-6-hppa64-linux-gnu <!stage1 !cross>, gcc-6-hppa-linux-gnu <!stage1 cross>, binutils-hppa64-linux-gnu <!stage1 cross>, gcc-6-hppa64-linux-gnu <!stage1 cross>
p443
ss(Vdescription
p444
g411
NVparisc
p445
tp446
(dp447
Vhardware
p448
V32-bit PA-RISC
p449
sVhardware-long
p450
VHP PA-RISC 32-bit systems with max 4 GB RAM
p451
ss(Vimage
p452
g411
tp453
(dp454
Vsuggests
p455
Vpalo
p456
sVinstall-stem
p457
Vvmlinux
p458
ss(g164
g411
g132
tp459
(dp460
g167
(lp461
Vparisc
p462
aVparisc64-smp
p463
asg171
I01
ss(Vbase
p464
Vi386
p465
tp466
(dp467
Vfeaturesets
p468
(lp469
Vnone
p470
aVrt
p471
asVkernel-arch
p472
Vx86
p473
ss(Vbuild
p474
g465
tp475
(dp476
Vvdso
p477
I01
sVimage-file
p478
Varch/x86/boot/bzImage
p479
ss(Vdescription
p480
g465
NV686-pae
p481
tp482
(dp483
Vhardware
p484
Vmodern PCs
p485
sVhardware-long
p486
VPCs with one or more processors supporting PAE
p487
sVparts
p488
(lp489
Vpae
p490
ass(Vdescription
p491
g465
tp492
(dp493
Vpart-long-pae
p494
VThis kernel requires PAE (Physical Address Extension).\u000aThis feature is supported by the Intel Pentium Pro/II/III/4/4M/D, Xeon,\u000aCore and Atom; AMD Geode NX, Athlon (K7), Duron, Opteron, Sempron,\u000aTurion or Phenom; Transmeta Efficeon; VIA C7; and some other processors.
p495
ss(Vbuild
p496
g465
NV686-pae
p497
tp498
(dp499
Vdebug-info
p500
I01
ss(Vdescription
p501
g465
NV686
p502
tp503
(dp504
Vhardware
p505
Volder PCs
p506
sVhardware-long
p507
VPCs with one or more processors not supporting PAE
p508
ss(Vrelations
p509
g465
tp510
(dp511
Vheaders%gcc-6
p512
Vlinux-compiler-gcc-6-x86 (>= 4.9.82-1+deb9u1~)
p513
sVgcc-6
p514
Vgcc-6 (>= 6.3.0-18+deb9u1~) <!stage1 !cross>, gcc-6-@gnu-type-package@ (>= 6.3.0-18+deb9u1~) <!stage1 cross>
p515
ss(Vimage
p516
g465
tp517
(dp518
Vbreaks
p519
Vxserver-xorg-input-vmmouse (<< 1:13.0.99)
p520
sVinstall-stem
p521
Vvmlinuz
p522
sVbootloaders
p523
(lp524
Vgrub-pc
p525
aVextlinux
p526
ass(Vbase
p527
g465
Vnone
p528
tp529
(dp530
Vflavours
p531
(lp532
V686
p533
aV686-pae
p534
ass(Vdescription
p535
g465
g528
V686-pae
p536
tp537
(dp538
Vparts
p539
(lp540
Vxen
p541
ass(Vbase
p542
g465
Vrt
p543
tp544
(dp545
Vflavours
p546
(lp547
V686-pae
p548
ass(Vbase
p549
Vm68k
p550
tp551
(dp552
Vcflags
p553
V-ffreestanding
p554
sg130
(lp555
g132
asVkernel-arch
p556
Vm68k
p557
ss(Vbuild
p558
g550
tp559
(dp560
Vsigned-modules
p561
I00
sVimage-file
p562
Vvmlinux.gz
p563
ss(Vdescription
p564
g550
NVm68k
p565
tp566
(dp567
Vhardware
p568
VMotorola MC68020+ family
p569
ss(Vimage
p570
g550
tp571
(dp572
Vsuggests
p573
Vvmelilo, fdutils
p574
sVinstall-stem
p575
Vvmlinuz
p576
ss(g164
g550
g132
tp577
(dp578
g167
(lp579
Vm68k
p580
asg171
I01
ss(Vbase
p581
Vmips
p582
tp583
(dp584
g130
(lp585
g132
asVkernel-arch
p586
Vmips
p587
ss(Vbuild
p588
g582
tp589
(dp590
Vsigned-modules
p591
I00
sVimage-file
p592
Vvmlinux
p593
ss(Vimage
p594
g582
NV4kc-malta
p595
tp596
(dp597
Vconfigs
p598
(lp599
Vkernelarch-mips/config.malta
p600
aVkernelarch-mips/config.mips32r2
p601
ass(Vimage
p602
g582
NV5kc-malta
p603
tp604
(dp605
Vconfigs
p606
(lp607
Vkernelarch-mips/config.malta
p608
aVkernelarch-mips/config.mips64r2
p609
ass(Vdescription
p610
g582
NVocteon
p611
tp612
(dp613
Vhardware
p614
VOcteon
p615
sVhardware-long
p616
VCavium Networks Octeon
p617
ss(Vimage
p618
g582
NVocteon
p619
tp620
(dp621
Vconfigs
p622
(lp623
Vkernelarch-mips/config.octeon
p624
ass(Vimage
p625
g582
tp626
(dp627
Vinstall-stem
p628
Vvmlinux
p629
ss(Vdescription
p630
g582
NV5kc-malta
p631
tp632
(dp633
Vhardware
p634
VMIPS Malta (64-bit)
p635
sVhardware-long
p636
VMIPS Malta boards (64-bit)
p637
ss(Vdescription
p638
g582
NV4kc-malta
p639
tp640
(dp641
Vhardware
p642
VMIPS Malta
p643
sVhardware-long
p644
VMIPS Malta boards
p645
ss(g164
g582
g132
tp646
(dp647
g167
(lp648
V4kc-malta
p649
aV5kc-malta
p650
aVocteon
p651
asg171
I01
ss(Vbase
p652
Vmipsel
p653
tp654
(dp655
g130
(lp656
g132
asVkernel-arch
p657
Vmips
p658
ss(Vimage
p659
g653
NVloongson-3
p660
tp661
(dp662
Vconfigs
p663
(lp664
Vkernelarch-mips/config.loongson-3
p665
ass(Vbuild
p666
g653
tp667
(dp668
Vsigned-modules
p669
I00
sVimage-file
p670
Vvmlinux
p671
ss(Vimage
p672
g653
NV4kc-malta
p673
tp674
(dp675
Vconfigs
p676
(lp677
Vkernelarch-mips/config.malta
p678
aVkernelarch-mips/config.mips32r2
p679
ass(Vimage
p680
g653
NV5kc-malta
p681
tp682
(dp683
Vconfigs
p684
(lp685
Vkernelarch-mips/config.malta
p686
aVkernelarch-mips/config.mips64r2
p687
ass(Vdescription
p688
g653
NVocteon
p689
tp690
(dp691
Vhardware
p692
VOcteon
p693
sVhardware-long
p694
VCavium Networks Octeon
p695
ss(Vdescription
p696
g653
NVloongson-3
p697
tp698
(dp699
Vhardware
p700
VLoongson 3A/3B
p701
sVhardware-long
p702
VLoongson 3A or 3B based systems (e.g. from Loongson or Lemote)
p703
ss(Vimage
p704
g653
NVocteon
p705
tp706
(dp707
Vconfigs
p708
(lp709
Vkernelarch-mips/config.octeon
p710
ass(Vimage
p711
g653
tp712
(dp713
Vinstall-stem
p714
Vvmlinux
p715
ss(Vdescription
p716
g653
NV5kc-malta
p717
tp718
(dp719
Vhardware
p720
VMIPS Malta (64-bit)
p721
sVhardware-long
p722
VMIPS Malta boards (64-bit)
p723
ss(Vdescription
p724
g653
NV4kc-malta
p725
tp726
(dp727
Vhardware
p728
VMIPS Malta
p729
sVhardware-long
p730
VMIPS Malta boards
p731
ss(g164
g653
g132
tp732
(dp733
g167
(lp734
V4kc-malta
p735
aV5kc-malta
p736
aVloongson-3
p737
aVocteon
p738
asg171
I01
ss(Vbase
p739
Vmipsn32
p740
tp741
(dp742
Vfeaturesets
p743
(lp744
sVkernel-arch
p745
Vmips
p746
ss(Vbase
p747
Vmipsn32el
p748
tp749
(dp750
Vfeaturesets
p751
(lp752
sVkernel-arch
p753
Vmips
p754
ss(Vbase
p755
Vmips64
p756
tp757
(dp758
g130
(lp759
g132
asVkernel-arch
p760
Vmips
p761
ss(Vbuild
p762
g756
tp763
(dp764
Vsigned-modules
p765
I00
sVimage-file
p766
Vvmlinux
p767
ss(Vimage
p768
g756
NV5kc-malta
p769
tp770
(dp771
Vconfigs
p772
(lp773
Vkernelarch-mips/config.malta
p774
aVkernelarch-mips/config.mips64r2
p775
ass(Vdescription
p776
g756
NVocteon
p777
tp778
(dp779
Vhardware
p780
VOcteon
p781
sVhardware-long
p782
VCavium Networks Octeon
p783
ss(Vimage
p784
g756
tp785
(dp786
Vinstall-stem
p787
Vvmlinux
p788
ss(Vdescription
p789
g756
NV5kc-malta
p790
tp791
(dp792
Vhardware
p793
VMIPS Malta
p794
sVhardware-long
p795
VMIPS Malta boards
p796
ss(Vimage
p797
g756
NVocteon
p798
tp799
(dp800
Vconfigs
p801
(lp802
Vkernelarch-mips/config.octeon
p803
ass(g164
g756
g132
tp804
(dp805
g167
(lp806
V5kc-malta
p807
aVocteon
p808
asg171
I01
ss(Vbase
p809
Vmips64el
p810
tp811
(dp812
g130
(lp813
g132
asVkernel-arch
p814
Vmips
p815
ss(Vimage
p816
g810
NVloongson-3
p817
tp818
(dp819
Vconfigs
p820
(lp821
Vkernelarch-mips/config.loongson-3
p822
ass(Vbuild
p823
g810
tp824
(dp825
Vsigned-modules
p826
I00
sVimage-file
p827
Vvmlinux
p828
ss(Vimage
p829
g810
NV5kc-malta
p830
tp831
(dp832
Vconfigs
p833
(lp834
Vkernelarch-mips/config.malta
p835
aVkernelarch-mips/config.mips64r2
p836
ass(Vdescription
p837
g810
NVocteon
p838
tp839
(dp840
Vhardware
p841
VOcteon
p842
sVhardware-long
p843
VCavium Networks Octeon
p844
ss(Vdescription
p845
g810
NVloongson-3
p846
tp847
(dp848
Vhardware
p849
VLoongson 3A/3B
p850
sVhardware-long
p851
VLoongson 3A or 3B based systems (e.g. from Loongson or Lemote)
p852
ss(Vimage
p853
g810
tp854
(dp855
Vinstall-stem
p856
Vvmlinux
p857
ss(Vdescription
p858
g810
NV5kc-malta
p859
tp860
(dp861
Vhardware
p862
VMIPS Malta
p863
sVhardware-long
p864
VMIPS Malta boards
p865
ss(Vimage
p866
g810
NVocteon
p867
tp868
(dp869
Vconfigs
p870
(lp871
Vkernelarch-mips/config.octeon
p872
ass(g164
g810
g132
tp873
(dp874
g167
(lp875
V5kc-malta
p876
aVloongson-3
p877
aVocteon
p878
asg171
I01
ss(Vbase
p879
Vpowerpc
p880
tp881
(dp882
g130
(lp883
g132
asVkernel-arch
p884
Vpowerpc
p885
ss(Vdescription
p886
g880
NVpowerpc64
p887
tp888
(dp889
Vhardware
p890
V64-bit PowerPC
p891
ss(Vbuild
p892
g880
tp893
(dp894
Vvdso
p895
I01
sVimage-file
p896
Vvmlinux
p897
ss(Vimage
p898
g880
NVpowerpc-smp
p899
tp900
(dp901
Vconfigs
p902
(lp903
Vpowerpc/config.powerpc
p904
aVpowerpc/config.powerpc-smp
p905
ass(Vdescription
p906
g880
NVpowerpc
p907
tp908
(dp909
Vhardware
p910
Vuniprocessor 32-bit PowerPC
p911
ss(Vimage
p912
g880
NVpowerpc64
p913
tp914
(dp915
Vconfigs
p916
(lp917
Vkernelarch-powerpc/config-arch-64
p918
aVkernelarch-powerpc/config-arch-64-be
p919
ass(Vdescription
p920
g880
NVpowerpc-smp
p921
tp922
(dp923
Vhardware
p924
Vmultiprocessor 32-bit PowerPC
p925
ss(Vimage
p926
g880
tp927
(dp928
Vsuggests
p929
Vmkvmlinuz
p930
sVinstall-stem
p931
Vvmlinux
p932
sVconfigs
p933
(lp934
ss(g164
g880
g132
tp935
(dp936
g167
(lp937
Vpowerpc
p938
aVpowerpc-smp
p939
aVpowerpc64
p940
asg171
I01
ss(Vbase
p941
Vpowerpcspe
p942
tp943
(dp944
g130
(lp945
g132
asVkernel-arch
p946
Vpowerpc
p947
ss(Vbuild
p948
g942
tp949
(dp950
Vsigned-modules
p951
I00
sVimage-file
p952
Vvmlinux
p953
sVvdso
p954
I01
ss(Vimage
p955
g942
tp956
(dp957
Vsuggests
p958
Vmkvmlinuz
p959
sVinstall-stem
p960
Vvmlinux
p961
ss(Vdescription
p962
g942
tp963
(dp964
Vhardware
p965
V32-bit PowerPC with SPE (instead of AltiVec) with SMP support
p966
ss(g164
g942
g132
tp967
(dp968
g167
(lp969
Vpowerpcspe
p970
asg171
I01
ss(Vbase
p971
Vppc64
p972
tp973
(dp974
g130
(lp975
g132
asVkernel-arch
p976
Vpowerpc
p977
ss(Vdescription
p978
g972
NVpowerpc64
p979
tp980
(dp981
Vhardware
p982
V64-bit PowerPC
p983
ss(Vbuild
p984
g972
tp985
(dp986
Vsigned-modules
p987
I00
sVimage-file
p988
Vvmlinux
p989
sVvdso
p990
I01
ss(Vimage
p991
g972
NVpowerpc64
p992
tp993
(dp994
Vconfigs
p995
(lp996
Vkernelarch-powerpc/config-arch-64
p997
aVkernelarch-powerpc/config-arch-64-be
p998
ass(Vimage
p999
g972
tp1000
(dp1001
Vsuggests
p1002
Vmkvmlinuz
p1003
sVinstall-stem
p1004
Vvmlinux
p1005
sVconfigs
p1006
(lp1007
ss(g164
g972
g132
tp1008
(dp1009
g167
(lp1010
Vpowerpc64
p1011
asg171
I01
ss(Vbase
p1012
Vppc64el
p1013
tp1014
(dp1015
g130
(lp1016
g132
asVkernel-arch
p1017
Vpowerpc
p1018
ss(Vdescription
p1019
g1013
NVpowerpc64le
p1020
tp1021
(dp1022
Vhardware
p1023
VLittle-endian 64-bit PowerPC
p1024
ss(Vbuild
p1025
g1013
tp1026
(dp1027
Vvdso
p1028
I01
sVimage-file
p1029
Vvmlinux
p1030
ss(Vimage
p1031
g1013
tp1032
(dp1033
Vsuggests
p1034
Vmkvmlinuz
p1035
sVinstall-stem
p1036
Vvmlinux
p1037
sVconfigs
p1038
(lp1039
ss(Vimage
p1040
g1013
NVpowerpc64le
p1041
tp1042
(dp1043
Vconfigs
p1044
(lp1045
Vkernelarch-powerpc/config-arch-64
p1046
aVkernelarch-powerpc/config-arch-64-le
p1047
ass(g164
g1013
g132
tp1048
(dp1049
g167
(lp1050
Vpowerpc64le
p1051
asg171
I01
ss(Vbase
p1052
Vs390
p1053
tp1054
(dp1055
Vfeaturesets
p1056
(lp1057
sVkernel-arch
p1058
Vs390
p1059
ss(Vbase
p1060
Vs390x
p1061
tp1062
(dp1063
g130
(lp1064
g132
asVkernel-arch
p1065
Vs390
p1066
ss(Vdescription
p1067
g1061
NVs390x
p1068
tp1069
(dp1070
Vhardware
p1071
VIBM zSeries
p1072
ss(Vbuild
p1073
g1061
tp1074
(dp1075
Vvdso
p1076
I01
sVimage-file
p1077
Varch/s390/boot/image
p1078
ss(Vbuild
p1079
g1061
NVs390x
p1080
tp1081
(dp1082
Vdebug-info
p1083
I01
ss(Vrelations
p1084
g1061
tp1085
(dp1086
Vheaders%gcc-6
p1087
Vlinux-compiler-gcc-6-s390
p1088
ss(Vimage
p1089
g1061
tp1090
(dp1091
Vinstall-stem
p1092
Vvmlinuz
p1093
sVbootloaders
p1094
(lp1095
Vs390-tools
p1096
ass(g164
g1061
g132
tp1097
(dp1098
g167
(lp1099
Vs390x
p1100
asg171
I01
ss(Vbase
p1101
Vsh3
p1102
tp1103
(dp1104
Vfeaturesets
p1105
(lp1106
sVkernel-arch
p1107
Vsh
p1108
ss(Vbase
p1109
Vsh4
p1110
tp1111
(dp1112
g130
(lp1113
g132
asVkernel-arch
p1114
Vsh
p1115
ss(Vbuild
p1116
g1110
tp1117
(dp1118
Vsigned-modules
p1119
I00
sVimage-file
p1120
Varch/sh/boot/zImage
p1121
ss(Vdescription
p1122
g1110
NVsh7751r
p1123
tp1124
(dp1125
Vhardware
p1126
Vsh7751r
p1127
sVhardware-long
p1128
VRenesas SH7751R R2D plus board
p1129
ss(Vdescription
p1130
g1110
NVsh7785lcr
p1131
tp1132
(dp1133
Vhardware
p1134
Vsh7785lcr
p1135
sVhardware-long
p1136
VRenesas SH7785 reference board
p1137
ss(Vimage
p1138
g1110
tp1139
(dp1140
Vinstall-stem
p1141
Vvmlinuz
p1142
ss(Vimage
p1143
g1110
NVsh7785lcr
p1144
tp1145
(dp1146
Vrecommends
p1147
Vu-boot-tools
p1148
sVcheck-size
p1149
L4194304L
ss(g164
g1110
g132
tp1150
(dp1151
g167
(lp1152
Vsh7751r
p1153
aVsh7785lcr
p1154
asg171
I01
ss(Vbase
p1155
Vsparc
p1156
tp1157
(dp1158
Vfeaturesets
p1159
(lp1160
sVkernel-arch
p1161
Vsparc
p1162
ss(Vbase
p1163
Vsparc64
p1164
tp1165
(dp1166
g130
(lp1167
g132
asVkernel-arch
p1168
Vsparc
p1169
ss(Vbuild
p1170
g1164
tp1171
(dp1172
Vsigned-modules
p1173
I00
sVimage-file
p1174
Varch/sparc/boot/zImage
p1175
ss(Vimage
p1176
g1164
NVsparc64
p1177
tp1178
(dp1179
Vconfigs
p1180
(lp1181
Vkernelarch-sparc/config-up
p1182
ass(Vimage
p1183
g1164
NVsparc64-smp
p1184
tp1185
(dp1186
Vconfigs
p1187
(lp1188
Vkernelarch-sparc/config-smp
p1189
ass(Vimage
p1190
g1164
tp1191
(dp1192
Vsuggests
p1193
Vsilo, fdutils
p1194
sVinstall-stem
p1195
Vvmlinuz
p1196
sVconfigs
p1197
(lp1198
ss(Vdescription
p1199
g1164
NVsparc64-smp
p1200
tp1201
(dp1202
Vhardware
p1203
Vmultiprocessor 64-bit UltraSPARC
p1204
ss(Vdescription
p1205
g1164
NVsparc64
p1206
tp1207
(dp1208
Vhardware
p1209
Vuniprocessor 64-bit UltraSPARC
p1210
ss(g164
g1164
g132
tp1211
(dp1212
g167
(lp1213
Vsparc64
p1214
aVsparc64-smp
p1215
asg171
I01
ss(Vbase
p1216
Vtilegx
p1217
tp1218
(dp1219
Vfeaturesets
p1220
(lp1221
sVkernel-arch
p1222
Vtile
p1223
ss(Vbase
p1224
Vx32
p1225
tp1226
(dp1227
Vfeaturesets
p1228
(lp1229
sVkernel-arch
p1230
Vx86
p1231
ss(Vdescription
p1232
NVrt
p1233
tp1234
(dp1235
Vparts
p1236
(lp1237
Vrt
p1238
asVpart-long-rt
p1239
VThis kernel includes the PREEMPT_RT realtime patch set.
p1240
sVpart-short-rt
p1241
VPREEMPT_RT
p1242
ss(Vabi
p1243
Ng1233
tp1244
(dp1245
Vignore-changes
p1246
(lp1247
V*
p1248
ass(Vversion
p1249
tp1250
(dp1251
Vupstream
p1252
V4.9
p1253
sVsource
p1254
V4.9.82-1+deb9u3+rpi1
p1255
sVabiname
p1256
V4.9.0-6
p1257
sVabiname_base
p1258
V4.9.0
p1259
ss.