cdebian_linux.config
ConfigCore
p0
(tRp1
(Vbase
p2
tp3
(dp4
Varches
p5
(lp6
Valpha
p7
aVamd64
p8
aVarm64
p9
aVarmel
p10
aVarmhf
p11
aVhppa
p12
aVi386
p13
aVm68k
p14
aVmips
p15
aVmipsel
p16
aVmipsn32
p17
aVmipsn32el
p18
aVmips64
p19
aVmips64el
p20
aVpowerpc
p21
aVpowerpcspe
p22
aVppc64
p23
aVppc64el
p24
aVs390
p25
aVs390x
p26
aVsh3
p27
aVsh4
p28
aVsparc
p29
aVsparc64
p30
aVtilegx
p31
aVx32
p32
asVfeaturesets
p33
(lp34
Vnone
p35
aVrt
p36
asVcompiler
p37
Vgcc-4.9
p38
ss(Vbuild
p39
tp40
(dp41
Vdebug-info
p42
I01
ss(Vbase
p43
NVrt
p44
tp45
(dp46
Venabled
p47
I01
ss(Vdescription
p48
tp49
(dp50
Vpart-long-up
p51
VThis kernel is not suitable for SMP (multi-processor,\u000amulti-core or hyper-threaded) systems.
p52
sVpart-long-xen
p53
VThis kernel also runs on a Xen hypervisor.\u000aIt supports both privileged (dom0) and unprivileged (domU) operation.
p54
ss(Vpackages
p55
tp56
(dp57
Vlibc-dev
p58
I00
ss(Vrelations
p59
tp60
(dp61
Vgcc-4.9
p62
Vgcc-4.9 <!stage1 !cross>, gcc-6-@gnu-type-package@:native <!stage1 cross>
p63
sVinitramfs-tools
p64
Vinitramfs-tools (>= 0.120+deb8u2)
p65
sVinitramfs-fallback
p66
Vlinux-initramfs-tool
p67
ss(Vimage
p68
tp69
(dp70
Vinitramfs-generators
p71
(lp72
Vinitramfs-tools
p73
aVinitramfs-fallback
p74
ass(Vabi
p75
tp76
(dp77
Vabiname
p78
V4
p79
sVignore-changes
p80
(lp81
V__cpuhp_*
p82
aVbpf_analyzer
p83
aVcxl_*
p84
aVinet_frag_*
p85
aVinet_frags_*
p86
aVmm_iommu_*
p87
aVregister_cxl_calls
p88
aVunregister_cxl_calls
p89
aVmodule:arch/x86/kvm/*
p90
aVmodule:drivers/crypto/ccp/*
p91
aVmodule:drivers/hv/*
p92
aVmodule:drivers/iio/common/hid-sensors/*
p93
aVmodule:drivers/iio/common/st_sensors/**
p94
aVmodule:drivers/net/wireless/**
p95
aVmodule:drivers/nvdimm/*
p96
aVmodule:drivers/power/supply/bq27xxx_battery
p97
aVmodule:drivers/scsi/cxgbi/*
p98
aVmodule:drivers/scsi/libiscs*
p99
aVmodule:drivers/scsi/qla2xxx/qla2xxx
p100
aVmodule:drivers/scsi/ufs/*
p101
aVmodule:drivers/target/**
p102
aVmodule:drivers/usb/chipidea/**
p103
aVmodule:drivers/usb/host/**
p104
aVmodule:drivers/usb/musb/**
p105
aVmodule:fs/nfs/nfs
p106
aVmodule:net/ceph/libceph
p107
aVmodule:net/l2tp/l2tp_core
p108
aVmodule:sound/firewire/snd-firewire-lib
p109
aVbtree_*
p110
aVvisitor*
p111
aVcan_rx_register
p112
aVip6_xmit
p113
aVmodule:net/dccp/dccp
p114
aVmodule:net/rds/rds
p115
aVdevfreq_*
p116
aVdevm_devfreq_*
p117
aVupdate_devfreq
p118
aVmodule:drivers/infiniband/**
p119
aVacpi_ec_add_query_handler
p120
aVacpi_ec_remove_query_handler
p121
aVfirst_ec
p122
aVdebugfs_create_automount
p123
ass(Vbase
p124
Valpha
p125
tp126
(dp127
Vfeaturesets
p128
(lp129
Vnone
p130
asVkernel-arch
p131
Valpha
p132
ss(Vdescription
p133
g125
NValpha-smp
p134
tp135
(dp136
Vhardware
p137
VAlpha SMP
p138
sVhardware-long
p139
VDEC Alpha SMP systems with extended kernel start address (Wildfire, Titan, Marvel)
p140
ss(Vbuild
p141
g125
tp142
(dp143
Vsigned-modules
p144
I00
sVimage-file
p145
Varch/alpha/boot/vmlinux.gz
p146
ss(Vdescription
p147
g125
NValpha-generic
p148
tp149
(dp150
Vhardware
p151
VAlpha
p152
sVhardware-long
p153
VDEC Alpha systems with extended kernel start address (Wildfire, Titan, Marvel)
p154
ss(Vimage
p155
g125
tp156
(dp157
Vsuggests
p158
Vaboot, fdutils
p159
sVinstall-stem
p160
Vvmlinuz
p161
ss(Vbase
p162
g125
g130
tp163
(dp164
Vflavours
p165
(lp166
Valpha-generic
p167
aValpha-smp
p168
asVimplicit-flavour
p169
I01
ss(Vbase
p170
Vamd64
p171
tp172
(dp173
Vfeaturesets
p174
(lp175
Vnone
p176
aVrt
p177
asVkernel-arch
p178
Vx86
p179
ss(Vdescription
p180
g171
NVamd64
p181
tp182
(dp183
Vhardware
p184
V64-bit PCs
p185
sVhardware-long
p186
VPCs with AMD64, Intel 64 or VIA Nano processors
p187
ss(Vbuild
p188
g171
tp189
(dp190
Vvdso
p191
I01
sVimage-file
p192
Varch/x86/boot/bzImage
p193
sVdebug-info
p194
I01
ss(Vrelations
p195
g171
tp196
(dp197
Vheaders%gcc-6
p198
Vlinux-compiler-gcc-6-x86
p199
ss(Vimage
p200
g171
tp201
(dp202
Vbreaks
p203
Vxserver-xorg-input-vmmouse (<< 1:13.0.99)
p204
sVinstall-stem
p205
Vvmlinuz
p206
sVbootloaders
p207
(lp208
Vgrub-pc
p209
aVgrub-efi-amd64
p210
aVextlinux
p211
ass(Vbase
p212
g171
Vnone
p213
tp214
(dp215
Vflavours
p216
(lp217
Vamd64
p218
ass(Vdescription
p219
g171
g213
Vamd64
p220
tp221
(dp222
Vparts
p223
(lp224
Vxen
p225
ass(Vbase
p226
g171
Vrt
p227
tp228
(dp229
Vflavours
p230
(lp231
Vamd64
p232
ass(Vbase
p233
Varm64
p234
tp235
(dp236
Vfeaturesets
p237
(lp238
Vnone
p239
asVkernel-arch
p240
Varm64
p241
ss(Vdescription
p242
g234
NVarm64
p243
tp244
(dp245
Vhardware
p246
V64-bit ARMv8 machines
p247
ss(Vbuild
p248
g234
tp249
(dp250
Vvdso
p251
I01
sVimage-file
p252
Varch/arm64/boot/Image
p253
sVdebug-info
p254
I01
ss(Vimage
p255
g234
NVarm64
p256
tp257
(dp258
s(Vimage
p259
g234
tp260
(dp261
Vbreaks
p262
Vlibmozjs185-1.0, libmozjs-24-0 (<< 24.2.0-5.1~)
p263
sVinstall-stem
p264
Vvmlinuz
p265
ss(Vbase
p266
g234
Vnone
p267
tp268
(dp269
Vflavours
p270
(lp271
Varm64
p272
ass(Vbase
p273
Varmel
p274
tp275
(dp276
g128
(lp277
g130
asVkernel-arch
p278
Varm
p279
ss(Vbuild
p280
g274
tp281
(dp282
Vsigned-modules
p283
I00
sVimage-file
p284
Varch/arm/boot/zImage
p285
ss(Vimage
p286
g274
NVmarvell
p287
tp288
(dp289
Vrecommends
p290
Vu-boot-tools
p291
sVbreaks
p292
Vflash-kernel (<< 3.57~)
p293
sVcheck-size-with-dtb
p294
I01
sVcheck-size
p295
L2097080L
ss(Vdescription
p296
g274
NVmarvell
p297
tp298
(dp299
Vhardware
p300
VMarvell Kirkwood/Orion
p301
sVhardware-long
p302
VMarvell Kirkwood based systems (SheevaPlug, QNAP TS-119/TS-219, etc)\u000aand Orion 5181, 5182 and 5281 based systems (QNAP TS-109/TS-209, etc)
p303
ss(Vrelations
p304
g274
tp305
(dp306
Vheaders%gcc-6
p307
Vlinux-compiler-gcc-6-arm
p308
ss(Vimage
p309
g274
tp310
(dp311
Vinstall-stem
p312
Vvmlinuz
p313
ss(g162
g274
g130
tp314
(dp315
g165
(lp316
Vmarvell
p317
asg169
I01
ss(Vdescription
p318
Varmhf
p319
NVarmmp
p320
tp321
(dp322
Vhardware
p323
VARMv7 multiplatform compatible SoCs
p324
sVhardware-long
p325
VARMv7 multiplatform kernel. See\u000ahttps://wiki.debian.org/DebianKernel/ARMMP for details of supported\u000aplatforms
p326
ss(Vdescription
p327
g319
NVrpi
p328
tp329
(dp330
Vhardware
p331
VRaspberryPI
p332
sVhardware-long
p333
VRaspberry PI
p334
ss(Vdescription
p335
g319
NVarmmp-lpae
p336
tp337
(dp338
Vhardware
p339
VARMv7 multiplatform compatible SoCs supporting LPAE
p340
sVhardware-long
p341
VARMv7 multiplatform kernel supporting LPAE. See\u000ahttps://wiki.debian.org/DebianKernel/ARMMP for details of supported\u000aplatforms.
p342
ss(Vbuild
p343
g319
NVrpi
p344
tp345
(dp346
Vimage-file
p347
Varch/arm/boot/zImagerpdt
p348
ss(Vrelations
p349
g319
tp350
(dp351
Vheaders%gcc-4.9
p352
Vlinux-compiler-gcc-4.9-arm
p353
ss(Vimage
p354
g319
tp355
(dp356
Vinstall-stem
p357
Vvmlinuz
p358
ss(Vbase
p359
g319
tp360
(dp361
g128
(lp362
g130
asVkernel-arch
p363
Varm
p364
ss(Vbuild
p365
g319
tp366
(dp367
Vvdso
p368
I01
sVimage-file
p369
Varch/arm/boot/zImage
p370
ss(Vbuild
p371
g319
NVrpi2
p372
tp373
(dp374
Vimage-file
p375
Varch/arm/boot/zImagerpdt
p376
ss(Vimage
p377
g319
NVrpi2
p378
tp379
(dp380
Vconfigs
p381
(lp382
Varmhf/config.rpix
p383
aVarmhf/config.rpi2
p384
ass(Vimage
p385
g319
NVrpi
p386
tp387
(dp388
Vconfigs
p389
(lp390
Varmhf/config.rpix
p391
aVarmhf/config.rpi
p392
ass(Vdescription
p393
g319
NVrpi2
p394
tp395
(dp396
Vhardware
p397
VRaspberryPI2
p398
sVhardware-long
p399
VRaspberry PI 2
p400
ss(g162
g319
g130
tp401
(dp402
g165
(lp403
Vrpi
p404
aVrpi2
p405
asg169
I01
ss(Vbase
p406
Vhppa
p407
tp408
(dp409
g128
(lp410
g130
asVkernel-arch
p411
Vparisc
p412
ss(Vbuild
p413
g407
tp414
(dp415
Vsigned-modules
p416
I00
sVimage-file
p417
Vvmlinux
p418
ss(Vdescription
p419
g407
NVparisc64-smp
p420
tp421
(dp422
Vhardware
p423
Vmultiprocessor 64-bit PA-RISC
p424
sVhardware-long
p425
VHP PA-RISC 64-bit SMP systems with support for more than 4 GB RAM
p426
ss(Vbase
p427
g407
NVparisc64-smp
p428
tp429
(dp430
Vcflags
p431
V-fno-cse-follow-jumps
p432
sVoverride-host-type
p433
Vhppa64-linux-gnu
p434
ss(Vrelations
p435
g407
tp436
(dp437
Vgcc-6
p438
Vgcc-6 <!stage1 !cross>, binutils-hppa64-linux-gnu <!stage1 !cross>, gcc-6-hppa64-linux-gnu <!stage1 !cross>, gcc-6-hppa-linux-gnu <!stage1 cross>, binutils-hppa64-linux-gnu <!stage1 cross>, gcc-6-hppa64-linux-gnu <!stage1 cross>
p439
ss(Vdescription
p440
g407
NVparisc
p441
tp442
(dp443
Vhardware
p444
V32-bit PA-RISC
p445
sVhardware-long
p446
VHP PA-RISC 32-bit systems with max 4 GB RAM
p447
ss(Vimage
p448
g407
tp449
(dp450
Vsuggests
p451
Vpalo
p452
sVinstall-stem
p453
Vvmlinux
p454
ss(g162
g407
g130
tp455
(dp456
g165
(lp457
Vparisc
p458
aVparisc64-smp
p459
asg169
I01
ss(Vbase
p460
Vi386
p461
tp462
(dp463
Vfeaturesets
p464
(lp465
Vnone
p466
aVrt
p467
asVkernel-arch
p468
Vx86
p469
ss(Vbuild
p470
g461
tp471
(dp472
Vvdso
p473
I01
sVimage-file
p474
Varch/x86/boot/bzImage
p475
ss(Vdescription
p476
g461
NV686-pae
p477
tp478
(dp479
Vhardware
p480
Vmodern PCs
p481
sVhardware-long
p482
VPCs with one or more processors supporting PAE
p483
sVparts
p484
(lp485
Vpae
p486
ass(Vdescription
p487
g461
tp488
(dp489
Vpart-long-pae
p490
VThis kernel requires PAE (Physical Address Extension).\u000aThis feature is supported by the Intel Pentium Pro/II/III/4/4M/D, Xeon,\u000aCore and Atom; AMD Geode NX, Athlon (K7), Duron, Opteron, Sempron,\u000aTurion or Phenom; Transmeta Efficeon; VIA C7; and some other processors.
p491
ss(Vbuild
p492
g461
NV686-pae
p493
tp494
(dp495
Vdebug-info
p496
I01
ss(Vdescription
p497
g461
NV686
p498
tp499
(dp500
Vhardware
p501
Volder PCs
p502
sVhardware-long
p503
VPCs with one or more processors not supporting PAE
p504
ss(Vrelations
p505
g461
tp506
(dp507
Vheaders%gcc-6
p508
Vlinux-compiler-gcc-6-x86
p509
ss(Vimage
p510
g461
tp511
(dp512
Vbreaks
p513
Vxserver-xorg-input-vmmouse (<< 1:13.0.99)
p514
sVinstall-stem
p515
Vvmlinuz
p516
sVbootloaders
p517
(lp518
Vgrub-pc
p519
aVextlinux
p520
ass(Vbase
p521
g461
Vnone
p522
tp523
(dp524
Vflavours
p525
(lp526
V686
p527
aV686-pae
p528
ass(Vdescription
p529
g461
g522
V686-pae
p530
tp531
(dp532
Vparts
p533
(lp534
Vxen
p535
ass(Vbase
p536
g461
Vrt
p537
tp538
(dp539
Vflavours
p540
(lp541
V686-pae
p542
ass(Vbase
p543
Vm68k
p544
tp545
(dp546
Vcflags
p547
V-ffreestanding
p548
sg128
(lp549
g130
asVkernel-arch
p550
Vm68k
p551
ss(Vbuild
p552
g544
tp553
(dp554
Vsigned-modules
p555
I00
sVimage-file
p556
Vvmlinux.gz
p557
ss(Vdescription
p558
g544
NVm68k
p559
tp560
(dp561
Vhardware
p562
VMotorola MC68020+ family
p563
ss(Vimage
p564
g544
tp565
(dp566
Vsuggests
p567
Vvmelilo, fdutils
p568
sVinstall-stem
p569
Vvmlinuz
p570
ss(g162
g544
g130
tp571
(dp572
g165
(lp573
Vm68k
p574
asg169
I01
ss(Vbase
p575
Vmips
p576
tp577
(dp578
g128
(lp579
g130
asVkernel-arch
p580
Vmips
p581
ss(Vbuild
p582
g576
tp583
(dp584
Vsigned-modules
p585
I00
sVimage-file
p586
Vvmlinux
p587
ss(Vimage
p588
g576
NV4kc-malta
p589
tp590
(dp591
Vconfigs
p592
(lp593
Vkernelarch-mips/config.malta
p594
aVkernelarch-mips/config.mips32r2
p595
ass(Vimage
p596
g576
NV5kc-malta
p597
tp598
(dp599
Vconfigs
p600
(lp601
Vkernelarch-mips/config.malta
p602
aVkernelarch-mips/config.mips64r2
p603
ass(Vdescription
p604
g576
NVocteon
p605
tp606
(dp607
Vhardware
p608
VOcteon
p609
sVhardware-long
p610
VCavium Networks Octeon
p611
ss(Vimage
p612
g576
NVocteon
p613
tp614
(dp615
Vconfigs
p616
(lp617
Vkernelarch-mips/config.octeon
p618
ass(Vimage
p619
g576
tp620
(dp621
Vinstall-stem
p622
Vvmlinux
p623
ss(Vdescription
p624
g576
NV5kc-malta
p625
tp626
(dp627
Vhardware
p628
VMIPS Malta (64-bit)
p629
sVhardware-long
p630
VMIPS Malta boards (64-bit)
p631
ss(Vdescription
p632
g576
NV4kc-malta
p633
tp634
(dp635
Vhardware
p636
VMIPS Malta
p637
sVhardware-long
p638
VMIPS Malta boards
p639
ss(g162
g576
g130
tp640
(dp641
g165
(lp642
V4kc-malta
p643
aV5kc-malta
p644
aVocteon
p645
asg169
I01
ss(Vbase
p646
Vmipsel
p647
tp648
(dp649
g128
(lp650
g130
asVkernel-arch
p651
Vmips
p652
ss(Vimage
p653
g647
NVloongson-3
p654
tp655
(dp656
Vconfigs
p657
(lp658
Vkernelarch-mips/config.loongson-3
p659
ass(Vbuild
p660
g647
tp661
(dp662
Vsigned-modules
p663
I00
sVimage-file
p664
Vvmlinux
p665
ss(Vimage
p666
g647
NV4kc-malta
p667
tp668
(dp669
Vconfigs
p670
(lp671
Vkernelarch-mips/config.malta
p672
aVkernelarch-mips/config.mips32r2
p673
ass(Vimage
p674
g647
NV5kc-malta
p675
tp676
(dp677
Vconfigs
p678
(lp679
Vkernelarch-mips/config.malta
p680
aVkernelarch-mips/config.mips64r2
p681
ass(Vdescription
p682
g647
NVocteon
p683
tp684
(dp685
Vhardware
p686
VOcteon
p687
sVhardware-long
p688
VCavium Networks Octeon
p689
ss(Vdescription
p690
g647
NVloongson-3
p691
tp692
(dp693
Vhardware
p694
VLoongson 3A/3B
p695
sVhardware-long
p696
VLoongson 3A or 3B based systems (e.g. from Loongson or Lemote)
p697
ss(Vimage
p698
g647
NVocteon
p699
tp700
(dp701
Vconfigs
p702
(lp703
Vkernelarch-mips/config.octeon
p704
ass(Vimage
p705
g647
tp706
(dp707
Vinstall-stem
p708
Vvmlinux
p709
ss(Vdescription
p710
g647
NV5kc-malta
p711
tp712
(dp713
Vhardware
p714
VMIPS Malta (64-bit)
p715
sVhardware-long
p716
VMIPS Malta boards (64-bit)
p717
ss(Vdescription
p718
g647
NV4kc-malta
p719
tp720
(dp721
Vhardware
p722
VMIPS Malta
p723
sVhardware-long
p724
VMIPS Malta boards
p725
ss(g162
g647
g130
tp726
(dp727
g165
(lp728
V4kc-malta
p729
aV5kc-malta
p730
aVloongson-3
p731
aVocteon
p732
asg169
I01
ss(Vbase
p733
Vmipsn32
p734
tp735
(dp736
Vfeaturesets
p737
(lp738
sVkernel-arch
p739
Vmips
p740
ss(Vbase
p741
Vmipsn32el
p742
tp743
(dp744
Vfeaturesets
p745
(lp746
sVkernel-arch
p747
Vmips
p748
ss(Vbase
p749
Vmips64
p750
tp751
(dp752
g128
(lp753
g130
asVkernel-arch
p754
Vmips
p755
ss(Vbuild
p756
g750
tp757
(dp758
Vsigned-modules
p759
I00
sVimage-file
p760
Vvmlinux
p761
ss(Vimage
p762
g750
NV5kc-malta
p763
tp764
(dp765
Vconfigs
p766
(lp767
Vkernelarch-mips/config.malta
p768
aVkernelarch-mips/config.mips64r2
p769
ass(Vdescription
p770
g750
NVocteon
p771
tp772
(dp773
Vhardware
p774
VOcteon
p775
sVhardware-long
p776
VCavium Networks Octeon
p777
ss(Vimage
p778
g750
tp779
(dp780
Vinstall-stem
p781
Vvmlinux
p782
ss(Vdescription
p783
g750
NV5kc-malta
p784
tp785
(dp786
Vhardware
p787
VMIPS Malta
p788
sVhardware-long
p789
VMIPS Malta boards
p790
ss(Vimage
p791
g750
NVocteon
p792
tp793
(dp794
Vconfigs
p795
(lp796
Vkernelarch-mips/config.octeon
p797
ass(g162
g750
g130
tp798
(dp799
g165
(lp800
V5kc-malta
p801
aVocteon
p802
asg169
I01
ss(Vbase
p803
Vmips64el
p804
tp805
(dp806
g128
(lp807
g130
asVkernel-arch
p808
Vmips
p809
ss(Vimage
p810
g804
NVloongson-3
p811
tp812
(dp813
Vconfigs
p814
(lp815
Vkernelarch-mips/config.loongson-3
p816
ass(Vbuild
p817
g804
tp818
(dp819
Vsigned-modules
p820
I00
sVimage-file
p821
Vvmlinux
p822
ss(Vimage
p823
g804
NV5kc-malta
p824
tp825
(dp826
Vconfigs
p827
(lp828
Vkernelarch-mips/config.malta
p829
aVkernelarch-mips/config.mips64r2
p830
ass(Vdescription
p831
g804
NVocteon
p832
tp833
(dp834
Vhardware
p835
VOcteon
p836
sVhardware-long
p837
VCavium Networks Octeon
p838
ss(Vdescription
p839
g804
NVloongson-3
p840
tp841
(dp842
Vhardware
p843
VLoongson 3A/3B
p844
sVhardware-long
p845
VLoongson 3A or 3B based systems (e.g. from Loongson or Lemote)
p846
ss(Vimage
p847
g804
tp848
(dp849
Vinstall-stem
p850
Vvmlinux
p851
ss(Vdescription
p852
g804
NV5kc-malta
p853
tp854
(dp855
Vhardware
p856
VMIPS Malta
p857
sVhardware-long
p858
VMIPS Malta boards
p859
ss(Vimage
p860
g804
NVocteon
p861
tp862
(dp863
Vconfigs
p864
(lp865
Vkernelarch-mips/config.octeon
p866
ass(g162
g804
g130
tp867
(dp868
g165
(lp869
V5kc-malta
p870
aVloongson-3
p871
aVocteon
p872
asg169
I01
ss(Vbase
p873
Vpowerpc
p874
tp875
(dp876
g128
(lp877
g130
asVkernel-arch
p878
Vpowerpc
p879
ss(Vdescription
p880
g874
NVpowerpc64
p881
tp882
(dp883
Vhardware
p884
V64-bit PowerPC
p885
ss(Vbuild
p886
g874
tp887
(dp888
Vvdso
p889
I01
sVimage-file
p890
Vvmlinux
p891
ss(Vimage
p892
g874
NVpowerpc-smp
p893
tp894
(dp895
Vconfigs
p896
(lp897
Vpowerpc/config.powerpc
p898
aVpowerpc/config.powerpc-smp
p899
ass(Vdescription
p900
g874
NVpowerpc
p901
tp902
(dp903
Vhardware
p904
Vuniprocessor 32-bit PowerPC
p905
ss(Vimage
p906
g874
NVpowerpc64
p907
tp908
(dp909
Vconfigs
p910
(lp911
Vkernelarch-powerpc/config-arch-64
p912
aVkernelarch-powerpc/config-arch-64-be
p913
ass(Vdescription
p914
g874
NVpowerpc-smp
p915
tp916
(dp917
Vhardware
p918
Vmultiprocessor 32-bit PowerPC
p919
ss(Vimage
p920
g874
tp921
(dp922
Vsuggests
p923
Vmkvmlinuz
p924
sVinstall-stem
p925
Vvmlinux
p926
sVconfigs
p927
(lp928
ss(g162
g874
g130
tp929
(dp930
g165
(lp931
Vpowerpc
p932
aVpowerpc-smp
p933
aVpowerpc64
p934
asg169
I01
ss(Vbase
p935
Vpowerpcspe
p936
tp937
(dp938
g128
(lp939
g130
asVkernel-arch
p940
Vpowerpc
p941
ss(Vbuild
p942
g936
tp943
(dp944
Vsigned-modules
p945
I00
sVimage-file
p946
Vvmlinux
p947
sVvdso
p948
I01
ss(Vimage
p949
g936
tp950
(dp951
Vsuggests
p952
Vmkvmlinuz
p953
sVinstall-stem
p954
Vvmlinux
p955
ss(Vdescription
p956
g936
tp957
(dp958
Vhardware
p959
V32-bit PowerPC with SPE (instead of AltiVec) with SMP support
p960
ss(g162
g936
g130
tp961
(dp962
g165
(lp963
Vpowerpcspe
p964
asg169
I01
ss(Vbase
p965
Vppc64
p966
tp967
(dp968
g128
(lp969
g130
asVkernel-arch
p970
Vpowerpc
p971
ss(Vdescription
p972
g966
NVpowerpc64
p973
tp974
(dp975
Vhardware
p976
V64-bit PowerPC
p977
ss(Vbuild
p978
g966
tp979
(dp980
Vsigned-modules
p981
I00
sVimage-file
p982
Vvmlinux
p983
sVvdso
p984
I01
ss(Vimage
p985
g966
NVpowerpc64
p986
tp987
(dp988
Vconfigs
p989
(lp990
Vkernelarch-powerpc/config-arch-64
p991
aVkernelarch-powerpc/config-arch-64-be
p992
ass(Vimage
p993
g966
tp994
(dp995
Vsuggests
p996
Vmkvmlinuz
p997
sVinstall-stem
p998
Vvmlinux
p999
sVconfigs
p1000
(lp1001
ss(g162
g966
g130
tp1002
(dp1003
g165
(lp1004
Vpowerpc64
p1005
asg169
I01
ss(Vbase
p1006
Vppc64el
p1007
tp1008
(dp1009
g128
(lp1010
g130
asVkernel-arch
p1011
Vpowerpc
p1012
ss(Vdescription
p1013
g1007
NVpowerpc64le
p1014
tp1015
(dp1016
Vhardware
p1017
VLittle-endian 64-bit PowerPC
p1018
ss(Vbuild
p1019
g1007
tp1020
(dp1021
Vvdso
p1022
I01
sVimage-file
p1023
Vvmlinux
p1024
ss(Vimage
p1025
g1007
tp1026
(dp1027
Vsuggests
p1028
Vmkvmlinuz
p1029
sVinstall-stem
p1030
Vvmlinux
p1031
sVconfigs
p1032
(lp1033
ss(Vimage
p1034
g1007
NVpowerpc64le
p1035
tp1036
(dp1037
Vconfigs
p1038
(lp1039
Vkernelarch-powerpc/config-arch-64
p1040
aVkernelarch-powerpc/config-arch-64-le
p1041
ass(g162
g1007
g130
tp1042
(dp1043
g165
(lp1044
Vpowerpc64le
p1045
asg169
I01
ss(Vbase
p1046
Vs390
p1047
tp1048
(dp1049
Vfeaturesets
p1050
(lp1051
sVkernel-arch
p1052
Vs390
p1053
ss(Vbase
p1054
Vs390x
p1055
tp1056
(dp1057
g128
(lp1058
g130
asVkernel-arch
p1059
Vs390
p1060
ss(Vdescription
p1061
g1055
NVs390x
p1062
tp1063
(dp1064
Vhardware
p1065
VIBM zSeries
p1066
ss(Vbuild
p1067
g1055
tp1068
(dp1069
Vvdso
p1070
I01
sVimage-file
p1071
Varch/s390/boot/image
p1072
ss(Vbuild
p1073
g1055
NVs390x
p1074
tp1075
(dp1076
Vdebug-info
p1077
I01
ss(Vrelations
p1078
g1055
tp1079
(dp1080
Vheaders%gcc-6
p1081
Vlinux-compiler-gcc-6-s390
p1082
ss(Vimage
p1083
g1055
tp1084
(dp1085
Vinstall-stem
p1086
Vvmlinuz
p1087
sVbootloaders
p1088
(lp1089
Vs390-tools
p1090
ass(g162
g1055
g130
tp1091
(dp1092
g165
(lp1093
Vs390x
p1094
asg169
I01
ss(Vbase
p1095
Vsh3
p1096
tp1097
(dp1098
Vfeaturesets
p1099
(lp1100
sVkernel-arch
p1101
Vsh
p1102
ss(Vbase
p1103
Vsh4
p1104
tp1105
(dp1106
g128
(lp1107
g130
asVkernel-arch
p1108
Vsh
p1109
ss(Vbuild
p1110
g1104
tp1111
(dp1112
Vsigned-modules
p1113
I00
sVimage-file
p1114
Varch/sh/boot/zImage
p1115
ss(Vdescription
p1116
g1104
NVsh7751r
p1117
tp1118
(dp1119
Vhardware
p1120
Vsh7751r
p1121
sVhardware-long
p1122
VRenesas SH7751R R2D plus board
p1123
ss(Vdescription
p1124
g1104
NVsh7785lcr
p1125
tp1126
(dp1127
Vhardware
p1128
Vsh7785lcr
p1129
sVhardware-long
p1130
VRenesas SH7785 reference board
p1131
ss(Vimage
p1132
g1104
tp1133
(dp1134
Vinstall-stem
p1135
Vvmlinuz
p1136
ss(Vimage
p1137
g1104
NVsh7785lcr
p1138
tp1139
(dp1140
Vrecommends
p1141
Vu-boot-tools
p1142
sVcheck-size
p1143
L4194304L
ss(g162
g1104
g130
tp1144
(dp1145
g165
(lp1146
Vsh7751r
p1147
aVsh7785lcr
p1148
asg169
I01
ss(Vbase
p1149
Vsparc
p1150
tp1151
(dp1152
Vfeaturesets
p1153
(lp1154
sVkernel-arch
p1155
Vsparc
p1156
ss(Vbase
p1157
Vsparc64
p1158
tp1159
(dp1160
g128
(lp1161
g130
asVkernel-arch
p1162
Vsparc
p1163
ss(Vbuild
p1164
g1158
tp1165
(dp1166
Vsigned-modules
p1167
I00
sVimage-file
p1168
Varch/sparc/boot/zImage
p1169
ss(Vimage
p1170
g1158
NVsparc64
p1171
tp1172
(dp1173
Vconfigs
p1174
(lp1175
Vkernelarch-sparc/config-up
p1176
ass(Vimage
p1177
g1158
NVsparc64-smp
p1178
tp1179
(dp1180
Vconfigs
p1181
(lp1182
Vkernelarch-sparc/config-smp
p1183
ass(Vimage
p1184
g1158
tp1185
(dp1186
Vsuggests
p1187
Vsilo, fdutils
p1188
sVinstall-stem
p1189
Vvmlinuz
p1190
sVconfigs
p1191
(lp1192
ss(Vdescription
p1193
g1158
NVsparc64-smp
p1194
tp1195
(dp1196
Vhardware
p1197
Vmultiprocessor 64-bit UltraSPARC
p1198
ss(Vdescription
p1199
g1158
NVsparc64
p1200
tp1201
(dp1202
Vhardware
p1203
Vuniprocessor 64-bit UltraSPARC
p1204
ss(g162
g1158
g130
tp1205
(dp1206
g165
(lp1207
Vsparc64
p1208
aVsparc64-smp
p1209
asg169
I01
ss(Vbase
p1210
Vtilegx
p1211
tp1212
(dp1213
Vfeaturesets
p1214
(lp1215
sVkernel-arch
p1216
Vtile
p1217
ss(Vbase
p1218
Vx32
p1219
tp1220
(dp1221
Vfeaturesets
p1222
(lp1223
sVkernel-arch
p1224
Vx86
p1225
ss(Vdescription
p1226
NVrt
p1227
tp1228
(dp1229
Vparts
p1230
(lp1231
Vrt
p1232
asVpart-long-rt
p1233
VThis kernel includes the PREEMPT_RT realtime patch set.
p1234
sVpart-short-rt
p1235
VPREEMPT_RT
p1236
ss(Vabi
p1237
Ng1227
tp1238
(dp1239
Vignore-changes
p1240
(lp1241
V*
p1242
ass(Vversion
p1243
tp1244
(dp1245
Vupstream
p1246
V4.9
p1247
sVsource
p1248
V4.9.51-1+rpi1~jessie
p1249
sVabiname
p1250
V4.9.0-4
p1251
sVabiname_base
p1252
V4.9.0
p1253
ss.