cdebian_linux.config
ConfigCore
p0
(tRp1
(Vabi
p2
tp3
(dp4
Vabiname
p5
V5
p6
sVignore-changes
p7
(lp8
V__cpuhp_*
p9
aVbpf_analyzer
p10
aVcxl_*
p11
aVcpu_tlbstate
p12
aVinet_frag_*
p13
aVinet_frags_*
p14
aVmm_iommu_*
p15
aVmv_mbus_*
p16
aVregister_cxl_calls
p17
aVregister_key_type
p18
aVtcp_cong_avoid_ai
p19
aVtcp_slow_start
p20
aVunregister_cxl_calls
p21
aVmodule:arch/x86/kvm/*
p22
aVmodule:drivers/crypto/ccp/*
p23
aVmodule:drivers/hv/*
p24
aVmodule:drivers/iio/common/hid-sensors/*
p25
aVmodule:drivers/iio/common/st_sensors/**
p26
aVmodule:drivers/md/dm-*
p27
aVmodule:drivers/net/wireless/**
p28
aVmodule:drivers/nvdimm/*
p29
aVmodule:drivers/nvme/target/*
p30
aVmodule:drivers/power/supply/bq27xxx_battery
p31
aVmodule:drivers/s390/net/qeth
p32
aVmodule:drivers/s390/net/qeth*
p33
aVmodule:drivers/scsi/cxgbi/*
p34
aVmodule:drivers/scsi/libiscs*
p35
aVmodule:drivers/scsi/libsas/*
p36
aVmodule:drivers/scsi/hisi_sas/*
p37
aVmodule:drivers/scsi/qla2xxx/qla2xxx
p38
aVmodule:drivers/scsi/ufs/*
p39
aVmodule:drivers/target/**
p40
aVmodule:drivers/usb/chipidea/**
p41
aVmodule:drivers/usb/gadget/**
p42
aVmodule:drivers/usb/host/**
p43
aVmodule:drivers/usb/musb/**
p44
aVmodule:drivers/usb/usbip/*
p45
aVmodule:fs/nfs/nfs
p46
aVmodule:net/ceph/libceph
p47
aVmodule:net/ipv4/inet_diag
p48
aVmodule:net/l2tp/**
p49
aVmodule:net/sctp/*
p50
aVmodule:net/vmw_vsock/*
p51
aVmodule:sound/firewire/snd-firewire-lib
p52
aVbtree_*
p53
aVvisitor*
p54
aVcan_rx_register
p55
aVip6_xmit
p56
aVmodule:net/dccp/dccp
p57
aVmodule:net/rds/rds
p58
aVdevfreq_*
p59
aVdevm_devfreq_*
p60
aVupdate_devfreq
p61
aVmodule:drivers/infiniband/**
p62
aVacpi_ec_add_query_handler
p63
aVacpi_ec_remove_query_handler
p64
aVfirst_ec
p65
aVdebugfs_create_automount
p66
ass(Vbase
p67
tp68
(dp69
Varches
p70
(lp71
Valpha
p72
aVamd64
p73
aVarm64
p74
aVarmel
p75
aVarmhf
p76
aVhppa
p77
aVi386
p78
aVm68k
p79
aVmips
p80
aVmipsel
p81
aVmipsn32
p82
aVmipsn32el
p83
aVmips64
p84
aVmips64el
p85
aVpowerpc
p86
aVpowerpcspe
p87
aVppc64
p88
aVppc64el
p89
aVs390
p90
aVs390x
p91
aVsh3
p92
aVsh4
p93
aVsparc
p94
aVsparc64
p95
aVtilegx
p96
aVx32
p97
asVcompiler
p98
Vgcc-6
p99
sVfeaturesets
p100
(lp101
Vnone
p102
aVrt
p103
ass(Vbuild
p104
tp105
(dp106
Vdebug-info
p107
I01
sVsigned-modules
p108
I00
ss(Vbase
p109
NVrt
p110
tp111
(dp112
Venabled
p113
I01
ss(Vdescription
p114
tp115
(dp116
Vpart-long-up
p117
VThis kernel is not suitable for SMP (multi-processor,\u000amulti-core or hyper-threaded) systems.
p118
sVpart-long-xen
p119
VThis kernel also runs on a Xen hypervisor.\u000aIt supports both privileged (dom0) and unprivileged (domU) operation.
p120
ss(Vimage
p121
tp122
(dp123
Vinitramfs-generators
p124
(lp125
Vinitramfs-tools
p126
aVinitramfs-fallback
p127
ass(Vrelations
p128
tp129
(dp130
Vgcc-6
p131
Vgcc-6 <!stage1 !cross>, gcc-6-@gnu-type-package@ <!stage1 cross>
p132
sVinitramfs-fallback
p133
Vlinux-initramfs-tool
p134
sVinitramfs-tools
p135
Vinitramfs-tools (>= 0.120+deb8u2)
p136
ss(Vbase
p137
Valpha
p138
tp139
(dp140
Vkernel-arch
p141
Valpha
p142
sVfeaturesets
p143
(lp144
Vnone
p145
ass(Vbuild
p146
g138
tp147
(dp148
Vimage-file
p149
Varch/alpha/boot/vmlinux.gz
p150
sVsigned-modules
p151
I00
ss(Vimage
p152
g138
tp153
(dp154
Vsuggests
p155
Vaboot, fdutils
p156
sVinstall-stem
p157
Vvmlinuz
p158
ss(Vdescription
p159
g138
NValpha-generic
p160
tp161
(dp162
Vhardware
p163
VAlpha
p164
sVhardware-long
p165
VDEC Alpha systems with extended kernel start address (Wildfire, Titan, Marvel)
p166
ss(Vdescription
p167
g138
NValpha-smp
p168
tp169
(dp170
Vhardware
p171
VAlpha SMP
p172
sVhardware-long
p173
VDEC Alpha SMP systems with extended kernel start address (Wildfire, Titan, Marvel)
p174
ss(Vbase
p175
g138
g145
tp176
(dp177
Vflavours
p178
(lp179
Valpha-generic
p180
aValpha-smp
p181
asVimplicit-flavour
p182
I01
ss(Vbase
p183
Vamd64
p184
tp185
(dp186
Vfeaturesets
p187
(lp188
Vnone
p189
aVrt
p190
asVkernel-arch
p191
Vx86
p192
ss(Vbuild
p193
g184
tp194
(dp195
Vdebug-info
p196
I01
sVimage-file
p197
Varch/x86/boot/bzImage
p198
sVvdso
p199
I01
ss(Vimage
p200
g184
tp201
(dp202
Vbootloaders
p203
(lp204
Vgrub-pc
p205
aVgrub-efi-amd64
p206
aVextlinux
p207
asVinstall-stem
p208
Vvmlinuz
p209
sVbreaks
p210
Vxserver-xorg-input-vmmouse (<< 1:13.0.99)
p211
ss(Vrelations
p212
g184
tp213
(dp214
Vheaders%gcc-6
p215
Vlinux-compiler-gcc-6-x86
p216
ss(Vdescription
p217
g184
NVamd64
p218
tp219
(dp220
Vhardware
p221
V64-bit PCs
p222
sVhardware-long
p223
VPCs with AMD64, Intel 64 or VIA Nano processors
p224
ss(Vbase
p225
g184
Vnone
p226
tp227
(dp228
Vflavours
p229
(lp230
Vamd64
p231
ass(Vdescription
p232
g184
g226
Vamd64
p233
tp234
(dp235
Vparts
p236
(lp237
Vxen
p238
ass(Vbase
p239
g184
Vrt
p240
tp241
(dp242
Vflavours
p243
(lp244
Vamd64
p245
ass(Vbase
p246
Varm64
p247
tp248
(dp249
Vkernel-arch
p250
Varm64
p251
sVfeaturesets
p252
(lp253
Vnone
p254
ass(Vbuild
p255
g247
tp256
(dp257
Vdebug-info
p258
I01
sVimage-file
p259
Varch/arm64/boot/Image
p260
sVvdso
p261
I01
ss(Vimage
p262
g247
tp263
(dp264
Vinstall-stem
p265
Vvmlinuz
p266
sVbreaks
p267
Vlibmozjs185-1.0, libmozjs-24-0 (<< 24.2.0-5.1~)
p268
ss(Vdescription
p269
g247
NVarm64
p270
tp271
(dp272
Vhardware
p273
V64-bit ARMv8 machines
p274
ss(Vimage
p275
g247
NVarm64
p276
tp277
(dp278
s(Vbase
p279
g247
Vnone
p280
tp281
(dp282
Vflavours
p283
(lp284
Varm64
p285
ass(Vbase
p286
Varmel
p287
tp288
(dp289
Vkernel-arch
p290
Varm
p291
sg143
(lp292
g145
ass(Vbuild
p293
g287
tp294
(dp295
Vimage-file
p296
Varch/arm/boot/zImage
p297
sVsigned-modules
p298
I00
ss(Vimage
p299
g287
tp300
(dp301
Vinstall-stem
p302
Vvmlinuz
p303
ss(Vrelations
p304
g287
tp305
(dp306
Vheaders%gcc-6
p307
Vlinux-compiler-gcc-6-arm
p308
ss(Vdescription
p309
g287
NVmarvell
p310
tp311
(dp312
Vhardware
p313
VMarvell Kirkwood/Orion
p314
sVhardware-long
p315
VMarvell Kirkwood based systems (SheevaPlug, QNAP TS-119/TS-219, etc)\u000aand Orion 5181, 5182 and 5281 based systems (QNAP TS-109/TS-209, etc)
p316
ss(Vimage
p317
g287
NVmarvell
p318
tp319
(dp320
Vrecommends
p321
Vu-boot-tools
p322
sVcheck-size
p323
L2097080L
sVcheck-size-with-dtb
p324
I01
sVbreaks
p325
Vflash-kernel (<< 3.57~)
p326
ss(g175
g287
g145
tp327
(dp328
g178
(lp329
Vmarvell
p330
asg182
I01
ss(Vbase
p331
Varmhf
p332
tp333
(dp334
Vkernel-arch
p335
Varm
p336
sg143
(lp337
g145
ass(Vbuild
p338
g332
tp339
(dp340
Vimage-file
p341
Varch/arm/boot/zImage
p342
sVvdso
p343
I01
ss(Vimage
p344
g332
tp345
(dp346
Vinstall-stem
p347
Vvmlinuz
p348
ss(Vrelations
p349
g332
tp350
(dp351
Vheaders%gcc-6
p352
Vlinux-compiler-gcc-6-arm
p353
ss(Vdescription
p354
g332
NVarmmp
p355
tp356
(dp357
Vhardware
p358
VARMv7 multiplatform compatible SoCs
p359
sVhardware-long
p360
VARMv7 multiplatform kernel. See\u000ahttps://wiki.debian.org/DebianKernel/ARMMP for details of supported\u000aplatforms
p361
ss(Vdescription
p362
g332
NVarmmp-lpae
p363
tp364
(dp365
Vhardware
p366
VARMv7 multiplatform compatible SoCs supporting LPAE
p367
sVhardware-long
p368
VARMv7 multiplatform kernel supporting LPAE. See\u000ahttps://wiki.debian.org/DebianKernel/ARMMP for details of supported\u000aplatforms.
p369
ss(g175
g332
g145
tp370
(dp371
g178
(lp372
Varmmp
p373
aVarmmp-lpae
p374
asg182
I01
ss(Vbase
p375
Vhppa
p376
tp377
(dp378
Vkernel-arch
p379
Vparisc
p380
sg143
(lp381
g145
ass(Vbuild
p382
g376
tp383
(dp384
Vimage-file
p385
Vvmlinux
p386
sVsigned-modules
p387
I00
ss(Vimage
p388
g376
tp389
(dp390
Vsuggests
p391
Vpalo
p392
sVinstall-stem
p393
Vvmlinux
p394
ss(Vdescription
p395
g376
NVparisc
p396
tp397
(dp398
Vhardware
p399
V32-bit PA-RISC
p400
sVhardware-long
p401
VHP PA-RISC 32-bit systems with max 4 GB RAM
p402
ss(Vbase
p403
g376
NVparisc64-smp
p404
tp405
(dp406
Vcflags
p407
V-fno-cse-follow-jumps
p408
sVoverride-host-type
p409
Vhppa64-linux-gnu
p410
ss(Vdescription
p411
g376
NVparisc64-smp
p412
tp413
(dp414
Vhardware
p415
Vmultiprocessor 64-bit PA-RISC
p416
sVhardware-long
p417
VHP PA-RISC 64-bit SMP systems with support for more than 4 GB RAM
p418
ss(Vrelations
p419
g376
tp420
(dp421
Vgcc-6
p422
Vgcc-6 <!stage1 !cross>, binutils-hppa64-linux-gnu <!stage1 !cross>, gcc-6-hppa64-linux-gnu <!stage1 !cross>, gcc-6-hppa-linux-gnu <!stage1 cross>, binutils-hppa64-linux-gnu <!stage1 cross>, gcc-6-hppa64-linux-gnu <!stage1 cross>
p423
ss(g175
g376
g145
tp424
(dp425
g178
(lp426
Vparisc
p427
aVparisc64-smp
p428
asg182
I01
ss(Vbase
p429
Vi386
p430
tp431
(dp432
Vfeaturesets
p433
(lp434
Vnone
p435
aVrt
p436
asVkernel-arch
p437
Vx86
p438
ss(Vbuild
p439
g430
tp440
(dp441
Vimage-file
p442
Varch/x86/boot/bzImage
p443
sVvdso
p444
I01
ss(Vdescription
p445
g430
tp446
(dp447
Vpart-long-pae
p448
VThis kernel requires PAE (Physical Address Extension).\u000aThis feature is supported by the Intel Pentium Pro/II/III/4/4M/D, Xeon,\u000aCore and Atom; AMD Geode NX, Athlon (K7), Duron, Opteron, Sempron,\u000aTurion or Phenom; Transmeta Efficeon; VIA C7; and some other processors.
p449
ss(Vimage
p450
g430
tp451
(dp452
Vbootloaders
p453
(lp454
Vgrub-pc
p455
aVextlinux
p456
asVinstall-stem
p457
Vvmlinuz
p458
sVbreaks
p459
Vxserver-xorg-input-vmmouse (<< 1:13.0.99)
p460
ss(Vrelations
p461
g430
tp462
(dp463
Vheaders%gcc-6
p464
Vlinux-compiler-gcc-6-x86
p465
ss(Vdescription
p466
g430
NV686
p467
tp468
(dp469
Vhardware
p470
Volder PCs
p471
sVhardware-long
p472
VPCs with one or more processors not supporting PAE
p473
ss(Vbuild
p474
g430
NV686-pae
p475
tp476
(dp477
Vdebug-info
p478
I01
ss(Vdescription
p479
g430
NV686-pae
p480
tp481
(dp482
Vhardware
p483
Vmodern PCs
p484
sVhardware-long
p485
VPCs with one or more processors supporting PAE
p486
sVparts
p487
(lp488
Vpae
p489
ass(Vbase
p490
g430
Vnone
p491
tp492
(dp493
Vflavours
p494
(lp495
V686
p496
aV686-pae
p497
ass(Vdescription
p498
g430
g491
V686-pae
p499
tp500
(dp501
Vparts
p502
(lp503
Vxen
p504
ass(Vbase
p505
g430
Vrt
p506
tp507
(dp508
Vflavours
p509
(lp510
V686-pae
p511
ass(Vbase
p512
Vm68k
p513
tp514
(dp515
Vcflags
p516
V-ffreestanding
p517
sVkernel-arch
p518
Vm68k
p519
sg143
(lp520
g145
ass(Vbuild
p521
g513
tp522
(dp523
Vimage-file
p524
Vvmlinux.gz
p525
sVsigned-modules
p526
I00
ss(Vimage
p527
g513
tp528
(dp529
Vsuggests
p530
Vvmelilo, fdutils
p531
sVinstall-stem
p532
Vvmlinuz
p533
ss(Vdescription
p534
g513
NVm68k
p535
tp536
(dp537
Vhardware
p538
VMotorola MC68020+ family
p539
ss(g175
g513
g145
tp540
(dp541
g178
(lp542
Vm68k
p543
asg182
I01
ss(Vbase
p544
Vmips
p545
tp546
(dp547
Vkernel-arch
p548
Vmips
p549
sg143
(lp550
g145
ass(Vbuild
p551
g545
tp552
(dp553
Vimage-file
p554
Vvmlinux
p555
sVsigned-modules
p556
I00
ss(Vimage
p557
g545
tp558
(dp559
Vinstall-stem
p560
Vvmlinux
p561
ss(Vdescription
p562
g545
NV4kc-malta
p563
tp564
(dp565
Vhardware
p566
VMIPS Malta
p567
sVhardware-long
p568
VMIPS Malta boards
p569
ss(Vimage
p570
g545
NV4kc-malta
p571
tp572
(dp573
Vconfigs
p574
(lp575
Vkernelarch-mips/config.malta
p576
aVkernelarch-mips/config.mips32r2
p577
ass(Vdescription
p578
g545
NV5kc-malta
p579
tp580
(dp581
Vhardware
p582
VMIPS Malta (64-bit)
p583
sVhardware-long
p584
VMIPS Malta boards (64-bit)
p585
ss(Vimage
p586
g545
NV5kc-malta
p587
tp588
(dp589
Vconfigs
p590
(lp591
Vkernelarch-mips/config.malta
p592
aVkernelarch-mips/config.mips64r2
p593
ass(Vdescription
p594
g545
NVocteon
p595
tp596
(dp597
Vhardware
p598
VOcteon
p599
sVhardware-long
p600
VCavium Networks Octeon
p601
ss(Vimage
p602
g545
NVocteon
p603
tp604
(dp605
Vconfigs
p606
(lp607
Vkernelarch-mips/config.octeon
p608
ass(g175
g545
g145
tp609
(dp610
g178
(lp611
V4kc-malta
p612
aV5kc-malta
p613
aVocteon
p614
asg182
I01
ss(Vbase
p615
Vmipsel
p616
tp617
(dp618
Vkernel-arch
p619
Vmips
p620
sg143
(lp621
g145
ass(Vbuild
p622
g616
tp623
(dp624
Vimage-file
p625
Vvmlinux
p626
sVsigned-modules
p627
I00
ss(Vimage
p628
g616
tp629
(dp630
Vinstall-stem
p631
Vvmlinux
p632
ss(Vdescription
p633
g616
NV4kc-malta
p634
tp635
(dp636
Vhardware
p637
VMIPS Malta
p638
sVhardware-long
p639
VMIPS Malta boards
p640
ss(Vimage
p641
g616
NV4kc-malta
p642
tp643
(dp644
Vconfigs
p645
(lp646
Vkernelarch-mips/config.malta
p647
aVkernelarch-mips/config.mips32r2
p648
ass(Vdescription
p649
g616
NV5kc-malta
p650
tp651
(dp652
Vhardware
p653
VMIPS Malta (64-bit)
p654
sVhardware-long
p655
VMIPS Malta boards (64-bit)
p656
ss(Vimage
p657
g616
NV5kc-malta
p658
tp659
(dp660
Vconfigs
p661
(lp662
Vkernelarch-mips/config.malta
p663
aVkernelarch-mips/config.mips64r2
p664
ass(Vdescription
p665
g616
NVloongson-3
p666
tp667
(dp668
Vhardware
p669
VLoongson 3A/3B
p670
sVhardware-long
p671
VLoongson 3A or 3B based systems (e.g. from Loongson or Lemote)
p672
ss(Vimage
p673
g616
NVloongson-3
p674
tp675
(dp676
Vconfigs
p677
(lp678
Vkernelarch-mips/config.loongson-3
p679
ass(Vdescription
p680
g616
NVocteon
p681
tp682
(dp683
Vhardware
p684
VOcteon
p685
sVhardware-long
p686
VCavium Networks Octeon
p687
ss(Vimage
p688
g616
NVocteon
p689
tp690
(dp691
Vconfigs
p692
(lp693
Vkernelarch-mips/config.octeon
p694
ass(g175
g616
g145
tp695
(dp696
g178
(lp697
V4kc-malta
p698
aV5kc-malta
p699
aVloongson-3
p700
aVocteon
p701
asg182
I01
ss(Vbase
p702
Vmipsn32
p703
tp704
(dp705
Vkernel-arch
p706
Vmips
p707
sVfeaturesets
p708
(lp709
ss(Vbase
p710
Vmipsn32el
p711
tp712
(dp713
Vkernel-arch
p714
Vmips
p715
sVfeaturesets
p716
(lp717
ss(Vbase
p718
Vmips64
p719
tp720
(dp721
Vkernel-arch
p722
Vmips
p723
sg143
(lp724
g145
ass(Vbuild
p725
g719
tp726
(dp727
Vimage-file
p728
Vvmlinux
p729
sVsigned-modules
p730
I00
ss(Vimage
p731
g719
tp732
(dp733
Vinstall-stem
p734
Vvmlinux
p735
ss(Vdescription
p736
g719
NV5kc-malta
p737
tp738
(dp739
Vhardware
p740
VMIPS Malta
p741
sVhardware-long
p742
VMIPS Malta boards
p743
ss(Vimage
p744
g719
NV5kc-malta
p745
tp746
(dp747
Vconfigs
p748
(lp749
Vkernelarch-mips/config.malta
p750
aVkernelarch-mips/config.mips64r2
p751
ass(Vdescription
p752
g719
NVocteon
p753
tp754
(dp755
Vhardware
p756
VOcteon
p757
sVhardware-long
p758
VCavium Networks Octeon
p759
ss(Vimage
p760
g719
NVocteon
p761
tp762
(dp763
Vconfigs
p764
(lp765
Vkernelarch-mips/config.octeon
p766
ass(g175
g719
g145
tp767
(dp768
g178
(lp769
V5kc-malta
p770
aVocteon
p771
asg182
I01
ss(Vbase
p772
Vmips64el
p773
tp774
(dp775
Vkernel-arch
p776
Vmips
p777
sg143
(lp778
g145
ass(Vbuild
p779
g773
tp780
(dp781
Vimage-file
p782
Vvmlinux
p783
sVsigned-modules
p784
I00
ss(Vimage
p785
g773
tp786
(dp787
Vinstall-stem
p788
Vvmlinux
p789
ss(Vdescription
p790
g773
NV5kc-malta
p791
tp792
(dp793
Vhardware
p794
VMIPS Malta
p795
sVhardware-long
p796
VMIPS Malta boards
p797
ss(Vimage
p798
g773
NV5kc-malta
p799
tp800
(dp801
Vconfigs
p802
(lp803
Vkernelarch-mips/config.malta
p804
aVkernelarch-mips/config.mips64r2
p805
ass(Vdescription
p806
g773
NVloongson-3
p807
tp808
(dp809
Vhardware
p810
VLoongson 3A/3B
p811
sVhardware-long
p812
VLoongson 3A or 3B based systems (e.g. from Loongson or Lemote)
p813
ss(Vimage
p814
g773
NVloongson-3
p815
tp816
(dp817
Vconfigs
p818
(lp819
Vkernelarch-mips/config.loongson-3
p820
ass(Vdescription
p821
g773
NVocteon
p822
tp823
(dp824
Vhardware
p825
VOcteon
p826
sVhardware-long
p827
VCavium Networks Octeon
p828
ss(Vimage
p829
g773
NVocteon
p830
tp831
(dp832
Vconfigs
p833
(lp834
Vkernelarch-mips/config.octeon
p835
ass(g175
g773
g145
tp836
(dp837
g178
(lp838
V5kc-malta
p839
aVloongson-3
p840
aVocteon
p841
asg182
I01
ss(Vbase
p842
Vpowerpc
p843
tp844
(dp845
Vkernel-arch
p846
Vpowerpc
p847
sg143
(lp848
g145
ass(Vbuild
p849
g843
tp850
(dp851
Vimage-file
p852
Vvmlinux
p853
sVvdso
p854
I01
ss(Vimage
p855
g843
tp856
(dp857
Vconfigs
p858
(lp859
sVsuggests
p860
Vmkvmlinuz
p861
sVinstall-stem
p862
Vvmlinux
p863
ss(Vdescription
p864
g843
NVpowerpc
p865
tp866
(dp867
Vhardware
p868
Vuniprocessor 32-bit PowerPC
p869
ss(Vdescription
p870
g843
NVpowerpc-smp
p871
tp872
(dp873
Vhardware
p874
Vmultiprocessor 32-bit PowerPC
p875
ss(Vimage
p876
g843
NVpowerpc-smp
p877
tp878
(dp879
Vconfigs
p880
(lp881
Vpowerpc/config.powerpc
p882
aVpowerpc/config.powerpc-smp
p883
ass(Vdescription
p884
g843
NVpowerpc64
p885
tp886
(dp887
Vhardware
p888
V64-bit PowerPC
p889
ss(Vimage
p890
g843
NVpowerpc64
p891
tp892
(dp893
Vconfigs
p894
(lp895
Vkernelarch-powerpc/config-arch-64
p896
aVkernelarch-powerpc/config-arch-64-be
p897
ass(g175
g843
g145
tp898
(dp899
g178
(lp900
Vpowerpc
p901
aVpowerpc-smp
p902
aVpowerpc64
p903
asg182
I01
ss(Vbase
p904
Vpowerpcspe
p905
tp906
(dp907
Vkernel-arch
p908
Vpowerpc
p909
sg143
(lp910
g145
ass(Vbuild
p911
g905
tp912
(dp913
Vimage-file
p914
Vvmlinux
p915
sVsigned-modules
p916
I00
sVvdso
p917
I01
ss(Vimage
p918
g905
tp919
(dp920
Vsuggests
p921
Vmkvmlinuz
p922
sVinstall-stem
p923
Vvmlinux
p924
ss(Vdescription
p925
g905
tp926
(dp927
Vhardware
p928
V32-bit PowerPC with SPE (instead of AltiVec) with SMP support
p929
ss(g175
g905
g145
tp930
(dp931
g178
(lp932
Vpowerpcspe
p933
asg182
I01
ss(Vbase
p934
Vppc64
p935
tp936
(dp937
Vkernel-arch
p938
Vpowerpc
p939
sg143
(lp940
g145
ass(Vbuild
p941
g935
tp942
(dp943
Vimage-file
p944
Vvmlinux
p945
sVsigned-modules
p946
I00
sVvdso
p947
I01
ss(Vimage
p948
g935
tp949
(dp950
Vconfigs
p951
(lp952
sVsuggests
p953
Vmkvmlinuz
p954
sVinstall-stem
p955
Vvmlinux
p956
ss(Vdescription
p957
g935
NVpowerpc64
p958
tp959
(dp960
Vhardware
p961
V64-bit PowerPC
p962
ss(Vimage
p963
g935
NVpowerpc64
p964
tp965
(dp966
Vconfigs
p967
(lp968
Vkernelarch-powerpc/config-arch-64
p969
aVkernelarch-powerpc/config-arch-64-be
p970
ass(g175
g935
g145
tp971
(dp972
g178
(lp973
Vpowerpc64
p974
asg182
I01
ss(Vbase
p975
Vppc64el
p976
tp977
(dp978
Vkernel-arch
p979
Vpowerpc
p980
sg143
(lp981
g145
ass(Vbuild
p982
g976
tp983
(dp984
Vimage-file
p985
Vvmlinux
p986
sVvdso
p987
I01
ss(Vimage
p988
g976
tp989
(dp990
Vconfigs
p991
(lp992
sVsuggests
p993
Vmkvmlinuz
p994
sVinstall-stem
p995
Vvmlinux
p996
ss(Vdescription
p997
g976
NVpowerpc64le
p998
tp999
(dp1000
Vhardware
p1001
VLittle-endian 64-bit PowerPC
p1002
ss(Vimage
p1003
g976
NVpowerpc64le
p1004
tp1005
(dp1006
Vconfigs
p1007
(lp1008
Vkernelarch-powerpc/config-arch-64
p1009
aVkernelarch-powerpc/config-arch-64-le
p1010
ass(g175
g976
g145
tp1011
(dp1012
g178
(lp1013
Vpowerpc64le
p1014
asg182
I01
ss(Vbase
p1015
Vs390
p1016
tp1017
(dp1018
Vkernel-arch
p1019
Vs390
p1020
sVfeaturesets
p1021
(lp1022
ss(Vbase
p1023
Vs390x
p1024
tp1025
(dp1026
Vkernel-arch
p1027
Vs390
p1028
sg143
(lp1029
g145
ass(Vbuild
p1030
g1024
tp1031
(dp1032
Vimage-file
p1033
Varch/s390/boot/image
p1034
sVvdso
p1035
I01
ss(Vimage
p1036
g1024
tp1037
(dp1038
Vbootloaders
p1039
(lp1040
Vs390-tools
p1041
asVinstall-stem
p1042
Vvmlinuz
p1043
ss(Vrelations
p1044
g1024
tp1045
(dp1046
Vheaders%gcc-6
p1047
Vlinux-compiler-gcc-6-s390
p1048
ss(Vbuild
p1049
g1024
NVs390x
p1050
tp1051
(dp1052
Vdebug-info
p1053
I01
ss(Vdescription
p1054
g1024
NVs390x
p1055
tp1056
(dp1057
Vhardware
p1058
VIBM zSeries
p1059
ss(g175
g1024
g145
tp1060
(dp1061
g178
(lp1062
Vs390x
p1063
asg182
I01
ss(Vbase
p1064
Vsh3
p1065
tp1066
(dp1067
Vkernel-arch
p1068
Vsh
p1069
sVfeaturesets
p1070
(lp1071
ss(Vbase
p1072
Vsh4
p1073
tp1074
(dp1075
Vkernel-arch
p1076
Vsh
p1077
sg143
(lp1078
g145
ass(Vbuild
p1079
g1073
tp1080
(dp1081
Vimage-file
p1082
Varch/sh/boot/zImage
p1083
sVsigned-modules
p1084
I00
ss(Vimage
p1085
g1073
tp1086
(dp1087
Vinstall-stem
p1088
Vvmlinuz
p1089
ss(Vdescription
p1090
g1073
NVsh7751r
p1091
tp1092
(dp1093
Vhardware
p1094
Vsh7751r
p1095
sVhardware-long
p1096
VRenesas SH7751R R2D plus board
p1097
ss(Vdescription
p1098
g1073
NVsh7785lcr
p1099
tp1100
(dp1101
Vhardware
p1102
Vsh7785lcr
p1103
sVhardware-long
p1104
VRenesas SH7785 reference board
p1105
ss(Vimage
p1106
g1073
NVsh7785lcr
p1107
tp1108
(dp1109
Vrecommends
p1110
Vu-boot-tools
p1111
sVcheck-size
p1112
L4194304L
ss(g175
g1073
g145
tp1113
(dp1114
g178
(lp1115
Vsh7751r
p1116
aVsh7785lcr
p1117
asg182
I01
ss(Vbase
p1118
Vsparc
p1119
tp1120
(dp1121
Vkernel-arch
p1122
Vsparc
p1123
sVfeaturesets
p1124
(lp1125
ss(Vbase
p1126
Vsparc64
p1127
tp1128
(dp1129
Vkernel-arch
p1130
Vsparc
p1131
sg143
(lp1132
g145
ass(Vbuild
p1133
g1127
tp1134
(dp1135
Vimage-file
p1136
Varch/sparc/boot/zImage
p1137
sVsigned-modules
p1138
I00
ss(Vimage
p1139
g1127
tp1140
(dp1141
Vconfigs
p1142
(lp1143
sVsuggests
p1144
Vsilo, fdutils
p1145
sVinstall-stem
p1146
Vvmlinuz
p1147
ss(Vdescription
p1148
g1127
NVsparc64
p1149
tp1150
(dp1151
Vhardware
p1152
Vuniprocessor 64-bit UltraSPARC
p1153
ss(Vimage
p1154
g1127
NVsparc64
p1155
tp1156
(dp1157
Vconfigs
p1158
(lp1159
Vkernelarch-sparc/config-up
p1160
ass(Vdescription
p1161
g1127
NVsparc64-smp
p1162
tp1163
(dp1164
Vhardware
p1165
Vmultiprocessor 64-bit UltraSPARC
p1166
ss(Vimage
p1167
g1127
NVsparc64-smp
p1168
tp1169
(dp1170
Vconfigs
p1171
(lp1172
Vkernelarch-sparc/config-smp
p1173
ass(g175
g1127
g145
tp1174
(dp1175
g178
(lp1176
Vsparc64
p1177
aVsparc64-smp
p1178
asg182
I01
ss(Vbase
p1179
Vtilegx
p1180
tp1181
(dp1182
Vkernel-arch
p1183
Vtile
p1184
sVfeaturesets
p1185
(lp1186
ss(Vbase
p1187
Vx32
p1188
tp1189
(dp1190
Vkernel-arch
p1191
Vx86
p1192
sVfeaturesets
p1193
(lp1194
ss(Vabi
p1195
NVrt
p1196
tp1197
(dp1198
Vignore-changes
p1199
(lp1200
V*
p1201
ass(Vdescription
p1202
Ng1196
tp1203
(dp1204
Vpart-long-rt
p1205
VThis kernel includes the PREEMPT_RT realtime patch set.
p1206
sVpart-short-rt
p1207
VPREEMPT_RT
p1208
sVparts
p1209
(lp1210
Vrt
p1211
ass(Vversion
p1212
tp1213
(dp1214
Vsource
p1215
V4.9.80-2
p1216
sVupstream
p1217
V4.9
p1218
sVabiname_base
p1219
V4.9.0
p1220
sVabiname
p1221
V4.9.0-5
p1222
ss.