cdebian_linux.config
ConfigCore
p0
(tRp1
(Vbase
p2
tp3
(dp4
Varches
p5
(lp6
Valpha
p7
aVamd64
p8
aVarm64
p9
aVarmel
p10
aVarmhf
p11
aVhppa
p12
aVi386
p13
aVm68k
p14
aVmips
p15
aVmipsel
p16
aVmipsn32
p17
aVmipsn32el
p18
aVmips64
p19
aVmips64el
p20
aVpowerpc
p21
aVpowerpcspe
p22
aVppc64
p23
aVppc64el
p24
aVs390
p25
aVs390x
p26
aVsh3
p27
aVsh4
p28
aVsparc
p29
aVsparc64
p30
aVtilegx
p31
aVx32
p32
asVfeaturesets
p33
(lp34
Vnone
p35
aVrt
p36
asVcompiler
p37
Vgcc-6
p38
ss(Vbuild
p39
tp40
(dp41
Vsigned-modules
p42
I00
sVdebug-info
p43
I01
ss(Vbase
p44
NVrt
p45
tp46
(dp47
Venabled
p48
I01
ss(Vdescription
p49
tp50
(dp51
Vpart-long-up
p52
VThis kernel is not suitable for SMP (multi-processor,\u000amulti-core or hyper-threaded) systems.
p53
sVpart-long-xen
p54
VThis kernel also runs on a Xen hypervisor.\u000aIt supports both privileged (dom0) and unprivileged (domU) operation.
p55
ss(Vrelations
p56
tp57
(dp58
Vinitramfs-tools
p59
Vinitramfs-tools (>= 0.120+deb8u2)
p60
sVgcc-6
p61
Vgcc-6 <!stage1 !cross>, gcc-6-@gnu-type-package@ <!stage1 cross>
p62
sVinitramfs-fallback
p63
Vlinux-initramfs-tool
p64
ss(Vimage
p65
tp66
(dp67
Vinitramfs-generators
p68
(lp69
Vinitramfs-tools
p70
aVinitramfs-fallback
p71
ass(Vabi
p72
tp73
(dp74
Vabiname
p75
V4
p76
sVignore-changes
p77
(lp78
V__cpuhp_*
p79
aVbpf_analyzer
p80
aVcxl_*
p81
aVinet_frag_*
p82
aVinet_frags_*
p83
aVmm_iommu_*
p84
aVmv_mbus_*
p85
aVregister_cxl_calls
p86
aVregister_key_type
p87
aVunregister_cxl_calls
p88
aVmodule:arch/x86/kvm/*
p89
aVmodule:drivers/crypto/ccp/*
p90
aVmodule:drivers/hv/*
p91
aVmodule:drivers/iio/common/hid-sensors/*
p92
aVmodule:drivers/iio/common/st_sensors/**
p93
aVmodule:drivers/net/wireless/**
p94
aVmodule:drivers/nvdimm/*
p95
aVmodule:drivers/power/supply/bq27xxx_battery
p96
aVmodule:drivers/s390/net/qeth
p97
aVmodule:drivers/s390/net/qeth*
p98
aVmodule:drivers/scsi/cxgbi/*
p99
aVmodule:drivers/scsi/libiscs*
p100
aVmodule:drivers/scsi/qla2xxx/qla2xxx
p101
aVmodule:drivers/scsi/ufs/*
p102
aVmodule:drivers/target/**
p103
aVmodule:drivers/usb/chipidea/**
p104
aVmodule:drivers/usb/gadget/**
p105
aVmodule:drivers/usb/host/**
p106
aVmodule:drivers/usb/musb/**
p107
aVmodule:fs/nfs/nfs
p108
aVmodule:net/ceph/libceph
p109
aVmodule:net/l2tp/**
p110
aVmodule:sound/firewire/snd-firewire-lib
p111
aVbtree_*
p112
aVvisitor*
p113
aVcan_rx_register
p114
aVip6_xmit
p115
aVmodule:net/dccp/dccp
p116
aVmodule:net/rds/rds
p117
aVdevfreq_*
p118
aVdevm_devfreq_*
p119
aVupdate_devfreq
p120
aVmodule:drivers/infiniband/**
p121
aVacpi_ec_add_query_handler
p122
aVacpi_ec_remove_query_handler
p123
aVfirst_ec
p124
aVdebugfs_create_automount
p125
ass(Vbase
p126
Valpha
p127
tp128
(dp129
Vfeaturesets
p130
(lp131
Vnone
p132
asVkernel-arch
p133
Valpha
p134
ss(Vdescription
p135
g127
NValpha-smp
p136
tp137
(dp138
Vhardware
p139
VAlpha SMP
p140
sVhardware-long
p141
VDEC Alpha SMP systems with extended kernel start address (Wildfire, Titan, Marvel)
p142
ss(Vbuild
p143
g127
tp144
(dp145
Vsigned-modules
p146
I00
sVimage-file
p147
Varch/alpha/boot/vmlinux.gz
p148
ss(Vdescription
p149
g127
NValpha-generic
p150
tp151
(dp152
Vhardware
p153
VAlpha
p154
sVhardware-long
p155
VDEC Alpha systems with extended kernel start address (Wildfire, Titan, Marvel)
p156
ss(Vimage
p157
g127
tp158
(dp159
Vsuggests
p160
Vaboot, fdutils
p161
sVinstall-stem
p162
Vvmlinuz
p163
ss(Vbase
p164
g127
g132
tp165
(dp166
Vflavours
p167
(lp168
Valpha-generic
p169
aValpha-smp
p170
asVimplicit-flavour
p171
I01
ss(Vbase
p172
Vamd64
p173
tp174
(dp175
Vfeaturesets
p176
(lp177
Vnone
p178
aVrt
p179
asVkernel-arch
p180
Vx86
p181
ss(Vdescription
p182
g173
NVamd64
p183
tp184
(dp185
Vhardware
p186
V64-bit PCs
p187
sVhardware-long
p188
VPCs with AMD64, Intel 64 or VIA Nano processors
p189
ss(Vbuild
p190
g173
tp191
(dp192
Vvdso
p193
I01
sVimage-file
p194
Varch/x86/boot/bzImage
p195
sVdebug-info
p196
I01
ss(Vrelations
p197
g173
tp198
(dp199
Vheaders%gcc-6
p200
Vlinux-compiler-gcc-6-x86
p201
ss(Vimage
p202
g173
tp203
(dp204
Vbreaks
p205
Vxserver-xorg-input-vmmouse (<< 1:13.0.99)
p206
sVinstall-stem
p207
Vvmlinuz
p208
sVbootloaders
p209
(lp210
Vgrub-pc
p211
aVgrub-efi-amd64
p212
aVextlinux
p213
ass(Vbase
p214
g173
Vnone
p215
tp216
(dp217
Vflavours
p218
(lp219
Vamd64
p220
ass(Vdescription
p221
g173
g215
Vamd64
p222
tp223
(dp224
Vparts
p225
(lp226
Vxen
p227
ass(Vbase
p228
g173
Vrt
p229
tp230
(dp231
Vflavours
p232
(lp233
Vamd64
p234
ass(Vbase
p235
Varm64
p236
tp237
(dp238
Vfeaturesets
p239
(lp240
Vnone
p241
asVkernel-arch
p242
Varm64
p243
ss(Vdescription
p244
g236
NVarm64
p245
tp246
(dp247
Vhardware
p248
V64-bit ARMv8 machines
p249
ss(Vbuild
p250
g236
tp251
(dp252
Vvdso
p253
I01
sVimage-file
p254
Varch/arm64/boot/Image
p255
sVdebug-info
p256
I01
ss(Vimage
p257
g236
NVarm64
p258
tp259
(dp260
s(Vimage
p261
g236
tp262
(dp263
Vbreaks
p264
Vlibmozjs185-1.0, libmozjs-24-0 (<< 24.2.0-5.1~)
p265
sVinstall-stem
p266
Vvmlinuz
p267
ss(Vbase
p268
g236
Vnone
p269
tp270
(dp271
Vflavours
p272
(lp273
Varm64
p274
ass(Vbase
p275
Varmel
p276
tp277
(dp278
g130
(lp279
g132
asVkernel-arch
p280
Varm
p281
ss(Vbuild
p282
g276
tp283
(dp284
Vsigned-modules
p285
I00
sVimage-file
p286
Varch/arm/boot/zImage
p287
ss(Vimage
p288
g276
NVmarvell
p289
tp290
(dp291
Vrecommends
p292
Vu-boot-tools
p293
sVbreaks
p294
Vflash-kernel (<< 3.57~)
p295
sVcheck-size-with-dtb
p296
I01
sVcheck-size
p297
L2097080L
ss(Vdescription
p298
g276
NVmarvell
p299
tp300
(dp301
Vhardware
p302
VMarvell Kirkwood/Orion
p303
sVhardware-long
p304
VMarvell Kirkwood based systems (SheevaPlug, QNAP TS-119/TS-219, etc)\u000aand Orion 5181, 5182 and 5281 based systems (QNAP TS-109/TS-209, etc)
p305
ss(Vrelations
p306
g276
tp307
(dp308
Vheaders%gcc-6
p309
Vlinux-compiler-gcc-6-arm
p310
ss(Vimage
p311
g276
tp312
(dp313
Vinstall-stem
p314
Vvmlinuz
p315
ss(g164
g276
g132
tp316
(dp317
g167
(lp318
Vmarvell
p319
asg171
I01
ss(Vbase
p320
Varmhf
p321
tp322
(dp323
g130
(lp324
g132
asVkernel-arch
p325
Varm
p326
ss(Vdescription
p327
g321
NVarmmp
p328
tp329
(dp330
Vhardware
p331
VARMv7 multiplatform compatible SoCs
p332
sVhardware-long
p333
VARMv7 multiplatform kernel. See\u000ahttps://wiki.debian.org/DebianKernel/ARMMP for details of supported\u000aplatforms
p334
ss(Vbuild
p335
g321
tp336
(dp337
Vvdso
p338
I01
sVimage-file
p339
Varch/arm/boot/zImage
p340
ss(Vdescription
p341
g321
NVarmmp-lpae
p342
tp343
(dp344
Vhardware
p345
VARMv7 multiplatform compatible SoCs supporting LPAE
p346
sVhardware-long
p347
VARMv7 multiplatform kernel supporting LPAE. See\u000ahttps://wiki.debian.org/DebianKernel/ARMMP for details of supported\u000aplatforms.
p348
ss(Vrelations
p349
g321
tp350
(dp351
Vheaders%gcc-6
p352
Vlinux-compiler-gcc-6-arm
p353
ss(Vimage
p354
g321
tp355
(dp356
Vinstall-stem
p357
Vvmlinuz
p358
ss(g164
g321
g132
tp359
(dp360
g167
(lp361
Varmmp
p362
aVarmmp-lpae
p363
asg171
I01
ss(Vbase
p364
Vhppa
p365
tp366
(dp367
g130
(lp368
g132
asVkernel-arch
p369
Vparisc
p370
ss(Vbuild
p371
g365
tp372
(dp373
Vsigned-modules
p374
I00
sVimage-file
p375
Vvmlinux
p376
ss(Vdescription
p377
g365
NVparisc64-smp
p378
tp379
(dp380
Vhardware
p381
Vmultiprocessor 64-bit PA-RISC
p382
sVhardware-long
p383
VHP PA-RISC 64-bit SMP systems with support for more than 4 GB RAM
p384
ss(Vbase
p385
g365
NVparisc64-smp
p386
tp387
(dp388
Vcflags
p389
V-fno-cse-follow-jumps
p390
sVoverride-host-type
p391
Vhppa64-linux-gnu
p392
ss(Vrelations
p393
g365
tp394
(dp395
Vgcc-6
p396
Vgcc-6 <!stage1 !cross>, binutils-hppa64-linux-gnu <!stage1 !cross>, gcc-6-hppa64-linux-gnu <!stage1 !cross>, gcc-6-hppa-linux-gnu <!stage1 cross>, binutils-hppa64-linux-gnu <!stage1 cross>, gcc-6-hppa64-linux-gnu <!stage1 cross>
p397
ss(Vdescription
p398
g365
NVparisc
p399
tp400
(dp401
Vhardware
p402
V32-bit PA-RISC
p403
sVhardware-long
p404
VHP PA-RISC 32-bit systems with max 4 GB RAM
p405
ss(Vimage
p406
g365
tp407
(dp408
Vsuggests
p409
Vpalo
p410
sVinstall-stem
p411
Vvmlinux
p412
ss(g164
g365
g132
tp413
(dp414
g167
(lp415
Vparisc
p416
aVparisc64-smp
p417
asg171
I01
ss(Vbase
p418
Vi386
p419
tp420
(dp421
Vfeaturesets
p422
(lp423
Vnone
p424
aVrt
p425
asVkernel-arch
p426
Vx86
p427
ss(Vbuild
p428
g419
tp429
(dp430
Vvdso
p431
I01
sVimage-file
p432
Varch/x86/boot/bzImage
p433
ss(Vdescription
p434
g419
NV686-pae
p435
tp436
(dp437
Vhardware
p438
Vmodern PCs
p439
sVhardware-long
p440
VPCs with one or more processors supporting PAE
p441
sVparts
p442
(lp443
Vpae
p444
ass(Vdescription
p445
g419
tp446
(dp447
Vpart-long-pae
p448
VThis kernel requires PAE (Physical Address Extension).\u000aThis feature is supported by the Intel Pentium Pro/II/III/4/4M/D, Xeon,\u000aCore and Atom; AMD Geode NX, Athlon (K7), Duron, Opteron, Sempron,\u000aTurion or Phenom; Transmeta Efficeon; VIA C7; and some other processors.
p449
ss(Vbuild
p450
g419
NV686-pae
p451
tp452
(dp453
Vdebug-info
p454
I01
ss(Vdescription
p455
g419
NV686
p456
tp457
(dp458
Vhardware
p459
Volder PCs
p460
sVhardware-long
p461
VPCs with one or more processors not supporting PAE
p462
ss(Vrelations
p463
g419
tp464
(dp465
Vheaders%gcc-6
p466
Vlinux-compiler-gcc-6-x86
p467
ss(Vimage
p468
g419
tp469
(dp470
Vbreaks
p471
Vxserver-xorg-input-vmmouse (<< 1:13.0.99)
p472
sVinstall-stem
p473
Vvmlinuz
p474
sVbootloaders
p475
(lp476
Vgrub-pc
p477
aVextlinux
p478
ass(Vbase
p479
g419
Vnone
p480
tp481
(dp482
Vflavours
p483
(lp484
V686
p485
aV686-pae
p486
ass(Vdescription
p487
g419
g480
V686-pae
p488
tp489
(dp490
Vparts
p491
(lp492
Vxen
p493
ass(Vbase
p494
g419
Vrt
p495
tp496
(dp497
Vflavours
p498
(lp499
V686-pae
p500
ass(Vbase
p501
Vm68k
p502
tp503
(dp504
Vcflags
p505
V-ffreestanding
p506
sg130
(lp507
g132
asVkernel-arch
p508
Vm68k
p509
ss(Vbuild
p510
g502
tp511
(dp512
Vsigned-modules
p513
I00
sVimage-file
p514
Vvmlinux.gz
p515
ss(Vdescription
p516
g502
NVm68k
p517
tp518
(dp519
Vhardware
p520
VMotorola MC68020+ family
p521
ss(Vimage
p522
g502
tp523
(dp524
Vsuggests
p525
Vvmelilo, fdutils
p526
sVinstall-stem
p527
Vvmlinuz
p528
ss(g164
g502
g132
tp529
(dp530
g167
(lp531
Vm68k
p532
asg171
I01
ss(Vbase
p533
Vmips
p534
tp535
(dp536
g130
(lp537
g132
asVkernel-arch
p538
Vmips
p539
ss(Vbuild
p540
g534
tp541
(dp542
Vsigned-modules
p543
I00
sVimage-file
p544
Vvmlinux
p545
ss(Vimage
p546
g534
NV4kc-malta
p547
tp548
(dp549
Vconfigs
p550
(lp551
Vkernelarch-mips/config.malta
p552
aVkernelarch-mips/config.mips32r2
p553
ass(Vimage
p554
g534
NV5kc-malta
p555
tp556
(dp557
Vconfigs
p558
(lp559
Vkernelarch-mips/config.malta
p560
aVkernelarch-mips/config.mips64r2
p561
ass(Vdescription
p562
g534
NVocteon
p563
tp564
(dp565
Vhardware
p566
VOcteon
p567
sVhardware-long
p568
VCavium Networks Octeon
p569
ss(Vimage
p570
g534
NVocteon
p571
tp572
(dp573
Vconfigs
p574
(lp575
Vkernelarch-mips/config.octeon
p576
ass(Vimage
p577
g534
tp578
(dp579
Vinstall-stem
p580
Vvmlinux
p581
ss(Vdescription
p582
g534
NV5kc-malta
p583
tp584
(dp585
Vhardware
p586
VMIPS Malta (64-bit)
p587
sVhardware-long
p588
VMIPS Malta boards (64-bit)
p589
ss(Vdescription
p590
g534
NV4kc-malta
p591
tp592
(dp593
Vhardware
p594
VMIPS Malta
p595
sVhardware-long
p596
VMIPS Malta boards
p597
ss(g164
g534
g132
tp598
(dp599
g167
(lp600
V4kc-malta
p601
aV5kc-malta
p602
aVocteon
p603
asg171
I01
ss(Vbase
p604
Vmipsel
p605
tp606
(dp607
g130
(lp608
g132
asVkernel-arch
p609
Vmips
p610
ss(Vimage
p611
g605
NVloongson-3
p612
tp613
(dp614
Vconfigs
p615
(lp616
Vkernelarch-mips/config.loongson-3
p617
ass(Vbuild
p618
g605
tp619
(dp620
Vsigned-modules
p621
I00
sVimage-file
p622
Vvmlinux
p623
ss(Vimage
p624
g605
NV4kc-malta
p625
tp626
(dp627
Vconfigs
p628
(lp629
Vkernelarch-mips/config.malta
p630
aVkernelarch-mips/config.mips32r2
p631
ass(Vimage
p632
g605
NV5kc-malta
p633
tp634
(dp635
Vconfigs
p636
(lp637
Vkernelarch-mips/config.malta
p638
aVkernelarch-mips/config.mips64r2
p639
ass(Vdescription
p640
g605
NVocteon
p641
tp642
(dp643
Vhardware
p644
VOcteon
p645
sVhardware-long
p646
VCavium Networks Octeon
p647
ss(Vdescription
p648
g605
NVloongson-3
p649
tp650
(dp651
Vhardware
p652
VLoongson 3A/3B
p653
sVhardware-long
p654
VLoongson 3A or 3B based systems (e.g. from Loongson or Lemote)
p655
ss(Vimage
p656
g605
NVocteon
p657
tp658
(dp659
Vconfigs
p660
(lp661
Vkernelarch-mips/config.octeon
p662
ass(Vimage
p663
g605
tp664
(dp665
Vinstall-stem
p666
Vvmlinux
p667
ss(Vdescription
p668
g605
NV5kc-malta
p669
tp670
(dp671
Vhardware
p672
VMIPS Malta (64-bit)
p673
sVhardware-long
p674
VMIPS Malta boards (64-bit)
p675
ss(Vdescription
p676
g605
NV4kc-malta
p677
tp678
(dp679
Vhardware
p680
VMIPS Malta
p681
sVhardware-long
p682
VMIPS Malta boards
p683
ss(g164
g605
g132
tp684
(dp685
g167
(lp686
V4kc-malta
p687
aV5kc-malta
p688
aVloongson-3
p689
aVocteon
p690
asg171
I01
ss(Vbase
p691
Vmipsn32
p692
tp693
(dp694
Vfeaturesets
p695
(lp696
sVkernel-arch
p697
Vmips
p698
ss(Vbase
p699
Vmipsn32el
p700
tp701
(dp702
Vfeaturesets
p703
(lp704
sVkernel-arch
p705
Vmips
p706
ss(Vbase
p707
Vmips64
p708
tp709
(dp710
g130
(lp711
g132
asVkernel-arch
p712
Vmips
p713
ss(Vbuild
p714
g708
tp715
(dp716
Vsigned-modules
p717
I00
sVimage-file
p718
Vvmlinux
p719
ss(Vimage
p720
g708
NV5kc-malta
p721
tp722
(dp723
Vconfigs
p724
(lp725
Vkernelarch-mips/config.malta
p726
aVkernelarch-mips/config.mips64r2
p727
ass(Vdescription
p728
g708
NVocteon
p729
tp730
(dp731
Vhardware
p732
VOcteon
p733
sVhardware-long
p734
VCavium Networks Octeon
p735
ss(Vimage
p736
g708
tp737
(dp738
Vinstall-stem
p739
Vvmlinux
p740
ss(Vdescription
p741
g708
NV5kc-malta
p742
tp743
(dp744
Vhardware
p745
VMIPS Malta
p746
sVhardware-long
p747
VMIPS Malta boards
p748
ss(Vimage
p749
g708
NVocteon
p750
tp751
(dp752
Vconfigs
p753
(lp754
Vkernelarch-mips/config.octeon
p755
ass(g164
g708
g132
tp756
(dp757
g167
(lp758
V5kc-malta
p759
aVocteon
p760
asg171
I01
ss(Vbase
p761
Vmips64el
p762
tp763
(dp764
g130
(lp765
g132
asVkernel-arch
p766
Vmips
p767
ss(Vimage
p768
g762
NVloongson-3
p769
tp770
(dp771
Vconfigs
p772
(lp773
Vkernelarch-mips/config.loongson-3
p774
ass(Vbuild
p775
g762
tp776
(dp777
Vsigned-modules
p778
I00
sVimage-file
p779
Vvmlinux
p780
ss(Vimage
p781
g762
NV5kc-malta
p782
tp783
(dp784
Vconfigs
p785
(lp786
Vkernelarch-mips/config.malta
p787
aVkernelarch-mips/config.mips64r2
p788
ass(Vdescription
p789
g762
NVocteon
p790
tp791
(dp792
Vhardware
p793
VOcteon
p794
sVhardware-long
p795
VCavium Networks Octeon
p796
ss(Vdescription
p797
g762
NVloongson-3
p798
tp799
(dp800
Vhardware
p801
VLoongson 3A/3B
p802
sVhardware-long
p803
VLoongson 3A or 3B based systems (e.g. from Loongson or Lemote)
p804
ss(Vimage
p805
g762
tp806
(dp807
Vinstall-stem
p808
Vvmlinux
p809
ss(Vdescription
p810
g762
NV5kc-malta
p811
tp812
(dp813
Vhardware
p814
VMIPS Malta
p815
sVhardware-long
p816
VMIPS Malta boards
p817
ss(Vimage
p818
g762
NVocteon
p819
tp820
(dp821
Vconfigs
p822
(lp823
Vkernelarch-mips/config.octeon
p824
ass(g164
g762
g132
tp825
(dp826
g167
(lp827
V5kc-malta
p828
aVloongson-3
p829
aVocteon
p830
asg171
I01
ss(Vbase
p831
Vpowerpc
p832
tp833
(dp834
g130
(lp835
g132
asVkernel-arch
p836
Vpowerpc
p837
ss(Vdescription
p838
g832
NVpowerpc64
p839
tp840
(dp841
Vhardware
p842
V64-bit PowerPC
p843
ss(Vbuild
p844
g832
tp845
(dp846
Vvdso
p847
I01
sVimage-file
p848
Vvmlinux
p849
ss(Vimage
p850
g832
NVpowerpc-smp
p851
tp852
(dp853
Vconfigs
p854
(lp855
Vpowerpc/config.powerpc
p856
aVpowerpc/config.powerpc-smp
p857
ass(Vdescription
p858
g832
NVpowerpc
p859
tp860
(dp861
Vhardware
p862
Vuniprocessor 32-bit PowerPC
p863
ss(Vimage
p864
g832
NVpowerpc64
p865
tp866
(dp867
Vconfigs
p868
(lp869
Vkernelarch-powerpc/config-arch-64
p870
aVkernelarch-powerpc/config-arch-64-be
p871
ass(Vdescription
p872
g832
NVpowerpc-smp
p873
tp874
(dp875
Vhardware
p876
Vmultiprocessor 32-bit PowerPC
p877
ss(Vimage
p878
g832
tp879
(dp880
Vsuggests
p881
Vmkvmlinuz
p882
sVinstall-stem
p883
Vvmlinux
p884
sVconfigs
p885
(lp886
ss(g164
g832
g132
tp887
(dp888
g167
(lp889
Vpowerpc
p890
aVpowerpc-smp
p891
aVpowerpc64
p892
asg171
I01
ss(Vbase
p893
Vpowerpcspe
p894
tp895
(dp896
g130
(lp897
g132
asVkernel-arch
p898
Vpowerpc
p899
ss(Vbuild
p900
g894
tp901
(dp902
Vsigned-modules
p903
I00
sVimage-file
p904
Vvmlinux
p905
sVvdso
p906
I01
ss(Vimage
p907
g894
tp908
(dp909
Vsuggests
p910
Vmkvmlinuz
p911
sVinstall-stem
p912
Vvmlinux
p913
ss(Vdescription
p914
g894
tp915
(dp916
Vhardware
p917
V32-bit PowerPC with SPE (instead of AltiVec) with SMP support
p918
ss(g164
g894
g132
tp919
(dp920
g167
(lp921
Vpowerpcspe
p922
asg171
I01
ss(Vbase
p923
Vppc64
p924
tp925
(dp926
g130
(lp927
g132
asVkernel-arch
p928
Vpowerpc
p929
ss(Vdescription
p930
g924
NVpowerpc64
p931
tp932
(dp933
Vhardware
p934
V64-bit PowerPC
p935
ss(Vbuild
p936
g924
tp937
(dp938
Vsigned-modules
p939
I00
sVimage-file
p940
Vvmlinux
p941
sVvdso
p942
I01
ss(Vimage
p943
g924
NVpowerpc64
p944
tp945
(dp946
Vconfigs
p947
(lp948
Vkernelarch-powerpc/config-arch-64
p949
aVkernelarch-powerpc/config-arch-64-be
p950
ass(Vimage
p951
g924
tp952
(dp953
Vsuggests
p954
Vmkvmlinuz
p955
sVinstall-stem
p956
Vvmlinux
p957
sVconfigs
p958
(lp959
ss(g164
g924
g132
tp960
(dp961
g167
(lp962
Vpowerpc64
p963
asg171
I01
ss(Vbase
p964
Vppc64el
p965
tp966
(dp967
g130
(lp968
g132
asVkernel-arch
p969
Vpowerpc
p970
ss(Vdescription
p971
g965
NVpowerpc64le
p972
tp973
(dp974
Vhardware
p975
VLittle-endian 64-bit PowerPC
p976
ss(Vbuild
p977
g965
tp978
(dp979
Vvdso
p980
I01
sVimage-file
p981
Vvmlinux
p982
ss(Vimage
p983
g965
tp984
(dp985
Vsuggests
p986
Vmkvmlinuz
p987
sVinstall-stem
p988
Vvmlinux
p989
sVconfigs
p990
(lp991
ss(Vimage
p992
g965
NVpowerpc64le
p993
tp994
(dp995
Vconfigs
p996
(lp997
Vkernelarch-powerpc/config-arch-64
p998
aVkernelarch-powerpc/config-arch-64-le
p999
ass(g164
g965
g132
tp1000
(dp1001
g167
(lp1002
Vpowerpc64le
p1003
asg171
I01
ss(Vbase
p1004
Vs390
p1005
tp1006
(dp1007
Vfeaturesets
p1008
(lp1009
sVkernel-arch
p1010
Vs390
p1011
ss(Vbase
p1012
Vs390x
p1013
tp1014
(dp1015
g130
(lp1016
g132
asVkernel-arch
p1017
Vs390
p1018
ss(Vdescription
p1019
g1013
NVs390x
p1020
tp1021
(dp1022
Vhardware
p1023
VIBM zSeries
p1024
ss(Vbuild
p1025
g1013
tp1026
(dp1027
Vvdso
p1028
I01
sVimage-file
p1029
Varch/s390/boot/image
p1030
ss(Vbuild
p1031
g1013
NVs390x
p1032
tp1033
(dp1034
Vdebug-info
p1035
I01
ss(Vrelations
p1036
g1013
tp1037
(dp1038
Vheaders%gcc-6
p1039
Vlinux-compiler-gcc-6-s390
p1040
ss(Vimage
p1041
g1013
tp1042
(dp1043
Vinstall-stem
p1044
Vvmlinuz
p1045
sVbootloaders
p1046
(lp1047
Vs390-tools
p1048
ass(g164
g1013
g132
tp1049
(dp1050
g167
(lp1051
Vs390x
p1052
asg171
I01
ss(Vbase
p1053
Vsh3
p1054
tp1055
(dp1056
Vfeaturesets
p1057
(lp1058
sVkernel-arch
p1059
Vsh
p1060
ss(Vbase
p1061
Vsh4
p1062
tp1063
(dp1064
g130
(lp1065
g132
asVkernel-arch
p1066
Vsh
p1067
ss(Vbuild
p1068
g1062
tp1069
(dp1070
Vsigned-modules
p1071
I00
sVimage-file
p1072
Varch/sh/boot/zImage
p1073
ss(Vdescription
p1074
g1062
NVsh7751r
p1075
tp1076
(dp1077
Vhardware
p1078
Vsh7751r
p1079
sVhardware-long
p1080
VRenesas SH7751R R2D plus board
p1081
ss(Vdescription
p1082
g1062
NVsh7785lcr
p1083
tp1084
(dp1085
Vhardware
p1086
Vsh7785lcr
p1087
sVhardware-long
p1088
VRenesas SH7785 reference board
p1089
ss(Vimage
p1090
g1062
tp1091
(dp1092
Vinstall-stem
p1093
Vvmlinuz
p1094
ss(Vimage
p1095
g1062
NVsh7785lcr
p1096
tp1097
(dp1098
Vrecommends
p1099
Vu-boot-tools
p1100
sVcheck-size
p1101
L4194304L
ss(g164
g1062
g132
tp1102
(dp1103
g167
(lp1104
Vsh7751r
p1105
aVsh7785lcr
p1106
asg171
I01
ss(Vbase
p1107
Vsparc
p1108
tp1109
(dp1110
Vfeaturesets
p1111
(lp1112
sVkernel-arch
p1113
Vsparc
p1114
ss(Vbase
p1115
Vsparc64
p1116
tp1117
(dp1118
g130
(lp1119
g132
asVkernel-arch
p1120
Vsparc
p1121
ss(Vbuild
p1122
g1116
tp1123
(dp1124
Vsigned-modules
p1125
I00
sVimage-file
p1126
Varch/sparc/boot/zImage
p1127
ss(Vimage
p1128
g1116
NVsparc64
p1129
tp1130
(dp1131
Vconfigs
p1132
(lp1133
Vkernelarch-sparc/config-up
p1134
ass(Vimage
p1135
g1116
NVsparc64-smp
p1136
tp1137
(dp1138
Vconfigs
p1139
(lp1140
Vkernelarch-sparc/config-smp
p1141
ass(Vimage
p1142
g1116
tp1143
(dp1144
Vsuggests
p1145
Vsilo, fdutils
p1146
sVinstall-stem
p1147
Vvmlinuz
p1148
sVconfigs
p1149
(lp1150
ss(Vdescription
p1151
g1116
NVsparc64-smp
p1152
tp1153
(dp1154
Vhardware
p1155
Vmultiprocessor 64-bit UltraSPARC
p1156
ss(Vdescription
p1157
g1116
NVsparc64
p1158
tp1159
(dp1160
Vhardware
p1161
Vuniprocessor 64-bit UltraSPARC
p1162
ss(g164
g1116
g132
tp1163
(dp1164
g167
(lp1165
Vsparc64
p1166
aVsparc64-smp
p1167
asg171
I01
ss(Vbase
p1168
Vtilegx
p1169
tp1170
(dp1171
Vfeaturesets
p1172
(lp1173
sVkernel-arch
p1174
Vtile
p1175
ss(Vbase
p1176
Vx32
p1177
tp1178
(dp1179
Vfeaturesets
p1180
(lp1181
sVkernel-arch
p1182
Vx86
p1183
ss(Vdescription
p1184
NVrt
p1185
tp1186
(dp1187
Vparts
p1188
(lp1189
Vrt
p1190
asVpart-long-rt
p1191
VThis kernel includes the PREEMPT_RT realtime patch set.
p1192
sVpart-short-rt
p1193
VPREEMPT_RT
p1194
ss(Vabi
p1195
Ng1185
tp1196
(dp1197
Vignore-changes
p1198
(lp1199
V*
p1200
ass(Vversion
p1201
tp1202
(dp1203
Vupstream
p1204
V4.9
p1205
sVsource
p1206
V4.9.65-3+deb9u1
p1207
sVabiname
p1208
V4.9.0-4
p1209
sVabiname_base
p1210
V4.9.0
p1211
ss.