cdebian_linux.config
ConfigCore
p0
(tRp1
(Vbase
p2
tp3
(dp4
Varches
p5
(lp6
Valpha
p7
aVamd64
p8
aVarm64
p9
aVarmel
p10
aVarmhf
p11
aVhppa
p12
aVi386
p13
aVm68k
p14
aVmips
p15
aVmipsel
p16
aVmipsn32
p17
aVmipsn32el
p18
aVmips64
p19
aVmips64el
p20
aVpowerpc
p21
aVpowerpcspe
p22
aVppc64
p23
aVppc64el
p24
aVs390
p25
aVs390x
p26
aVsh3
p27
aVsh4
p28
aVsparc
p29
aVsparc64
p30
aVtilegx
p31
aVx32
p32
asVfeaturesets
p33
(lp34
Vnone
p35
aVrt
p36
asVcompiler
p37
Vgcc-4.9
p38
ss(Vbuild
p39
tp40
(dp41
Vdebug-info
p42
I01
ss(Vbase
p43
NVrt
p44
tp45
(dp46
Venabled
p47
I01
ss(Vdescription
p48
tp49
(dp50
Vpart-long-up
p51
VThis kernel is not suitable for SMP (multi-processor,\u000amulti-core or hyper-threaded) systems.
p52
sVpart-long-xen
p53
VThis kernel also runs on a Xen hypervisor.\u000aIt supports both privileged (dom0) and unprivileged (domU) operation.
p54
ss(Vpackages
p55
tp56
(dp57
Vlibc-dev
p58
I00
ss(Vrelations
p59
tp60
(dp61
Vgcc-4.9
p62
Vgcc-4.9 <!stage1 !cross>, gcc-6-@gnu-type-package@:native <!stage1 cross>
p63
sVinitramfs-tools
p64
Vinitramfs-tools (>= 0.120+deb8u2)
p65
sVinitramfs-fallback
p66
Vlinux-initramfs-tool
p67
ss(Vimage
p68
tp69
(dp70
Vinitramfs-generators
p71
(lp72
Vinitramfs-tools
p73
aVinitramfs-fallback
p74
ass(Vabi
p75
tp76
(dp77
Vabiname
p78
V6
p79
sVignore-changes
p80
(lp81
V__cpuhp_*
p82
aVbpf_analyzer
p83
aVcxl_*
p84
aVinet_frag_*
p85
aVinet_frags_*
p86
aVmm_iommu_*
p87
aVmv_mbus_*
p88
aVpaca
p89
aVregister_cxl_calls
p90
aVregister_key_type
p91
aVunregister_cxl_calls
p92
aVmodule:arch/x86/kvm/*
p93
aVmodule:drivers/crypto/ccp/*
p94
aVmodule:drivers/hv/*
p95
aVmodule:drivers/iio/common/hid-sensors/*
p96
aVmodule:drivers/iio/common/st_sensors/**
p97
aVmodule:drivers/net/wireless/**
p98
aVmodule:drivers/nvdimm/*
p99
aVmodule:drivers/power/supply/bq27xxx_battery
p100
aVmodule:drivers/s390/net/qeth
p101
aVmodule:drivers/s390/net/qeth*
p102
aVmodule:drivers/scsi/cxgbi/*
p103
aVmodule:drivers/scsi/libiscs*
p104
aVmodule:drivers/scsi/qla2xxx/qla2xxx
p105
aVmodule:drivers/scsi/ufs/*
p106
aVmodule:drivers/target/**
p107
aVmodule:drivers/usb/chipidea/**
p108
aVmodule:drivers/usb/gadget/**
p109
aVmodule:drivers/usb/host/**
p110
aVmodule:drivers/usb/musb/**
p111
aVmodule:fs/nfs/nfs
p112
aVmodule:net/ceph/libceph
p113
aVmodule:net/l2tp/**
p114
aVmodule:sound/firewire/snd-firewire-lib
p115
aVbtree_*
p116
aVvisitor*
p117
aVcan_rx_register
p118
aVip6_xmit
p119
aVmodule:net/dccp/dccp
p120
aVmodule:net/rds/rds
p121
aVdevfreq_*
p122
aVdevm_devfreq_*
p123
aVupdate_devfreq
p124
aVmodule:drivers/infiniband/**
p125
aVacpi_ec_add_query_handler
p126
aVacpi_ec_remove_query_handler
p127
aVfirst_ec
p128
aVdebugfs_create_automount
p129
ass(Vbase
p130
Valpha
p131
tp132
(dp133
Vfeaturesets
p134
(lp135
Vnone
p136
asVkernel-arch
p137
Valpha
p138
ss(Vdescription
p139
g131
NValpha-smp
p140
tp141
(dp142
Vhardware
p143
VAlpha SMP
p144
sVhardware-long
p145
VDEC Alpha SMP systems with extended kernel start address (Wildfire, Titan, Marvel)
p146
ss(Vbuild
p147
g131
tp148
(dp149
Vsigned-modules
p150
I00
sVimage-file
p151
Varch/alpha/boot/vmlinux.gz
p152
ss(Vdescription
p153
g131
NValpha-generic
p154
tp155
(dp156
Vhardware
p157
VAlpha
p158
sVhardware-long
p159
VDEC Alpha systems with extended kernel start address (Wildfire, Titan, Marvel)
p160
ss(Vimage
p161
g131
tp162
(dp163
Vsuggests
p164
Vaboot, fdutils
p165
sVinstall-stem
p166
Vvmlinuz
p167
ss(Vbase
p168
g131
g136
tp169
(dp170
Vflavours
p171
(lp172
Valpha-generic
p173
aValpha-smp
p174
asVimplicit-flavour
p175
I01
ss(Vbase
p176
Vamd64
p177
tp178
(dp179
Vfeaturesets
p180
(lp181
Vnone
p182
aVrt
p183
asVkernel-arch
p184
Vx86
p185
ss(Vdescription
p186
g177
NVamd64
p187
tp188
(dp189
Vhardware
p190
V64-bit PCs
p191
sVhardware-long
p192
VPCs with AMD64, Intel 64 or VIA Nano processors
p193
ss(Vbuild
p194
g177
tp195
(dp196
Vvdso
p197
I01
sVimage-file
p198
Varch/x86/boot/bzImage
p199
sVdebug-info
p200
I01
ss(Vrelations
p201
g177
tp202
(dp203
Vheaders%gcc-6
p204
Vlinux-compiler-gcc-6-x86 (>= 4.9.82-1+deb9u1~)
p205
sVgcc-6
p206
Vgcc-6 (>= 6.3.0-18+deb9u1~) <!stage1 !cross>, gcc-6-@gnu-type-package@ (>= 6.3.0-18+deb9u1~) <!stage1 cross>
p207
ss(Vimage
p208
g177
tp209
(dp210
Vbreaks
p211
Vxserver-xorg-input-vmmouse (<< 1:13.0.99)
p212
sVinstall-stem
p213
Vvmlinuz
p214
sVbootloaders
p215
(lp216
Vgrub-pc
p217
aVgrub-efi-amd64
p218
aVextlinux
p219
ass(Vbase
p220
g177
Vnone
p221
tp222
(dp223
Vflavours
p224
(lp225
Vamd64
p226
ass(Vdescription
p227
g177
g221
Vamd64
p228
tp229
(dp230
Vparts
p231
(lp232
Vxen
p233
ass(Vbase
p234
g177
Vrt
p235
tp236
(dp237
Vflavours
p238
(lp239
Vamd64
p240
ass(Vbase
p241
Varm64
p242
tp243
(dp244
Vfeaturesets
p245
(lp246
Vnone
p247
asVkernel-arch
p248
Varm64
p249
ss(Vdescription
p250
g242
NVarm64
p251
tp252
(dp253
Vhardware
p254
V64-bit ARMv8 machines
p255
ss(Vbuild
p256
g242
tp257
(dp258
Vvdso
p259
I01
sVimage-file
p260
Varch/arm64/boot/Image
p261
sVdebug-info
p262
I01
ss(Vimage
p263
g242
NVarm64
p264
tp265
(dp266
s(Vimage
p267
g242
tp268
(dp269
Vbreaks
p270
Vlibmozjs185-1.0, libmozjs-24-0 (<< 24.2.0-5.1~)
p271
sVinstall-stem
p272
Vvmlinuz
p273
ss(Vbase
p274
g242
Vnone
p275
tp276
(dp277
Vflavours
p278
(lp279
Varm64
p280
ass(Vbase
p281
Varmel
p282
tp283
(dp284
g134
(lp285
g136
asVkernel-arch
p286
Varm
p287
ss(Vbuild
p288
g282
tp289
(dp290
Vsigned-modules
p291
I00
sVimage-file
p292
Varch/arm/boot/zImage
p293
ss(Vimage
p294
g282
NVmarvell
p295
tp296
(dp297
Vrecommends
p298
Vu-boot-tools
p299
sVbreaks
p300
Vflash-kernel (<< 3.57~)
p301
sVcheck-size-with-dtb
p302
I01
sVcheck-size
p303
L2097080L
ss(Vdescription
p304
g282
NVmarvell
p305
tp306
(dp307
Vhardware
p308
VMarvell Kirkwood/Orion
p309
sVhardware-long
p310
VMarvell Kirkwood based systems (SheevaPlug, QNAP TS-119/TS-219, etc)\u000aand Orion 5181, 5182 and 5281 based systems (QNAP TS-109/TS-209, etc)
p311
ss(Vrelations
p312
g282
tp313
(dp314
Vheaders%gcc-6
p315
Vlinux-compiler-gcc-6-arm
p316
ss(Vimage
p317
g282
tp318
(dp319
Vinstall-stem
p320
Vvmlinuz
p321
ss(g168
g282
g136
tp322
(dp323
g171
(lp324
Vmarvell
p325
asg175
I01
ss(Vdescription
p326
Varmhf
p327
NVarmmp
p328
tp329
(dp330
Vhardware
p331
VARMv7 multiplatform compatible SoCs
p332
sVhardware-long
p333
VARMv7 multiplatform kernel. See\u000ahttps://wiki.debian.org/DebianKernel/ARMMP for details of supported\u000aplatforms
p334
ss(Vdescription
p335
g327
NVrpi
p336
tp337
(dp338
Vhardware
p339
VRaspberryPI
p340
sVhardware-long
p341
VRaspberry PI
p342
ss(Vdescription
p343
g327
NVarmmp-lpae
p344
tp345
(dp346
Vhardware
p347
VARMv7 multiplatform compatible SoCs supporting LPAE
p348
sVhardware-long
p349
VARMv7 multiplatform kernel supporting LPAE. See\u000ahttps://wiki.debian.org/DebianKernel/ARMMP for details of supported\u000aplatforms.
p350
ss(Vbuild
p351
g327
NVrpi
p352
tp353
(dp354
Vimage-file
p355
Varch/arm/boot/zImagerpdt
p356
ss(Vrelations
p357
g327
tp358
(dp359
Vheaders%gcc-4.9
p360
Vlinux-compiler-gcc-4.9-arm
p361
ss(Vimage
p362
g327
tp363
(dp364
Vinstall-stem
p365
Vvmlinuz
p366
ss(Vbase
p367
g327
tp368
(dp369
g134
(lp370
g136
asVkernel-arch
p371
Varm
p372
ss(Vbuild
p373
g327
tp374
(dp375
Vvdso
p376
I01
sVimage-file
p377
Varch/arm/boot/zImage
p378
ss(Vbuild
p379
g327
NVrpi2
p380
tp381
(dp382
Vimage-file
p383
Varch/arm/boot/zImagerpdt
p384
ss(Vimage
p385
g327
NVrpi2
p386
tp387
(dp388
Vconfigs
p389
(lp390
Varmhf/config.rpix
p391
aVarmhf/config.rpi2
p392
ass(Vimage
p393
g327
NVrpi
p394
tp395
(dp396
Vconfigs
p397
(lp398
Varmhf/config.rpix
p399
aVarmhf/config.rpi
p400
ass(Vdescription
p401
g327
NVrpi2
p402
tp403
(dp404
Vhardware
p405
VRaspberryPI2
p406
sVhardware-long
p407
VRaspberry PI 2
p408
ss(g168
g327
g136
tp409
(dp410
g171
(lp411
Vrpi
p412
aVrpi2
p413
asg175
I01
ss(Vbase
p414
Vhppa
p415
tp416
(dp417
g134
(lp418
g136
asVkernel-arch
p419
Vparisc
p420
ss(Vbuild
p421
g415
tp422
(dp423
Vsigned-modules
p424
I00
sVimage-file
p425
Vvmlinux
p426
ss(Vdescription
p427
g415
NVparisc64-smp
p428
tp429
(dp430
Vhardware
p431
Vmultiprocessor 64-bit PA-RISC
p432
sVhardware-long
p433
VHP PA-RISC 64-bit SMP systems with support for more than 4 GB RAM
p434
ss(Vbase
p435
g415
NVparisc64-smp
p436
tp437
(dp438
Vcflags
p439
V-fno-cse-follow-jumps
p440
sVoverride-host-type
p441
Vhppa64-linux-gnu
p442
ss(Vrelations
p443
g415
tp444
(dp445
Vgcc-6
p446
Vgcc-6 <!stage1 !cross>, binutils-hppa64-linux-gnu <!stage1 !cross>, gcc-6-hppa64-linux-gnu <!stage1 !cross>, gcc-6-hppa-linux-gnu <!stage1 cross>, binutils-hppa64-linux-gnu <!stage1 cross>, gcc-6-hppa64-linux-gnu <!stage1 cross>
p447
ss(Vdescription
p448
g415
NVparisc
p449
tp450
(dp451
Vhardware
p452
V32-bit PA-RISC
p453
sVhardware-long
p454
VHP PA-RISC 32-bit systems with max 4 GB RAM
p455
ss(Vimage
p456
g415
tp457
(dp458
Vsuggests
p459
Vpalo
p460
sVinstall-stem
p461
Vvmlinux
p462
ss(g168
g415
g136
tp463
(dp464
g171
(lp465
Vparisc
p466
aVparisc64-smp
p467
asg175
I01
ss(Vbase
p468
Vi386
p469
tp470
(dp471
Vfeaturesets
p472
(lp473
Vnone
p474
aVrt
p475
asVkernel-arch
p476
Vx86
p477
ss(Vbuild
p478
g469
tp479
(dp480
Vvdso
p481
I01
sVimage-file
p482
Varch/x86/boot/bzImage
p483
ss(Vdescription
p484
g469
NV686-pae
p485
tp486
(dp487
Vhardware
p488
Vmodern PCs
p489
sVhardware-long
p490
VPCs with one or more processors supporting PAE
p491
sVparts
p492
(lp493
Vpae
p494
ass(Vdescription
p495
g469
tp496
(dp497
Vpart-long-pae
p498
VThis kernel requires PAE (Physical Address Extension).\u000aThis feature is supported by the Intel Pentium Pro/II/III/4/4M/D, Xeon,\u000aCore and Atom; AMD Geode NX, Athlon (K7), Duron, Opteron, Sempron,\u000aTurion or Phenom; Transmeta Efficeon; VIA C7; and some other processors.
p499
ss(Vbuild
p500
g469
NV686-pae
p501
tp502
(dp503
Vdebug-info
p504
I01
ss(Vdescription
p505
g469
NV686
p506
tp507
(dp508
Vhardware
p509
Volder PCs
p510
sVhardware-long
p511
VPCs with one or more processors not supporting PAE
p512
ss(Vrelations
p513
g469
tp514
(dp515
Vheaders%gcc-6
p516
Vlinux-compiler-gcc-6-x86 (>= 4.9.82-1+deb9u1~)
p517
sVgcc-6
p518
Vgcc-6 (>= 6.3.0-18+deb9u1~) <!stage1 !cross>, gcc-6-@gnu-type-package@ (>= 6.3.0-18+deb9u1~) <!stage1 cross>
p519
ss(Vimage
p520
g469
tp521
(dp522
Vbreaks
p523
Vxserver-xorg-input-vmmouse (<< 1:13.0.99)
p524
sVinstall-stem
p525
Vvmlinuz
p526
sVbootloaders
p527
(lp528
Vgrub-pc
p529
aVextlinux
p530
ass(Vbase
p531
g469
Vnone
p532
tp533
(dp534
Vflavours
p535
(lp536
V686
p537
aV686-pae
p538
ass(Vdescription
p539
g469
g532
V686-pae
p540
tp541
(dp542
Vparts
p543
(lp544
Vxen
p545
ass(Vbase
p546
g469
Vrt
p547
tp548
(dp549
Vflavours
p550
(lp551
V686-pae
p552
ass(Vbase
p553
Vm68k
p554
tp555
(dp556
Vcflags
p557
V-ffreestanding
p558
sg134
(lp559
g136
asVkernel-arch
p560
Vm68k
p561
ss(Vbuild
p562
g554
tp563
(dp564
Vsigned-modules
p565
I00
sVimage-file
p566
Vvmlinux.gz
p567
ss(Vdescription
p568
g554
NVm68k
p569
tp570
(dp571
Vhardware
p572
VMotorola MC68020+ family
p573
ss(Vimage
p574
g554
tp575
(dp576
Vsuggests
p577
Vvmelilo, fdutils
p578
sVinstall-stem
p579
Vvmlinuz
p580
ss(g168
g554
g136
tp581
(dp582
g171
(lp583
Vm68k
p584
asg175
I01
ss(Vbase
p585
Vmips
p586
tp587
(dp588
g134
(lp589
g136
asVkernel-arch
p590
Vmips
p591
ss(Vbuild
p592
g586
tp593
(dp594
Vsigned-modules
p595
I00
sVimage-file
p596
Vvmlinux
p597
ss(Vimage
p598
g586
NV4kc-malta
p599
tp600
(dp601
Vconfigs
p602
(lp603
Vkernelarch-mips/config.malta
p604
aVkernelarch-mips/config.mips32r2
p605
ass(Vimage
p606
g586
NV5kc-malta
p607
tp608
(dp609
Vconfigs
p610
(lp611
Vkernelarch-mips/config.malta
p612
aVkernelarch-mips/config.mips64r2
p613
ass(Vdescription
p614
g586
NVocteon
p615
tp616
(dp617
Vhardware
p618
VOcteon
p619
sVhardware-long
p620
VCavium Networks Octeon
p621
ss(Vimage
p622
g586
NVocteon
p623
tp624
(dp625
Vconfigs
p626
(lp627
Vkernelarch-mips/config.octeon
p628
ass(Vimage
p629
g586
tp630
(dp631
Vinstall-stem
p632
Vvmlinux
p633
ss(Vdescription
p634
g586
NV5kc-malta
p635
tp636
(dp637
Vhardware
p638
VMIPS Malta (64-bit)
p639
sVhardware-long
p640
VMIPS Malta boards (64-bit)
p641
ss(Vdescription
p642
g586
NV4kc-malta
p643
tp644
(dp645
Vhardware
p646
VMIPS Malta
p647
sVhardware-long
p648
VMIPS Malta boards
p649
ss(g168
g586
g136
tp650
(dp651
g171
(lp652
V4kc-malta
p653
aV5kc-malta
p654
aVocteon
p655
asg175
I01
ss(Vbase
p656
Vmipsel
p657
tp658
(dp659
g134
(lp660
g136
asVkernel-arch
p661
Vmips
p662
ss(Vimage
p663
g657
NVloongson-3
p664
tp665
(dp666
Vconfigs
p667
(lp668
Vkernelarch-mips/config.loongson-3
p669
ass(Vbuild
p670
g657
tp671
(dp672
Vsigned-modules
p673
I00
sVimage-file
p674
Vvmlinux
p675
ss(Vimage
p676
g657
NV4kc-malta
p677
tp678
(dp679
Vconfigs
p680
(lp681
Vkernelarch-mips/config.malta
p682
aVkernelarch-mips/config.mips32r2
p683
ass(Vimage
p684
g657
NV5kc-malta
p685
tp686
(dp687
Vconfigs
p688
(lp689
Vkernelarch-mips/config.malta
p690
aVkernelarch-mips/config.mips64r2
p691
ass(Vdescription
p692
g657
NVocteon
p693
tp694
(dp695
Vhardware
p696
VOcteon
p697
sVhardware-long
p698
VCavium Networks Octeon
p699
ss(Vdescription
p700
g657
NVloongson-3
p701
tp702
(dp703
Vhardware
p704
VLoongson 3A/3B
p705
sVhardware-long
p706
VLoongson 3A or 3B based systems (e.g. from Loongson or Lemote)
p707
ss(Vimage
p708
g657
NVocteon
p709
tp710
(dp711
Vconfigs
p712
(lp713
Vkernelarch-mips/config.octeon
p714
ass(Vimage
p715
g657
tp716
(dp717
Vinstall-stem
p718
Vvmlinux
p719
ss(Vdescription
p720
g657
NV5kc-malta
p721
tp722
(dp723
Vhardware
p724
VMIPS Malta (64-bit)
p725
sVhardware-long
p726
VMIPS Malta boards (64-bit)
p727
ss(Vdescription
p728
g657
NV4kc-malta
p729
tp730
(dp731
Vhardware
p732
VMIPS Malta
p733
sVhardware-long
p734
VMIPS Malta boards
p735
ss(g168
g657
g136
tp736
(dp737
g171
(lp738
V4kc-malta
p739
aV5kc-malta
p740
aVloongson-3
p741
aVocteon
p742
asg175
I01
ss(Vbase
p743
Vmipsn32
p744
tp745
(dp746
Vfeaturesets
p747
(lp748
sVkernel-arch
p749
Vmips
p750
ss(Vbase
p751
Vmipsn32el
p752
tp753
(dp754
Vfeaturesets
p755
(lp756
sVkernel-arch
p757
Vmips
p758
ss(Vbase
p759
Vmips64
p760
tp761
(dp762
g134
(lp763
g136
asVkernel-arch
p764
Vmips
p765
ss(Vbuild
p766
g760
tp767
(dp768
Vsigned-modules
p769
I00
sVimage-file
p770
Vvmlinux
p771
ss(Vimage
p772
g760
NV5kc-malta
p773
tp774
(dp775
Vconfigs
p776
(lp777
Vkernelarch-mips/config.malta
p778
aVkernelarch-mips/config.mips64r2
p779
ass(Vdescription
p780
g760
NVocteon
p781
tp782
(dp783
Vhardware
p784
VOcteon
p785
sVhardware-long
p786
VCavium Networks Octeon
p787
ss(Vimage
p788
g760
tp789
(dp790
Vinstall-stem
p791
Vvmlinux
p792
ss(Vdescription
p793
g760
NV5kc-malta
p794
tp795
(dp796
Vhardware
p797
VMIPS Malta
p798
sVhardware-long
p799
VMIPS Malta boards
p800
ss(Vimage
p801
g760
NVocteon
p802
tp803
(dp804
Vconfigs
p805
(lp806
Vkernelarch-mips/config.octeon
p807
ass(g168
g760
g136
tp808
(dp809
g171
(lp810
V5kc-malta
p811
aVocteon
p812
asg175
I01
ss(Vbase
p813
Vmips64el
p814
tp815
(dp816
g134
(lp817
g136
asVkernel-arch
p818
Vmips
p819
ss(Vimage
p820
g814
NVloongson-3
p821
tp822
(dp823
Vconfigs
p824
(lp825
Vkernelarch-mips/config.loongson-3
p826
ass(Vbuild
p827
g814
tp828
(dp829
Vsigned-modules
p830
I00
sVimage-file
p831
Vvmlinux
p832
ss(Vimage
p833
g814
NV5kc-malta
p834
tp835
(dp836
Vconfigs
p837
(lp838
Vkernelarch-mips/config.malta
p839
aVkernelarch-mips/config.mips64r2
p840
ass(Vdescription
p841
g814
NVocteon
p842
tp843
(dp844
Vhardware
p845
VOcteon
p846
sVhardware-long
p847
VCavium Networks Octeon
p848
ss(Vdescription
p849
g814
NVloongson-3
p850
tp851
(dp852
Vhardware
p853
VLoongson 3A/3B
p854
sVhardware-long
p855
VLoongson 3A or 3B based systems (e.g. from Loongson or Lemote)
p856
ss(Vimage
p857
g814
tp858
(dp859
Vinstall-stem
p860
Vvmlinux
p861
ss(Vdescription
p862
g814
NV5kc-malta
p863
tp864
(dp865
Vhardware
p866
VMIPS Malta
p867
sVhardware-long
p868
VMIPS Malta boards
p869
ss(Vimage
p870
g814
NVocteon
p871
tp872
(dp873
Vconfigs
p874
(lp875
Vkernelarch-mips/config.octeon
p876
ass(g168
g814
g136
tp877
(dp878
g171
(lp879
V5kc-malta
p880
aVloongson-3
p881
aVocteon
p882
asg175
I01
ss(Vbase
p883
Vpowerpc
p884
tp885
(dp886
g134
(lp887
g136
asVkernel-arch
p888
Vpowerpc
p889
ss(Vdescription
p890
g884
NVpowerpc64
p891
tp892
(dp893
Vhardware
p894
V64-bit PowerPC
p895
ss(Vbuild
p896
g884
tp897
(dp898
Vvdso
p899
I01
sVimage-file
p900
Vvmlinux
p901
ss(Vimage
p902
g884
NVpowerpc-smp
p903
tp904
(dp905
Vconfigs
p906
(lp907
Vpowerpc/config.powerpc
p908
aVpowerpc/config.powerpc-smp
p909
ass(Vdescription
p910
g884
NVpowerpc
p911
tp912
(dp913
Vhardware
p914
Vuniprocessor 32-bit PowerPC
p915
ss(Vimage
p916
g884
NVpowerpc64
p917
tp918
(dp919
Vconfigs
p920
(lp921
Vkernelarch-powerpc/config-arch-64
p922
aVkernelarch-powerpc/config-arch-64-be
p923
ass(Vdescription
p924
g884
NVpowerpc-smp
p925
tp926
(dp927
Vhardware
p928
Vmultiprocessor 32-bit PowerPC
p929
ss(Vimage
p930
g884
tp931
(dp932
Vsuggests
p933
Vmkvmlinuz
p934
sVinstall-stem
p935
Vvmlinux
p936
sVconfigs
p937
(lp938
ss(g168
g884
g136
tp939
(dp940
g171
(lp941
Vpowerpc
p942
aVpowerpc-smp
p943
aVpowerpc64
p944
asg175
I01
ss(Vbase
p945
Vpowerpcspe
p946
tp947
(dp948
g134
(lp949
g136
asVkernel-arch
p950
Vpowerpc
p951
ss(Vbuild
p952
g946
tp953
(dp954
Vsigned-modules
p955
I00
sVimage-file
p956
Vvmlinux
p957
sVvdso
p958
I01
ss(Vimage
p959
g946
tp960
(dp961
Vsuggests
p962
Vmkvmlinuz
p963
sVinstall-stem
p964
Vvmlinux
p965
ss(Vdescription
p966
g946
tp967
(dp968
Vhardware
p969
V32-bit PowerPC with SPE (instead of AltiVec) with SMP support
p970
ss(g168
g946
g136
tp971
(dp972
g171
(lp973
Vpowerpcspe
p974
asg175
I01
ss(Vbase
p975
Vppc64
p976
tp977
(dp978
g134
(lp979
g136
asVkernel-arch
p980
Vpowerpc
p981
ss(Vdescription
p982
g976
NVpowerpc64
p983
tp984
(dp985
Vhardware
p986
V64-bit PowerPC
p987
ss(Vbuild
p988
g976
tp989
(dp990
Vsigned-modules
p991
I00
sVimage-file
p992
Vvmlinux
p993
sVvdso
p994
I01
ss(Vimage
p995
g976
NVpowerpc64
p996
tp997
(dp998
Vconfigs
p999
(lp1000
Vkernelarch-powerpc/config-arch-64
p1001
aVkernelarch-powerpc/config-arch-64-be
p1002
ass(Vimage
p1003
g976
tp1004
(dp1005
Vsuggests
p1006
Vmkvmlinuz
p1007
sVinstall-stem
p1008
Vvmlinux
p1009
sVconfigs
p1010
(lp1011
ss(g168
g976
g136
tp1012
(dp1013
g171
(lp1014
Vpowerpc64
p1015
asg175
I01
ss(Vbase
p1016
Vppc64el
p1017
tp1018
(dp1019
g134
(lp1020
g136
asVkernel-arch
p1021
Vpowerpc
p1022
ss(Vdescription
p1023
g1017
NVpowerpc64le
p1024
tp1025
(dp1026
Vhardware
p1027
VLittle-endian 64-bit PowerPC
p1028
ss(Vbuild
p1029
g1017
tp1030
(dp1031
Vvdso
p1032
I01
sVimage-file
p1033
Vvmlinux
p1034
ss(Vimage
p1035
g1017
tp1036
(dp1037
Vsuggests
p1038
Vmkvmlinuz
p1039
sVinstall-stem
p1040
Vvmlinux
p1041
sVconfigs
p1042
(lp1043
ss(Vimage
p1044
g1017
NVpowerpc64le
p1045
tp1046
(dp1047
Vconfigs
p1048
(lp1049
Vkernelarch-powerpc/config-arch-64
p1050
aVkernelarch-powerpc/config-arch-64-le
p1051
ass(g168
g1017
g136
tp1052
(dp1053
g171
(lp1054
Vpowerpc64le
p1055
asg175
I01
ss(Vbase
p1056
Vs390
p1057
tp1058
(dp1059
Vfeaturesets
p1060
(lp1061
sVkernel-arch
p1062
Vs390
p1063
ss(Vbase
p1064
Vs390x
p1065
tp1066
(dp1067
g134
(lp1068
g136
asVkernel-arch
p1069
Vs390
p1070
ss(Vdescription
p1071
g1065
NVs390x
p1072
tp1073
(dp1074
Vhardware
p1075
VIBM zSeries
p1076
ss(Vbuild
p1077
g1065
tp1078
(dp1079
Vvdso
p1080
I01
sVimage-file
p1081
Varch/s390/boot/image
p1082
ss(Vbuild
p1083
g1065
NVs390x
p1084
tp1085
(dp1086
Vdebug-info
p1087
I01
ss(Vrelations
p1088
g1065
tp1089
(dp1090
Vheaders%gcc-6
p1091
Vlinux-compiler-gcc-6-s390
p1092
ss(Vimage
p1093
g1065
tp1094
(dp1095
Vinstall-stem
p1096
Vvmlinuz
p1097
sVbootloaders
p1098
(lp1099
Vs390-tools
p1100
ass(g168
g1065
g136
tp1101
(dp1102
g171
(lp1103
Vs390x
p1104
asg175
I01
ss(Vbase
p1105
Vsh3
p1106
tp1107
(dp1108
Vfeaturesets
p1109
(lp1110
sVkernel-arch
p1111
Vsh
p1112
ss(Vbase
p1113
Vsh4
p1114
tp1115
(dp1116
g134
(lp1117
g136
asVkernel-arch
p1118
Vsh
p1119
ss(Vbuild
p1120
g1114
tp1121
(dp1122
Vsigned-modules
p1123
I00
sVimage-file
p1124
Varch/sh/boot/zImage
p1125
ss(Vdescription
p1126
g1114
NVsh7751r
p1127
tp1128
(dp1129
Vhardware
p1130
Vsh7751r
p1131
sVhardware-long
p1132
VRenesas SH7751R R2D plus board
p1133
ss(Vdescription
p1134
g1114
NVsh7785lcr
p1135
tp1136
(dp1137
Vhardware
p1138
Vsh7785lcr
p1139
sVhardware-long
p1140
VRenesas SH7785 reference board
p1141
ss(Vimage
p1142
g1114
tp1143
(dp1144
Vinstall-stem
p1145
Vvmlinuz
p1146
ss(Vimage
p1147
g1114
NVsh7785lcr
p1148
tp1149
(dp1150
Vrecommends
p1151
Vu-boot-tools
p1152
sVcheck-size
p1153
L4194304L
ss(g168
g1114
g136
tp1154
(dp1155
g171
(lp1156
Vsh7751r
p1157
aVsh7785lcr
p1158
asg175
I01
ss(Vbase
p1159
Vsparc
p1160
tp1161
(dp1162
Vfeaturesets
p1163
(lp1164
sVkernel-arch
p1165
Vsparc
p1166
ss(Vbase
p1167
Vsparc64
p1168
tp1169
(dp1170
g134
(lp1171
g136
asVkernel-arch
p1172
Vsparc
p1173
ss(Vbuild
p1174
g1168
tp1175
(dp1176
Vsigned-modules
p1177
I00
sVimage-file
p1178
Varch/sparc/boot/zImage
p1179
ss(Vimage
p1180
g1168
NVsparc64
p1181
tp1182
(dp1183
Vconfigs
p1184
(lp1185
Vkernelarch-sparc/config-up
p1186
ass(Vimage
p1187
g1168
NVsparc64-smp
p1188
tp1189
(dp1190
Vconfigs
p1191
(lp1192
Vkernelarch-sparc/config-smp
p1193
ass(Vimage
p1194
g1168
tp1195
(dp1196
Vsuggests
p1197
Vsilo, fdutils
p1198
sVinstall-stem
p1199
Vvmlinuz
p1200
sVconfigs
p1201
(lp1202
ss(Vdescription
p1203
g1168
NVsparc64-smp
p1204
tp1205
(dp1206
Vhardware
p1207
Vmultiprocessor 64-bit UltraSPARC
p1208
ss(Vdescription
p1209
g1168
NVsparc64
p1210
tp1211
(dp1212
Vhardware
p1213
Vuniprocessor 64-bit UltraSPARC
p1214
ss(g168
g1168
g136
tp1215
(dp1216
g171
(lp1217
Vsparc64
p1218
aVsparc64-smp
p1219
asg175
I01
ss(Vbase
p1220
Vtilegx
p1221
tp1222
(dp1223
Vfeaturesets
p1224
(lp1225
sVkernel-arch
p1226
Vtile
p1227
ss(Vbase
p1228
Vx32
p1229
tp1230
(dp1231
Vfeaturesets
p1232
(lp1233
sVkernel-arch
p1234
Vx86
p1235
ss(Vdescription
p1236
NVrt
p1237
tp1238
(dp1239
Vparts
p1240
(lp1241
Vrt
p1242
asVpart-long-rt
p1243
VThis kernel includes the PREEMPT_RT realtime patch set.
p1244
sVpart-short-rt
p1245
VPREEMPT_RT
p1246
ss(Vabi
p1247
Ng1237
tp1248
(dp1249
Vignore-changes
p1250
(lp1251
V*
p1252
ass(Vversion
p1253
tp1254
(dp1255
Vupstream
p1256
V4.9
p1257
sVsource
p1258
V4.9.82-1+deb9u3+rpi1~jessie
p1259
sVabiname
p1260
V4.9.0-6
p1261
sVabiname_base
p1262
V4.9.0
p1263
ss.