cdebian_linux.config
ConfigCore
p0
(tRp1
(Vbase
p2
tp3
(dp4
Varches
p5
(lp6
Valpha
p7
aVamd64
p8
aVarm64
p9
aVarmel
p10
aVarmhf
p11
aVhppa
p12
aVi386
p13
aVm68k
p14
aVmips
p15
aVmipsel
p16
aVmipsn32
p17
aVmipsn32el
p18
aVmips64
p19
aVmips64el
p20
aVpowerpc
p21
aVpowerpcspe
p22
aVppc64
p23
aVppc64el
p24
aVs390
p25
aVs390x
p26
aVsh3
p27
aVsh4
p28
aVsparc
p29
aVsparc64
p30
aVtilegx
p31
aVx32
p32
asVfeaturesets
p33
(lp34
Vnone
p35
aVrt
p36
asVcompiler
p37
Vgcc-4.9
p38
ss(Vbuild
p39
tp40
(dp41
Vsigned-modules
p42
I00
ss(Vbase
p43
NVrt
p44
tp45
(dp46
Venabled
p47
I01
ss(Vdescription
p48
tp49
(dp50
Vpart-long-up
p51
VThis kernel is not suitable for SMP (multi-processor,\u000amulti-core or hyper-threaded) systems.
p52
sVpart-long-xen
p53
VThis kernel also runs on a Xen hypervisor.\u000aIt supports both privileged (dom0) and unprivileged (domU) operation.
p54
ss(Vpackages
p55
tp56
(dp57
Vtools-unversioned
p58
I00
sVlibc-dev
p59
I00
sVinstaller
p60
I00
ss(Vrelations
p61
tp62
(dp63
Vgcc-4.7
p64
Vgcc-4.7
p65
sVgcc-4.9
p66
Vgcc-4.9
p67
sVgcc-4.8
p68
Vgcc-4.8
p69
sVinitramfs-tools
p70
Vinitramfs-tools (>= 0.120+deb8u2)
p71
sVgcc-4.6
p72
Vgcc-4.6
p73
sVinitramfs-fallback
p74
Vlinux-initramfs-tool
p75
ss(Vimage
p76
tp77
(dp78
Vinitramfs-generators
p79
(lp80
Vinitramfs-tools
p81
aVinitramfs-fallback
p82
ass(Vabi
p83
tp84
(dp85
Vabiname
p86
V0.bpo.9
p87
sVignore-changes
p88
(lp89
V__cpuhp_*
p90
aVbpf_analyzer
p91
aVcpu_tlbstate
p92
aVcxl_*
p93
aVinet_frag_*
p94
aVinet_frags_*
p95
aVinjectm
p96
aVip6_expire_frag_queue
p97
aVip6_frag_*
p98
aVmce_*
p99
aVmm_iommu_*
p100
aVmv_mbus_*
p101
aVregister_cxl_calls
p102
aVregister_key_type
p103
aVtpm_*
p104
aVtpmm_chip_alloc
p105
aVunregister_cxl_calls
p106
aVmodule:drivers/block/loop
p107
aVmodule:drivers/crypto/ccp/*
p108
aVmodule:drivers/edac/edac_mce_amd
p109
aVmodule:drivers/hv/*
p110
aVmodule:drivers/iio/common/hid-sensors/*
p111
aVmodule:drivers/iio/common/st_sensors/**
p112
aVmodule:drivers/net/ethernet/**
p113
aVmodule:drivers/net/wireless/**
p114
aVmodule:drivers/nfc/**
p115
aVmodule:drivers/nvdimm/*
p116
aVmodule:drivers/nvme/**
p117
aVmodule:drivers/power/supply/bq27xxx_battery
p118
aVmodule:drivers/s390/net/qeth
p119
aVmodule:drivers/s390/net/qeth*
p120
aVmodule:drivers/scsi/cxgbi/*
p121
aVmodule:drivers/scsi/esp_scsi
p122
aVmodule:drivers/scsi/libiscs*
p123
aVmodule:drivers/scsi/qla2xxx/qla2xxx
p124
aVmodule:drivers/scsi/ufs/*
p125
aVmodule:drivers/target/**
p126
aVmodule:drivers/usb/chipidea/**
p127
aVmodule:drivers/usb/gadget/**
p128
aVmodule:drivers/usb/host/**
p129
aVmodule:drivers/usb/musb/**
p130
aVmodule:fs/nfs/nfs
p131
aVmodule:net/ceph/libceph
p132
aVmodule:net/nfc/hci/hci
p133
aVmodule:net/l2tp/**
p134
aVmodule:net/vmw_vsock/*
p135
aVmodule:sound/firewire/snd-firewire-lib
p136
aVmodule:sound/pci/hda/*
p137
aVbtree_*
p138
aVvisitor*
p139
aVcan_rx_register
p140
aVip6_xmit
p141
aVmodule:net/dccp/dccp
p142
aVmodule:net/rds/rds
p143
aVdevfreq_*
p144
aVdevm_devfreq_*
p145
aVupdate_devfreq
p146
aVmodule:drivers/infiniband/**
p147
aVacpi_ec_add_query_handler
p148
aVacpi_ec_remove_query_handler
p149
aVfirst_ec
p150
aVdebugfs_create_automount
p151
aV__gfn_*
p152
aV__kvm_*
p153
aVgfn_*
p154
aVkvm_*
p155
aVmark_page_dirty
p156
aVvcpu_*
p157
aVmodule:arch/powerpc/kvm/*
p158
aVmodule:arch/s390/kvm/*
p159
aVmodule:arch/x86/kvm/*
p160
aV*_xen_*
p161
aV*_xenballooned_*
p162
aV*_xenbus_*
p163
aV*_xenstore_*
p164
aVgnttab_*
p165
aVHYPERVISOR_*
p166
aVx86_hyper_xen
p167
aVxen_*
p168
aVxenbus_*
p169
aVreturn_address
p170
aVbr_netfilter_enable
p171
ass(Vbase
p172
Valpha
p173
tp174
(dp175
Vfeaturesets
p176
(lp177
Vnone
p178
asVkernel-arch
p179
Valpha
p180
ss(Vdescription
p181
g173
NValpha-smp
p182
tp183
(dp184
Vhardware
p185
VAlpha SMP
p186
sVhardware-long
p187
VDEC Alpha SMP systems with extended kernel start address (Wildfire, Titan, Marvel)
p188
ss(Vbuild
p189
g173
tp190
(dp191
Vsigned-modules
p192
I00
sVimage-file
p193
Varch/alpha/boot/vmlinux.gz
p194
ss(Vdescription
p195
g173
NValpha-generic
p196
tp197
(dp198
Vhardware
p199
VAlpha
p200
sVhardware-long
p201
VDEC Alpha systems with extended kernel start address (Wildfire, Titan, Marvel)
p202
ss(Vimage
p203
g173
tp204
(dp205
Vsuggests
p206
Vaboot, fdutils
p207
sVinstall-stem
p208
Vvmlinuz
p209
ss(Vbase
p210
g173
g178
tp211
(dp212
Vflavours
p213
(lp214
Valpha-generic
p215
aValpha-smp
p216
asVimplicit-flavour
p217
I01
ss(Vbase
p218
Vamd64
p219
tp220
(dp221
Vfeaturesets
p222
(lp223
Vnone
p224
aVrt
p225
asVkernel-arch
p226
Vx86
p227
ss(Vdescription
p228
g219
NVamd64
p229
tp230
(dp231
Vhardware
p232
V64-bit PCs
p233
sVhardware-long
p234
VPCs with AMD64, Intel 64 or VIA Nano processors
p235
ss(Vbuild
p236
g219
tp237
(dp238
Vvdso
p239
I01
sVimage-file
p240
Varch/x86/boot/bzImage
p241
sVdebug-info
p242
I01
ss(Vrelations
p243
g219
tp244
(dp245
Vgcc-4.9
p246
Vgcc-4.9 (>= 4.9.2-10+deb7u1), gcc-4.9 (<< 4.9.2-11)
p247
sVheaders%gcc-4.9
p248
Vlinux-compiler-gcc-4.9-x86 (>= 3.16.51-3+deb8u2~), linux-compiler-gcc-4.9-x86 (<< 3.17) | linux-compiler-gcc-4.9-x86 (>= 4.9.82-1+deb9u1~)
p249
ss(Vimage
p250
g219
tp251
(dp252
Vinstall-stem
p253
Vvmlinuz
p254
sVbootloaders
p255
(lp256
Vgrub-pc
p257
aVgrub-efi-amd64
p258
aVextlinux
p259
ass(Vbase
p260
g219
Vnone
p261
tp262
(dp263
Vflavours
p264
(lp265
Vamd64
p266
ass(Vdescription
p267
g219
g261
Vamd64
p268
tp269
(dp270
Vparts
p271
(lp272
Vxen
p273
ass(Vbase
p274
g219
Vrt
p275
tp276
(dp277
Vflavours
p278
(lp279
Vamd64
p280
ass(Vbase
p281
Varm64
p282
tp283
(dp284
Vfeaturesets
p285
(lp286
Vnone
p287
asVkernel-arch
p288
Varm64
p289
ss(Vdescription
p290
g282
NVarm64
p291
tp292
(dp293
Vhardware
p294
V64-bit ARMv8 machines
p295
ss(Vbuild
p296
g282
tp297
(dp298
Vvdso
p299
I01
sVimage-file
p300
Varch/arm64/boot/Image
p301
sVdebug-info
p302
I01
ss(Vimage
p303
g282
NVarm64
p304
tp305
(dp306
s(Vimage
p307
g282
tp308
(dp309
Vbreaks
p310
Vlibmozjs185-1.0, libmozjs-24-0 (<< 24.2.0-5.1~)
p311
sVinstall-stem
p312
Vvmlinuz
p313
ss(Vbase
p314
g282
Vnone
p315
tp316
(dp317
Vflavours
p318
(lp319
Varm64
p320
ass(Vbase
p321
Varmel
p322
tp323
(dp324
g176
(lp325
g178
asVkernel-arch
p326
Varm
p327
ss(Vbuild
p328
g322
tp329
(dp330
Vsigned-modules
p331
I00
sVimage-file
p332
Varch/arm/boot/zImage
p333
ss(Vimage
p334
g322
NVmarvell
p335
tp336
(dp337
Vrecommends
p338
Vu-boot-tools
p339
sVbreaks
p340
Vflash-kernel (<< 3.57~)
p341
sVcheck-size-with-dtb
p342
I01
sVcheck-size
p343
L2097080L
ss(Vdescription
p344
g322
NVmarvell
p345
tp346
(dp347
Vhardware
p348
VMarvell Kirkwood/Orion
p349
sVhardware-long
p350
VMarvell Kirkwood based systems (SheevaPlug, QNAP TS-119/TS-219, etc)\u000aand Orion 5181, 5182 and 5281 based systems (QNAP TS-109/TS-209, etc)
p351
ss(Vrelations
p352
g322
tp353
(dp354
Vheaders%gcc-4.9
p355
Vlinux-compiler-gcc-4.9-arm
p356
ss(Vimage
p357
g322
tp358
(dp359
Vinstall-stem
p360
Vvmlinuz
p361
ss(g210
g322
g178
tp362
(dp363
g213
(lp364
Vmarvell
p365
asg217
I01
ss(Vbase
p366
Varmhf
p367
tp368
(dp369
g176
(lp370
g178
asVkernel-arch
p371
Varm
p372
ss(Vdescription
p373
g367
NVarmmp
p374
tp375
(dp376
Vhardware
p377
VARMv7 multiplatform compatible SoCs
p378
sVhardware-long
p379
VARMv7 multiplatform kernel. See\u000ahttps://wiki.debian.org/DebianKernel/ARMMP for details of supported\u000aplatforms
p380
ss(Vbuild
p381
g367
tp382
(dp383
Vvdso
p384
I01
sVimage-file
p385
Varch/arm/boot/zImage
p386
ss(Vdescription
p387
g367
NVarmmp-lpae
p388
tp389
(dp390
Vhardware
p391
VARMv7 multiplatform compatible SoCs supporting LPAE
p392
sVhardware-long
p393
VARMv7 multiplatform kernel supporting LPAE. See\u000ahttps://wiki.debian.org/DebianKernel/ARMMP for details of supported\u000aplatforms.
p394
ss(Vrelations
p395
g367
tp396
(dp397
Vheaders%gcc-4.9
p398
Vlinux-compiler-gcc-4.9-arm
p399
ss(Vimage
p400
g367
tp401
(dp402
Vinstall-stem
p403
Vvmlinuz
p404
ss(g210
g367
g178
tp405
(dp406
g213
(lp407
Varmmp
p408
aVarmmp-lpae
p409
asg217
I01
ss(Vbase
p410
Vhppa
p411
tp412
(dp413
g176
(lp414
g178
asVkernel-arch
p415
Vparisc
p416
ss(Vbuild
p417
g411
tp418
(dp419
Vsigned-modules
p420
I00
sVimage-file
p421
Vvmlinux
p422
ss(Vdescription
p423
g411
NVparisc64-smp
p424
tp425
(dp426
Vhardware
p427
Vmultiprocessor 64-bit PA-RISC
p428
sVhardware-long
p429
VHP PA-RISC 64-bit SMP systems with support for more than 4 GB RAM
p430
ss(Vbase
p431
g411
NVparisc64-smp
p432
tp433
(dp434
Vcflags
p435
V-fno-cse-follow-jumps
p436
sVoverride-host-type
p437
Vhppa64-linux-gnu
p438
ss(Vrelations
p439
g411
tp440
(dp441
Vgcc-4.9
p442
Vgcc-4.9, binutils-hppa64, gcc-4.9-hppa64
p443
ss(Vdescription
p444
g411
NVparisc
p445
tp446
(dp447
Vhardware
p448
V32-bit PA-RISC
p449
sVhardware-long
p450
VHP PA-RISC 32-bit systems with max 4 GB RAM
p451
ss(Vimage
p452
g411
tp453
(dp454
Vsuggests
p455
Vpalo
p456
sVinstall-stem
p457
Vvmlinux
p458
ss(g210
g411
g178
tp459
(dp460
g213
(lp461
Vparisc
p462
aVparisc64-smp
p463
asg217
I01
ss(Vbase
p464
Vi386
p465
tp466
(dp467
Vfeaturesets
p468
(lp469
Vnone
p470
aVrt
p471
asVkernel-arch
p472
Vx86
p473
ss(Vbuild
p474
g465
tp475
(dp476
Vvdso
p477
I01
sVimage-file
p478
Varch/x86/boot/bzImage
p479
ss(Vdescription
p480
g465
NV686-pae
p481
tp482
(dp483
Vhardware
p484
Vmodern PCs
p485
sVhardware-long
p486
VPCs with one or more processors supporting PAE
p487
sVparts
p488
(lp489
Vpae
p490
ass(Vdescription
p491
g465
tp492
(dp493
Vpart-long-pae
p494
VThis kernel requires PAE (Physical Address Extension).\u000aThis feature is supported by the Intel Pentium Pro/II/III/4/4M/D, Xeon,\u000aCore and Atom; AMD Geode NX, Athlon (K7), Duron, Opteron, Sempron,\u000aTurion or Phenom; Transmeta Efficeon; VIA C7; and some other processors.
p495
ss(Vbuild
p496
g465
NV686-pae
p497
tp498
(dp499
Vdebug-info
p500
I01
ss(Vdescription
p501
g465
NV686
p502
tp503
(dp504
Vhardware
p505
Volder PCs
p506
sVhardware-long
p507
VPCs with one or more processors not supporting PAE
p508
ss(Vrelations
p509
g465
tp510
(dp511
Vgcc-4.9
p512
Vgcc-4.9 (>= 4.9.2-10+deb7u1), gcc-4.9 (<< 4.9.2-11)
p513
sVheaders%gcc-4.9
p514
Vlinux-compiler-gcc-4.9-x86 (>= 3.16.51-3+deb8u2~), linux-compiler-gcc-4.9-x86 (<< 3.17) | linux-compiler-gcc-4.9-x86 (>= 4.9.82-1+deb9u1~)
p515
ss(Vimage
p516
g465
tp517
(dp518
Vinstall-stem
p519
Vvmlinuz
p520
sVbootloaders
p521
(lp522
Vgrub-pc
p523
aVextlinux
p524
ass(Vbase
p525
g465
Vnone
p526
tp527
(dp528
Vflavours
p529
(lp530
V686
p531
aV686-pae
p532
ass(Vdescription
p533
g465
g526
V686-pae
p534
tp535
(dp536
Vparts
p537
(lp538
Vxen
p539
ass(Vbase
p540
g465
Vrt
p541
tp542
(dp543
Vflavours
p544
(lp545
V686-pae
p546
ass(Vbase
p547
Vm68k
p548
tp549
(dp550
Vcflags
p551
V-ffreestanding
p552
sg176
(lp553
g178
asVcompiler
p554
Vgcc-4.8
p555
sVkernel-arch
p556
Vm68k
p557
ss(Vbuild
p558
g548
tp559
(dp560
Vsigned-modules
p561
I00
sVimage-file
p562
Vvmlinux.gz
p563
ss(Vdescription
p564
g548
NVm68k
p565
tp566
(dp567
Vhardware
p568
VMotorola MC68020+ family
p569
ss(Vimage
p570
g548
tp571
(dp572
Vsuggests
p573
Vvmelilo, fdutils
p574
sVinstall-stem
p575
Vvmlinuz
p576
ss(g210
g548
g178
tp577
(dp578
g213
(lp579
Vm68k
p580
asg217
I01
ss(Vbase
p581
Vmips
p582
tp583
(dp584
g176
(lp585
g178
asVkernel-arch
p586
Vmips
p587
ss(Vbuild
p588
g582
tp589
(dp590
Vsigned-modules
p591
I00
sVimage-file
p592
Vvmlinux
p593
ss(Vimage
p594
g582
NV4kc-malta
p595
tp596
(dp597
Vconfigs
p598
(lp599
Vkernelarch-mips/config.malta
p600
aVkernelarch-mips/config.mips32r2
p601
ass(Vimage
p602
g582
NV5kc-malta
p603
tp604
(dp605
Vconfigs
p606
(lp607
Vkernelarch-mips/config.malta
p608
aVkernelarch-mips/config.mips64r2
p609
ass(Vdescription
p610
g582
NVocteon
p611
tp612
(dp613
Vhardware
p614
VOcteon
p615
sVhardware-long
p616
VCavium Networks Octeon
p617
ss(Vimage
p618
g582
NVocteon
p619
tp620
(dp621
Vconfigs
p622
(lp623
Vkernelarch-mips/config.octeon
p624
ass(Vimage
p625
g582
tp626
(dp627
Vinstall-stem
p628
Vvmlinux
p629
ss(Vdescription
p630
g582
NV5kc-malta
p631
tp632
(dp633
Vhardware
p634
VMIPS Malta (64-bit)
p635
sVhardware-long
p636
VMIPS Malta boards (64-bit)
p637
ss(Vdescription
p638
g582
NV4kc-malta
p639
tp640
(dp641
Vhardware
p642
VMIPS Malta
p643
sVhardware-long
p644
VMIPS Malta boards
p645
ss(g210
g582
g178
tp646
(dp647
g213
(lp648
V4kc-malta
p649
aV5kc-malta
p650
aVocteon
p651
asg217
I01
ss(Vbase
p652
Vmipsel
p653
tp654
(dp655
g176
(lp656
g178
asVkernel-arch
p657
Vmips
p658
ss(Vimage
p659
g653
NVloongson-3
p660
tp661
(dp662
Vconfigs
p663
(lp664
Vkernelarch-mips/config.loongson-3
p665
ass(Vbuild
p666
g653
tp667
(dp668
Vsigned-modules
p669
I00
sVimage-file
p670
Vvmlinux
p671
ss(Vimage
p672
g653
NV4kc-malta
p673
tp674
(dp675
Vconfigs
p676
(lp677
Vkernelarch-mips/config.malta
p678
aVkernelarch-mips/config.mips32r2
p679
ass(Vimage
p680
g653
NV5kc-malta
p681
tp682
(dp683
Vconfigs
p684
(lp685
Vkernelarch-mips/config.malta
p686
aVkernelarch-mips/config.mips64r2
p687
ass(Vdescription
p688
g653
NVocteon
p689
tp690
(dp691
Vhardware
p692
VOcteon
p693
sVhardware-long
p694
VCavium Networks Octeon
p695
ss(Vdescription
p696
g653
NVloongson-3
p697
tp698
(dp699
Vhardware
p700
VLoongson 3A/3B
p701
sVhardware-long
p702
VLoongson 3A or 3B based systems (e.g. from Loongson or Lemote)
p703
ss(Vimage
p704
g653
NVocteon
p705
tp706
(dp707
Vconfigs
p708
(lp709
Vkernelarch-mips/config.octeon
p710
ass(Vimage
p711
g653
tp712
(dp713
Vinstall-stem
p714
Vvmlinux
p715
ss(Vdescription
p716
g653
NV5kc-malta
p717
tp718
(dp719
Vhardware
p720
VMIPS Malta (64-bit)
p721
sVhardware-long
p722
VMIPS Malta boards (64-bit)
p723
ss(Vdescription
p724
g653
NV4kc-malta
p725
tp726
(dp727
Vhardware
p728
VMIPS Malta
p729
sVhardware-long
p730
VMIPS Malta boards
p731
ss(g210
g653
g178
tp732
(dp733
g213
(lp734
V4kc-malta
p735
aV5kc-malta
p736
aVloongson-3
p737
aVocteon
p738
asg217
I01
ss(Vbase
p739
Vmipsn32
p740
tp741
(dp742
Vfeaturesets
p743
(lp744
sVkernel-arch
p745
Vmips
p746
ss(Vbase
p747
Vmipsn32el
p748
tp749
(dp750
Vfeaturesets
p751
(lp752
sVkernel-arch
p753
Vmips
p754
ss(Vbase
p755
Vmips64
p756
tp757
(dp758
g176
(lp759
g178
asVkernel-arch
p760
Vmips
p761
ss(Vbuild
p762
g756
tp763
(dp764
Vsigned-modules
p765
I00
sVimage-file
p766
Vvmlinux
p767
ss(Vimage
p768
g756
NV5kc-malta
p769
tp770
(dp771
Vconfigs
p772
(lp773
Vkernelarch-mips/config.malta
p774
aVkernelarch-mips/config.mips64r2
p775
ass(Vdescription
p776
g756
NVocteon
p777
tp778
(dp779
Vhardware
p780
VOcteon
p781
sVhardware-long
p782
VCavium Networks Octeon
p783
ss(Vimage
p784
g756
tp785
(dp786
Vinstall-stem
p787
Vvmlinux
p788
ss(Vdescription
p789
g756
NV5kc-malta
p790
tp791
(dp792
Vhardware
p793
VMIPS Malta
p794
sVhardware-long
p795
VMIPS Malta boards
p796
ss(Vimage
p797
g756
NVocteon
p798
tp799
(dp800
Vconfigs
p801
(lp802
Vkernelarch-mips/config.octeon
p803
ass(g210
g756
g178
tp804
(dp805
g213
(lp806
V5kc-malta
p807
aVocteon
p808
asg217
I01
ss(Vbase
p809
Vmips64el
p810
tp811
(dp812
g176
(lp813
g178
asVkernel-arch
p814
Vmips
p815
ss(Vimage
p816
g810
NVloongson-3
p817
tp818
(dp819
Vconfigs
p820
(lp821
Vkernelarch-mips/config.loongson-3
p822
ass(Vbuild
p823
g810
tp824
(dp825
Vsigned-modules
p826
I00
sVimage-file
p827
Vvmlinux
p828
ss(Vimage
p829
g810
NV5kc-malta
p830
tp831
(dp832
Vconfigs
p833
(lp834
Vkernelarch-mips/config.malta
p835
aVkernelarch-mips/config.mips64r2
p836
ass(Vdescription
p837
g810
NVocteon
p838
tp839
(dp840
Vhardware
p841
VOcteon
p842
sVhardware-long
p843
VCavium Networks Octeon
p844
ss(Vdescription
p845
g810
NVloongson-3
p846
tp847
(dp848
Vhardware
p849
VLoongson 3A/3B
p850
sVhardware-long
p851
VLoongson 3A or 3B based systems (e.g. from Loongson or Lemote)
p852
ss(Vimage
p853
g810
tp854
(dp855
Vinstall-stem
p856
Vvmlinux
p857
ss(Vdescription
p858
g810
NV5kc-malta
p859
tp860
(dp861
Vhardware
p862
VMIPS Malta
p863
sVhardware-long
p864
VMIPS Malta boards
p865
ss(Vimage
p866
g810
NVocteon
p867
tp868
(dp869
Vconfigs
p870
(lp871
Vkernelarch-mips/config.octeon
p872
ass(g210
g810
g178
tp873
(dp874
g213
(lp875
V5kc-malta
p876
aVloongson-3
p877
aVocteon
p878
asg217
I01
ss(Vbase
p879
Vpowerpc
p880
tp881
(dp882
g176
(lp883
g178
asVkernel-arch
p884
Vpowerpc
p885
ss(Vdescription
p886
g880
NVpowerpc64
p887
tp888
(dp889
Vhardware
p890
V64-bit PowerPC
p891
ss(Vbuild
p892
g880
tp893
(dp894
Vvdso
p895
I01
sVimage-file
p896
Vvmlinux
p897
ss(Vimage
p898
g880
NVpowerpc-smp
p899
tp900
(dp901
Vconfigs
p902
(lp903
Vpowerpc/config.powerpc
p904
aVpowerpc/config.powerpc-smp
p905
ass(Vdescription
p906
g880
NVpowerpc
p907
tp908
(dp909
Vhardware
p910
Vuniprocessor 32-bit PowerPC
p911
ss(Vimage
p912
g880
NVpowerpc64
p913
tp914
(dp915
Vconfigs
p916
(lp917
Vkernelarch-powerpc/config-arch-64
p918
aVkernelarch-powerpc/config-arch-64-be
p919
ass(Vdescription
p920
g880
NVpowerpc-smp
p921
tp922
(dp923
Vhardware
p924
Vmultiprocessor 32-bit PowerPC
p925
ss(Vimage
p926
g880
tp927
(dp928
Vsuggests
p929
Vmkvmlinuz
p930
sVinstall-stem
p931
Vvmlinux
p932
sVconfigs
p933
(lp934
ss(g210
g880
g178
tp935
(dp936
g213
(lp937
Vpowerpc
p938
aVpowerpc-smp
p939
aVpowerpc64
p940
asg217
I01
ss(Vbase
p941
Vpowerpcspe
p942
tp943
(dp944
g176
(lp945
g178
asVkernel-arch
p946
Vpowerpc
p947
ss(Vbuild
p948
g942
tp949
(dp950
Vsigned-modules
p951
I00
sVimage-file
p952
Vvmlinux
p953
sVvdso
p954
I01
ss(Vimage
p955
g942
tp956
(dp957
Vsuggests
p958
Vmkvmlinuz
p959
sVinstall-stem
p960
Vvmlinux
p961
ss(Vdescription
p962
g942
tp963
(dp964
Vhardware
p965
V32-bit PowerPC with SPE (instead of AltiVec) with SMP support
p966
ss(g210
g942
g178
tp967
(dp968
g213
(lp969
Vpowerpcspe
p970
asg217
I01
ss(Vbase
p971
Vppc64
p972
tp973
(dp974
g176
(lp975
g178
asVkernel-arch
p976
Vpowerpc
p977
ss(Vdescription
p978
g972
NVpowerpc64
p979
tp980
(dp981
Vhardware
p982
V64-bit PowerPC
p983
ss(Vbuild
p984
g972
tp985
(dp986
Vsigned-modules
p987
I00
sVimage-file
p988
Vvmlinux
p989
sVvdso
p990
I01
ss(Vimage
p991
g972
NVpowerpc64
p992
tp993
(dp994
Vconfigs
p995
(lp996
Vkernelarch-powerpc/config-arch-64
p997
aVkernelarch-powerpc/config-arch-64-be
p998
ass(Vimage
p999
g972
tp1000
(dp1001
Vsuggests
p1002
Vmkvmlinuz
p1003
sVinstall-stem
p1004
Vvmlinux
p1005
sVconfigs
p1006
(lp1007
ss(g210
g972
g178
tp1008
(dp1009
g213
(lp1010
Vpowerpc64
p1011
asg217
I01
ss(Vbase
p1012
Vppc64el
p1013
tp1014
(dp1015
g176
(lp1016
g178
asVkernel-arch
p1017
Vpowerpc
p1018
ss(Vdescription
p1019
g1013
NVpowerpc64le
p1020
tp1021
(dp1022
Vhardware
p1023
VLittle-endian 64-bit PowerPC
p1024
ss(Vbuild
p1025
g1013
tp1026
(dp1027
Vvdso
p1028
I01
sVimage-file
p1029
Vvmlinux
p1030
ss(Vimage
p1031
g1013
tp1032
(dp1033
Vsuggests
p1034
Vmkvmlinuz
p1035
sVinstall-stem
p1036
Vvmlinux
p1037
sVconfigs
p1038
(lp1039
ss(Vimage
p1040
g1013
NVpowerpc64le
p1041
tp1042
(dp1043
Vconfigs
p1044
(lp1045
Vkernelarch-powerpc/config-arch-64
p1046
aVkernelarch-powerpc/config-arch-64-le
p1047
ass(g210
g1013
g178
tp1048
(dp1049
g213
(lp1050
Vpowerpc64le
p1051
asg217
I01
ss(Vbase
p1052
Vs390
p1053
tp1054
(dp1055
Vfeaturesets
p1056
(lp1057
sVkernel-arch
p1058
Vs390
p1059
ss(Vbase
p1060
Vs390x
p1061
tp1062
(dp1063
g176
(lp1064
g178
asVkernel-arch
p1065
Vs390
p1066
ss(Vdescription
p1067
g1061
NVs390x
p1068
tp1069
(dp1070
Vhardware
p1071
VIBM zSeries
p1072
ss(Vbuild
p1073
g1061
tp1074
(dp1075
Vvdso
p1076
I01
sVimage-file
p1077
Varch/s390/boot/image
p1078
ss(Vbuild
p1079
g1061
NVs390x
p1080
tp1081
(dp1082
Vdebug-info
p1083
I01
ss(Vrelations
p1084
g1061
tp1085
(dp1086
Vheaders%gcc-4.9
p1087
Vlinux-compiler-gcc-4.9-s390
p1088
ss(Vimage
p1089
g1061
tp1090
(dp1091
Vinstall-stem
p1092
Vvmlinuz
p1093
sVbootloaders
p1094
(lp1095
Vs390-tools
p1096
ass(g210
g1061
g178
tp1097
(dp1098
g213
(lp1099
Vs390x
p1100
asg217
I01
ss(Vbase
p1101
Vsh3
p1102
tp1103
(dp1104
Vfeaturesets
p1105
(lp1106
sVkernel-arch
p1107
Vsh
p1108
ss(Vbase
p1109
Vsh4
p1110
tp1111
(dp1112
g176
(lp1113
g178
asVkernel-arch
p1114
Vsh
p1115
ss(Vbuild
p1116
g1110
tp1117
(dp1118
Vsigned-modules
p1119
I00
sVimage-file
p1120
Varch/sh/boot/zImage
p1121
ss(Vdescription
p1122
g1110
NVsh7751r
p1123
tp1124
(dp1125
Vhardware
p1126
Vsh7751r
p1127
sVhardware-long
p1128
VRenesas SH7751R R2D plus board
p1129
ss(Vdescription
p1130
g1110
NVsh7785lcr
p1131
tp1132
(dp1133
Vhardware
p1134
Vsh7785lcr
p1135
sVhardware-long
p1136
VRenesas SH7785 reference board
p1137
ss(Vimage
p1138
g1110
tp1139
(dp1140
Vinstall-stem
p1141
Vvmlinuz
p1142
ss(Vimage
p1143
g1110
NVsh7785lcr
p1144
tp1145
(dp1146
Vrecommends
p1147
Vu-boot-tools
p1148
sVcheck-size
p1149
L4194304L
ss(g210
g1110
g178
tp1150
(dp1151
g213
(lp1152
Vsh7751r
p1153
aVsh7785lcr
p1154
asg217
I01
ss(Vbase
p1155
Vsparc
p1156
tp1157
(dp1158
Vfeaturesets
p1159
(lp1160
sVkernel-arch
p1161
Vsparc
p1162
ss(Vbase
p1163
Vsparc64
p1164
tp1165
(dp1166
g176
(lp1167
g178
asVkernel-arch
p1168
Vsparc
p1169
ss(Vbuild
p1170
g1164
tp1171
(dp1172
Vsigned-modules
p1173
I00
sVimage-file
p1174
Varch/sparc/boot/zImage
p1175
ss(Vimage
p1176
g1164
NVsparc64
p1177
tp1178
(dp1179
Vconfigs
p1180
(lp1181
Vkernelarch-sparc/config-up
p1182
ass(Vimage
p1183
g1164
NVsparc64-smp
p1184
tp1185
(dp1186
Vconfigs
p1187
(lp1188
Vkernelarch-sparc/config-smp
p1189
ass(Vimage
p1190
g1164
tp1191
(dp1192
Vsuggests
p1193
Vsilo, fdutils
p1194
sVinstall-stem
p1195
Vvmlinuz
p1196
sVconfigs
p1197
(lp1198
ss(Vdescription
p1199
g1164
NVsparc64-smp
p1200
tp1201
(dp1202
Vhardware
p1203
Vmultiprocessor 64-bit UltraSPARC
p1204
ss(Vdescription
p1205
g1164
NVsparc64
p1206
tp1207
(dp1208
Vhardware
p1209
Vuniprocessor 64-bit UltraSPARC
p1210
ss(g210
g1164
g178
tp1211
(dp1212
g213
(lp1213
Vsparc64
p1214
aVsparc64-smp
p1215
asg217
I01
ss(Vbase
p1216
Vtilegx
p1217
tp1218
(dp1219
Vfeaturesets
p1220
(lp1221
sVkernel-arch
p1222
Vtile
p1223
ss(Vbase
p1224
Vx32
p1225
tp1226
(dp1227
Vfeaturesets
p1228
(lp1229
sVkernel-arch
p1230
Vx86
p1231
ss(Vdescription
p1232
NVrt
p1233
tp1234
(dp1235
Vparts
p1236
(lp1237
Vrt
p1238
asVpart-long-rt
p1239
VThis kernel includes the PREEMPT_RT realtime patch set.
p1240
sVpart-short-rt
p1241
VPREEMPT_RT
p1242
ss(Vabi
p1243
Ng1233
tp1244
(dp1245
Vignore-changes
p1246
(lp1247
V*
p1248
ass(Vversion
p1249
tp1250
(dp1251
Vupstream
p1252
V4.9
p1253
sVsource
p1254
V4.9.168-1+deb9u2~deb8u1
p1255
sVabiname
p1256
V4.9.0-0.bpo.9
p1257
sVabiname_base
p1258
V4.9.0
p1259
ss.