cdebian_linux.config
ConfigCore
p0
(tRp1
(Vbase
p2
tp3
(dp4
Varches
p5
(lp6
Valpha
p7
aVamd64
p8
aVarm64
p9
aVarmel
p10
aVarmhf
p11
aVhppa
p12
aVi386
p13
aVm68k
p14
aVmips
p15
aVmipsel
p16
aVmipsn32
p17
aVmipsn32el
p18
aVmips64
p19
aVmips64el
p20
aVpowerpc
p21
aVpowerpcspe
p22
aVppc64
p23
aVppc64el
p24
aVs390
p25
aVs390x
p26
aVsh3
p27
aVsh4
p28
aVsparc
p29
aVsparc64
p30
aVtilegx
p31
aVx32
p32
asVfeaturesets
p33
(lp34
Vnone
p35
aVrt
p36
asVcompiler
p37
Vgcc-4.9
p38
ss(Vbuild
p39
tp40
(dp41
Vdebug-info
p42
I01
ss(Vbase
p43
NVrt
p44
tp45
(dp46
Venabled
p47
I01
ss(Vdescription
p48
tp49
(dp50
Vpart-long-up
p51
VThis kernel is not suitable for SMP (multi-processor,\u000amulti-core or hyper-threaded) systems.
p52
sVpart-long-xen
p53
VThis kernel also runs on a Xen hypervisor.\u000aIt supports both privileged (dom0) and unprivileged (domU) operation.
p54
ss(Vrelations
p55
tp56
(dp57
Vgcc-4.9
p58
Vgcc-4.9 <!stage1 !cross>, gcc-6-@gnu-type-package@:native <!stage1 cross>
p59
sVinitramfs-tools
p60
Vinitramfs-tools (>= 0.120+deb8u2)
p61
sVinitramfs-fallback
p62
Vlinux-initramfs-tool
p63
ss(Vimage
p64
tp65
(dp66
Vinitramfs-generators
p67
(lp68
Vinitramfs-tools
p69
aVinitramfs-fallback
p70
ass(Vabi
p71
tp72
(dp73
Vabiname
p74
V4
p75
sVignore-changes
p76
(lp77
V__cpuhp_*
p78
aVbpf_analyzer
p79
aVcxl_*
p80
aVinet_frag_*
p81
aVinet_frags_*
p82
aVmm_iommu_*
p83
aVregister_cxl_calls
p84
aVunregister_cxl_calls
p85
aVmodule:arch/x86/kvm/*
p86
aVmodule:drivers/crypto/ccp/*
p87
aVmodule:drivers/hv/*
p88
aVmodule:drivers/iio/common/hid-sensors/*
p89
aVmodule:drivers/iio/common/st_sensors/**
p90
aVmodule:drivers/net/wireless/**
p91
aVmodule:drivers/nvdimm/*
p92
aVmodule:drivers/power/supply/bq27xxx_battery
p93
aVmodule:drivers/scsi/cxgbi/*
p94
aVmodule:drivers/scsi/libiscs*
p95
aVmodule:drivers/scsi/qla2xxx/qla2xxx
p96
aVmodule:drivers/scsi/ufs/*
p97
aVmodule:drivers/target/**
p98
aVmodule:drivers/usb/chipidea/**
p99
aVmodule:drivers/usb/host/**
p100
aVmodule:drivers/usb/musb/**
p101
aVmodule:fs/nfs/nfs
p102
aVmodule:net/ceph/libceph
p103
aVmodule:net/l2tp/l2tp_core
p104
aVmodule:sound/firewire/snd-firewire-lib
p105
aVbtree_*
p106
aVvisitor*
p107
aVcan_rx_register
p108
aVip6_xmit
p109
aVmodule:net/dccp/dccp
p110
aVmodule:net/rds/rds
p111
aVdevfreq_*
p112
aVdevm_devfreq_*
p113
aVupdate_devfreq
p114
aVmodule:drivers/infiniband/**
p115
aVacpi_ec_add_query_handler
p116
aVacpi_ec_remove_query_handler
p117
aVfirst_ec
p118
aVdebugfs_create_automount
p119
ass(Vbase
p120
Valpha
p121
tp122
(dp123
Vfeaturesets
p124
(lp125
Vnone
p126
asVkernel-arch
p127
Valpha
p128
ss(Vdescription
p129
g121
NValpha-smp
p130
tp131
(dp132
Vhardware
p133
VAlpha SMP
p134
sVhardware-long
p135
VDEC Alpha SMP systems with extended kernel start address (Wildfire, Titan, Marvel)
p136
ss(Vbuild
p137
g121
tp138
(dp139
Vsigned-modules
p140
I00
sVimage-file
p141
Varch/alpha/boot/vmlinux.gz
p142
ss(Vdescription
p143
g121
NValpha-generic
p144
tp145
(dp146
Vhardware
p147
VAlpha
p148
sVhardware-long
p149
VDEC Alpha systems with extended kernel start address (Wildfire, Titan, Marvel)
p150
ss(Vimage
p151
g121
tp152
(dp153
Vsuggests
p154
Vaboot, fdutils
p155
sVinstall-stem
p156
Vvmlinuz
p157
ss(Vbase
p158
g121
g126
tp159
(dp160
Vflavours
p161
(lp162
Valpha-generic
p163
aValpha-smp
p164
asVimplicit-flavour
p165
I01
ss(Vbase
p166
Vamd64
p167
tp168
(dp169
Vfeaturesets
p170
(lp171
Vnone
p172
aVrt
p173
asVkernel-arch
p174
Vx86
p175
ss(Vdescription
p176
g167
NVamd64
p177
tp178
(dp179
Vhardware
p180
V64-bit PCs
p181
sVhardware-long
p182
VPCs with AMD64, Intel 64 or VIA Nano processors
p183
ss(Vbuild
p184
g167
tp185
(dp186
Vvdso
p187
I01
sVimage-file
p188
Varch/x86/boot/bzImage
p189
sVdebug-info
p190
I01
ss(Vrelations
p191
g167
tp192
(dp193
Vheaders%gcc-6
p194
Vlinux-compiler-gcc-6-x86
p195
ss(Vimage
p196
g167
tp197
(dp198
Vbreaks
p199
Vxserver-xorg-input-vmmouse (<< 1:13.0.99)
p200
sVinstall-stem
p201
Vvmlinuz
p202
sVbootloaders
p203
(lp204
Vgrub-pc
p205
aVgrub-efi-amd64
p206
aVextlinux
p207
ass(Vbase
p208
g167
Vnone
p209
tp210
(dp211
Vflavours
p212
(lp213
Vamd64
p214
ass(Vdescription
p215
g167
g209
Vamd64
p216
tp217
(dp218
Vparts
p219
(lp220
Vxen
p221
ass(Vbase
p222
g167
Vrt
p223
tp224
(dp225
Vflavours
p226
(lp227
Vamd64
p228
ass(Vbase
p229
Varm64
p230
tp231
(dp232
Vfeaturesets
p233
(lp234
Vnone
p235
asVkernel-arch
p236
Varm64
p237
ss(Vdescription
p238
g230
NVarm64
p239
tp240
(dp241
Vhardware
p242
V64-bit ARMv8 machines
p243
ss(Vbuild
p244
g230
tp245
(dp246
Vvdso
p247
I01
sVimage-file
p248
Varch/arm64/boot/Image
p249
sVdebug-info
p250
I01
ss(Vimage
p251
g230
NVarm64
p252
tp253
(dp254
s(Vimage
p255
g230
tp256
(dp257
Vbreaks
p258
Vlibmozjs185-1.0, libmozjs-24-0 (<< 24.2.0-5.1~)
p259
sVinstall-stem
p260
Vvmlinuz
p261
ss(Vbase
p262
g230
Vnone
p263
tp264
(dp265
Vflavours
p266
(lp267
Varm64
p268
ass(Vbase
p269
Varmel
p270
tp271
(dp272
g124
(lp273
g126
asVkernel-arch
p274
Varm
p275
ss(Vbuild
p276
g270
tp277
(dp278
Vsigned-modules
p279
I00
sVimage-file
p280
Varch/arm/boot/zImage
p281
ss(Vimage
p282
g270
NVmarvell
p283
tp284
(dp285
Vrecommends
p286
Vu-boot-tools
p287
sVbreaks
p288
Vflash-kernel (<< 3.57~)
p289
sVcheck-size-with-dtb
p290
I01
sVcheck-size
p291
L2097080L
ss(Vdescription
p292
g270
NVmarvell
p293
tp294
(dp295
Vhardware
p296
VMarvell Kirkwood/Orion
p297
sVhardware-long
p298
VMarvell Kirkwood based systems (SheevaPlug, QNAP TS-119/TS-219, etc)\u000aand Orion 5181, 5182 and 5281 based systems (QNAP TS-109/TS-209, etc)
p299
ss(Vrelations
p300
g270
tp301
(dp302
Vheaders%gcc-6
p303
Vlinux-compiler-gcc-6-arm
p304
ss(Vimage
p305
g270
tp306
(dp307
Vinstall-stem
p308
Vvmlinuz
p309
ss(g158
g270
g126
tp310
(dp311
g161
(lp312
Vmarvell
p313
asg165
I01
ss(Vdescription
p314
Varmhf
p315
NVarmmp
p316
tp317
(dp318
Vhardware
p319
VARMv7 multiplatform compatible SoCs
p320
sVhardware-long
p321
VARMv7 multiplatform kernel. See\u000ahttps://wiki.debian.org/DebianKernel/ARMMP for details of supported\u000aplatforms
p322
ss(Vdescription
p323
g315
NVrpi
p324
tp325
(dp326
Vhardware
p327
VRaspberryPI
p328
sVhardware-long
p329
VRaspberry PI
p330
ss(Vdescription
p331
g315
NVarmmp-lpae
p332
tp333
(dp334
Vhardware
p335
VARMv7 multiplatform compatible SoCs supporting LPAE
p336
sVhardware-long
p337
VARMv7 multiplatform kernel supporting LPAE. See\u000ahttps://wiki.debian.org/DebianKernel/ARMMP for details of supported\u000aplatforms.
p338
ss(Vbuild
p339
g315
NVrpi
p340
tp341
(dp342
Vimage-file
p343
Varch/arm/boot/zImagerpdt
p344
ss(Vrelations
p345
g315
tp346
(dp347
Vheaders%gcc-4.9
p348
Vlinux-compiler-gcc-4.9-arm
p349
ss(Vimage
p350
g315
tp351
(dp352
Vinstall-stem
p353
Vvmlinuz
p354
ss(Vbase
p355
g315
tp356
(dp357
g124
(lp358
g126
asVkernel-arch
p359
Varm
p360
ss(Vbuild
p361
g315
tp362
(dp363
Vvdso
p364
I01
sVimage-file
p365
Varch/arm/boot/zImage
p366
ss(Vbuild
p367
g315
NVrpi2
p368
tp369
(dp370
Vimage-file
p371
Varch/arm/boot/zImagerpdt
p372
ss(Vimage
p373
g315
NVrpi2
p374
tp375
(dp376
Vconfigs
p377
(lp378
Varmhf/config.rpix
p379
aVarmhf/config.rpi2
p380
ass(Vimage
p381
g315
NVrpi
p382
tp383
(dp384
Vconfigs
p385
(lp386
Varmhf/config.rpix
p387
aVarmhf/config.rpi
p388
ass(Vdescription
p389
g315
NVrpi2
p390
tp391
(dp392
Vhardware
p393
VRaspberryPI2
p394
sVhardware-long
p395
VRaspberry PI 2
p396
ss(g158
g315
g126
tp397
(dp398
g161
(lp399
Vrpi
p400
aVrpi2
p401
asg165
I01
ss(Vbase
p402
Vhppa
p403
tp404
(dp405
g124
(lp406
g126
asVkernel-arch
p407
Vparisc
p408
ss(Vbuild
p409
g403
tp410
(dp411
Vsigned-modules
p412
I00
sVimage-file
p413
Vvmlinux
p414
ss(Vdescription
p415
g403
NVparisc64-smp
p416
tp417
(dp418
Vhardware
p419
Vmultiprocessor 64-bit PA-RISC
p420
sVhardware-long
p421
VHP PA-RISC 64-bit SMP systems with support for more than 4 GB RAM
p422
ss(Vbase
p423
g403
NVparisc64-smp
p424
tp425
(dp426
Vcflags
p427
V-fno-cse-follow-jumps
p428
sVoverride-host-type
p429
Vhppa64-linux-gnu
p430
ss(Vrelations
p431
g403
tp432
(dp433
Vgcc-6
p434
Vgcc-6 <!stage1 !cross>, binutils-hppa64-linux-gnu <!stage1 !cross>, gcc-6-hppa64-linux-gnu <!stage1 !cross>, gcc-6-hppa-linux-gnu <!stage1 cross>, binutils-hppa64-linux-gnu <!stage1 cross>, gcc-6-hppa64-linux-gnu <!stage1 cross>
p435
ss(Vdescription
p436
g403
NVparisc
p437
tp438
(dp439
Vhardware
p440
V32-bit PA-RISC
p441
sVhardware-long
p442
VHP PA-RISC 32-bit systems with max 4 GB RAM
p443
ss(Vimage
p444
g403
tp445
(dp446
Vsuggests
p447
Vpalo
p448
sVinstall-stem
p449
Vvmlinux
p450
ss(g158
g403
g126
tp451
(dp452
g161
(lp453
Vparisc
p454
aVparisc64-smp
p455
asg165
I01
ss(Vbase
p456
Vi386
p457
tp458
(dp459
Vfeaturesets
p460
(lp461
Vnone
p462
aVrt
p463
asVkernel-arch
p464
Vx86
p465
ss(Vbuild
p466
g457
tp467
(dp468
Vvdso
p469
I01
sVimage-file
p470
Varch/x86/boot/bzImage
p471
ss(Vdescription
p472
g457
NV686-pae
p473
tp474
(dp475
Vhardware
p476
Vmodern PCs
p477
sVhardware-long
p478
VPCs with one or more processors supporting PAE
p479
sVparts
p480
(lp481
Vpae
p482
ass(Vdescription
p483
g457
tp484
(dp485
Vpart-long-pae
p486
VThis kernel requires PAE (Physical Address Extension).\u000aThis feature is supported by the Intel Pentium Pro/II/III/4/4M/D, Xeon,\u000aCore and Atom; AMD Geode NX, Athlon (K7), Duron, Opteron, Sempron,\u000aTurion or Phenom; Transmeta Efficeon; VIA C7; and some other processors.
p487
ss(Vbuild
p488
g457
NV686-pae
p489
tp490
(dp491
Vdebug-info
p492
I01
ss(Vdescription
p493
g457
NV686
p494
tp495
(dp496
Vhardware
p497
Volder PCs
p498
sVhardware-long
p499
VPCs with one or more processors not supporting PAE
p500
ss(Vrelations
p501
g457
tp502
(dp503
Vheaders%gcc-6
p504
Vlinux-compiler-gcc-6-x86
p505
ss(Vimage
p506
g457
tp507
(dp508
Vbreaks
p509
Vxserver-xorg-input-vmmouse (<< 1:13.0.99)
p510
sVinstall-stem
p511
Vvmlinuz
p512
sVbootloaders
p513
(lp514
Vgrub-pc
p515
aVextlinux
p516
ass(Vbase
p517
g457
Vnone
p518
tp519
(dp520
Vflavours
p521
(lp522
V686
p523
aV686-pae
p524
ass(Vdescription
p525
g457
g518
V686-pae
p526
tp527
(dp528
Vparts
p529
(lp530
Vxen
p531
ass(Vbase
p532
g457
Vrt
p533
tp534
(dp535
Vflavours
p536
(lp537
V686-pae
p538
ass(Vbase
p539
Vm68k
p540
tp541
(dp542
Vcflags
p543
V-ffreestanding
p544
sg124
(lp545
g126
asVkernel-arch
p546
Vm68k
p547
ss(Vbuild
p548
g540
tp549
(dp550
Vsigned-modules
p551
I00
sVimage-file
p552
Vvmlinux.gz
p553
ss(Vdescription
p554
g540
NVm68k
p555
tp556
(dp557
Vhardware
p558
VMotorola MC68020+ family
p559
ss(Vimage
p560
g540
tp561
(dp562
Vsuggests
p563
Vvmelilo, fdutils
p564
sVinstall-stem
p565
Vvmlinuz
p566
ss(g158
g540
g126
tp567
(dp568
g161
(lp569
Vm68k
p570
asg165
I01
ss(Vbase
p571
Vmips
p572
tp573
(dp574
g124
(lp575
g126
asVkernel-arch
p576
Vmips
p577
ss(Vbuild
p578
g572
tp579
(dp580
Vsigned-modules
p581
I00
sVimage-file
p582
Vvmlinux
p583
ss(Vimage
p584
g572
NV4kc-malta
p585
tp586
(dp587
Vconfigs
p588
(lp589
Vkernelarch-mips/config.malta
p590
aVkernelarch-mips/config.mips32r2
p591
ass(Vimage
p592
g572
NV5kc-malta
p593
tp594
(dp595
Vconfigs
p596
(lp597
Vkernelarch-mips/config.malta
p598
aVkernelarch-mips/config.mips64r2
p599
ass(Vdescription
p600
g572
NVocteon
p601
tp602
(dp603
Vhardware
p604
VOcteon
p605
sVhardware-long
p606
VCavium Networks Octeon
p607
ss(Vimage
p608
g572
NVocteon
p609
tp610
(dp611
Vconfigs
p612
(lp613
Vkernelarch-mips/config.octeon
p614
ass(Vimage
p615
g572
tp616
(dp617
Vinstall-stem
p618
Vvmlinux
p619
ss(Vdescription
p620
g572
NV5kc-malta
p621
tp622
(dp623
Vhardware
p624
VMIPS Malta (64-bit)
p625
sVhardware-long
p626
VMIPS Malta boards (64-bit)
p627
ss(Vdescription
p628
g572
NV4kc-malta
p629
tp630
(dp631
Vhardware
p632
VMIPS Malta
p633
sVhardware-long
p634
VMIPS Malta boards
p635
ss(g158
g572
g126
tp636
(dp637
g161
(lp638
V4kc-malta
p639
aV5kc-malta
p640
aVocteon
p641
asg165
I01
ss(Vbase
p642
Vmipsel
p643
tp644
(dp645
g124
(lp646
g126
asVkernel-arch
p647
Vmips
p648
ss(Vimage
p649
g643
NVloongson-3
p650
tp651
(dp652
Vconfigs
p653
(lp654
Vkernelarch-mips/config.loongson-3
p655
ass(Vbuild
p656
g643
tp657
(dp658
Vsigned-modules
p659
I00
sVimage-file
p660
Vvmlinux
p661
ss(Vimage
p662
g643
NV4kc-malta
p663
tp664
(dp665
Vconfigs
p666
(lp667
Vkernelarch-mips/config.malta
p668
aVkernelarch-mips/config.mips32r2
p669
ass(Vimage
p670
g643
NV5kc-malta
p671
tp672
(dp673
Vconfigs
p674
(lp675
Vkernelarch-mips/config.malta
p676
aVkernelarch-mips/config.mips64r2
p677
ass(Vdescription
p678
g643
NVocteon
p679
tp680
(dp681
Vhardware
p682
VOcteon
p683
sVhardware-long
p684
VCavium Networks Octeon
p685
ss(Vdescription
p686
g643
NVloongson-3
p687
tp688
(dp689
Vhardware
p690
VLoongson 3A/3B
p691
sVhardware-long
p692
VLoongson 3A or 3B based systems (e.g. from Loongson or Lemote)
p693
ss(Vimage
p694
g643
NVocteon
p695
tp696
(dp697
Vconfigs
p698
(lp699
Vkernelarch-mips/config.octeon
p700
ass(Vimage
p701
g643
tp702
(dp703
Vinstall-stem
p704
Vvmlinux
p705
ss(Vdescription
p706
g643
NV5kc-malta
p707
tp708
(dp709
Vhardware
p710
VMIPS Malta (64-bit)
p711
sVhardware-long
p712
VMIPS Malta boards (64-bit)
p713
ss(Vdescription
p714
g643
NV4kc-malta
p715
tp716
(dp717
Vhardware
p718
VMIPS Malta
p719
sVhardware-long
p720
VMIPS Malta boards
p721
ss(g158
g643
g126
tp722
(dp723
g161
(lp724
V4kc-malta
p725
aV5kc-malta
p726
aVloongson-3
p727
aVocteon
p728
asg165
I01
ss(Vbase
p729
Vmipsn32
p730
tp731
(dp732
Vfeaturesets
p733
(lp734
sVkernel-arch
p735
Vmips
p736
ss(Vbase
p737
Vmipsn32el
p738
tp739
(dp740
Vfeaturesets
p741
(lp742
sVkernel-arch
p743
Vmips
p744
ss(Vbase
p745
Vmips64
p746
tp747
(dp748
g124
(lp749
g126
asVkernel-arch
p750
Vmips
p751
ss(Vbuild
p752
g746
tp753
(dp754
Vsigned-modules
p755
I00
sVimage-file
p756
Vvmlinux
p757
ss(Vimage
p758
g746
NV5kc-malta
p759
tp760
(dp761
Vconfigs
p762
(lp763
Vkernelarch-mips/config.malta
p764
aVkernelarch-mips/config.mips64r2
p765
ass(Vdescription
p766
g746
NVocteon
p767
tp768
(dp769
Vhardware
p770
VOcteon
p771
sVhardware-long
p772
VCavium Networks Octeon
p773
ss(Vimage
p774
g746
tp775
(dp776
Vinstall-stem
p777
Vvmlinux
p778
ss(Vdescription
p779
g746
NV5kc-malta
p780
tp781
(dp782
Vhardware
p783
VMIPS Malta
p784
sVhardware-long
p785
VMIPS Malta boards
p786
ss(Vimage
p787
g746
NVocteon
p788
tp789
(dp790
Vconfigs
p791
(lp792
Vkernelarch-mips/config.octeon
p793
ass(g158
g746
g126
tp794
(dp795
g161
(lp796
V5kc-malta
p797
aVocteon
p798
asg165
I01
ss(Vbase
p799
Vmips64el
p800
tp801
(dp802
g124
(lp803
g126
asVkernel-arch
p804
Vmips
p805
ss(Vimage
p806
g800
NVloongson-3
p807
tp808
(dp809
Vconfigs
p810
(lp811
Vkernelarch-mips/config.loongson-3
p812
ass(Vbuild
p813
g800
tp814
(dp815
Vsigned-modules
p816
I00
sVimage-file
p817
Vvmlinux
p818
ss(Vimage
p819
g800
NV5kc-malta
p820
tp821
(dp822
Vconfigs
p823
(lp824
Vkernelarch-mips/config.malta
p825
aVkernelarch-mips/config.mips64r2
p826
ass(Vdescription
p827
g800
NVocteon
p828
tp829
(dp830
Vhardware
p831
VOcteon
p832
sVhardware-long
p833
VCavium Networks Octeon
p834
ss(Vdescription
p835
g800
NVloongson-3
p836
tp837
(dp838
Vhardware
p839
VLoongson 3A/3B
p840
sVhardware-long
p841
VLoongson 3A or 3B based systems (e.g. from Loongson or Lemote)
p842
ss(Vimage
p843
g800
tp844
(dp845
Vinstall-stem
p846
Vvmlinux
p847
ss(Vdescription
p848
g800
NV5kc-malta
p849
tp850
(dp851
Vhardware
p852
VMIPS Malta
p853
sVhardware-long
p854
VMIPS Malta boards
p855
ss(Vimage
p856
g800
NVocteon
p857
tp858
(dp859
Vconfigs
p860
(lp861
Vkernelarch-mips/config.octeon
p862
ass(g158
g800
g126
tp863
(dp864
g161
(lp865
V5kc-malta
p866
aVloongson-3
p867
aVocteon
p868
asg165
I01
ss(Vbase
p869
Vpowerpc
p870
tp871
(dp872
g124
(lp873
g126
asVkernel-arch
p874
Vpowerpc
p875
ss(Vdescription
p876
g870
NVpowerpc64
p877
tp878
(dp879
Vhardware
p880
V64-bit PowerPC
p881
ss(Vbuild
p882
g870
tp883
(dp884
Vvdso
p885
I01
sVimage-file
p886
Vvmlinux
p887
ss(Vimage
p888
g870
NVpowerpc-smp
p889
tp890
(dp891
Vconfigs
p892
(lp893
Vpowerpc/config.powerpc
p894
aVpowerpc/config.powerpc-smp
p895
ass(Vdescription
p896
g870
NVpowerpc
p897
tp898
(dp899
Vhardware
p900
Vuniprocessor 32-bit PowerPC
p901
ss(Vimage
p902
g870
NVpowerpc64
p903
tp904
(dp905
Vconfigs
p906
(lp907
Vkernelarch-powerpc/config-arch-64
p908
aVkernelarch-powerpc/config-arch-64-be
p909
ass(Vdescription
p910
g870
NVpowerpc-smp
p911
tp912
(dp913
Vhardware
p914
Vmultiprocessor 32-bit PowerPC
p915
ss(Vimage
p916
g870
tp917
(dp918
Vsuggests
p919
Vmkvmlinuz
p920
sVinstall-stem
p921
Vvmlinux
p922
sVconfigs
p923
(lp924
ss(g158
g870
g126
tp925
(dp926
g161
(lp927
Vpowerpc
p928
aVpowerpc-smp
p929
aVpowerpc64
p930
asg165
I01
ss(Vbase
p931
Vpowerpcspe
p932
tp933
(dp934
g124
(lp935
g126
asVkernel-arch
p936
Vpowerpc
p937
ss(Vbuild
p938
g932
tp939
(dp940
Vsigned-modules
p941
I00
sVimage-file
p942
Vvmlinux
p943
sVvdso
p944
I01
ss(Vimage
p945
g932
tp946
(dp947
Vsuggests
p948
Vmkvmlinuz
p949
sVinstall-stem
p950
Vvmlinux
p951
ss(Vdescription
p952
g932
tp953
(dp954
Vhardware
p955
V32-bit PowerPC with SPE (instead of AltiVec) with SMP support
p956
ss(g158
g932
g126
tp957
(dp958
g161
(lp959
Vpowerpcspe
p960
asg165
I01
ss(Vbase
p961
Vppc64
p962
tp963
(dp964
g124
(lp965
g126
asVkernel-arch
p966
Vpowerpc
p967
ss(Vdescription
p968
g962
NVpowerpc64
p969
tp970
(dp971
Vhardware
p972
V64-bit PowerPC
p973
ss(Vbuild
p974
g962
tp975
(dp976
Vsigned-modules
p977
I00
sVimage-file
p978
Vvmlinux
p979
sVvdso
p980
I01
ss(Vimage
p981
g962
NVpowerpc64
p982
tp983
(dp984
Vconfigs
p985
(lp986
Vkernelarch-powerpc/config-arch-64
p987
aVkernelarch-powerpc/config-arch-64-be
p988
ass(Vimage
p989
g962
tp990
(dp991
Vsuggests
p992
Vmkvmlinuz
p993
sVinstall-stem
p994
Vvmlinux
p995
sVconfigs
p996
(lp997
ss(g158
g962
g126
tp998
(dp999
g161
(lp1000
Vpowerpc64
p1001
asg165
I01
ss(Vbase
p1002
Vppc64el
p1003
tp1004
(dp1005
g124
(lp1006
g126
asVkernel-arch
p1007
Vpowerpc
p1008
ss(Vdescription
p1009
g1003
NVpowerpc64le
p1010
tp1011
(dp1012
Vhardware
p1013
VLittle-endian 64-bit PowerPC
p1014
ss(Vbuild
p1015
g1003
tp1016
(dp1017
Vvdso
p1018
I01
sVimage-file
p1019
Vvmlinux
p1020
ss(Vimage
p1021
g1003
tp1022
(dp1023
Vsuggests
p1024
Vmkvmlinuz
p1025
sVinstall-stem
p1026
Vvmlinux
p1027
sVconfigs
p1028
(lp1029
ss(Vimage
p1030
g1003
NVpowerpc64le
p1031
tp1032
(dp1033
Vconfigs
p1034
(lp1035
Vkernelarch-powerpc/config-arch-64
p1036
aVkernelarch-powerpc/config-arch-64-le
p1037
ass(g158
g1003
g126
tp1038
(dp1039
g161
(lp1040
Vpowerpc64le
p1041
asg165
I01
ss(Vbase
p1042
Vs390
p1043
tp1044
(dp1045
Vfeaturesets
p1046
(lp1047
sVkernel-arch
p1048
Vs390
p1049
ss(Vbase
p1050
Vs390x
p1051
tp1052
(dp1053
g124
(lp1054
g126
asVkernel-arch
p1055
Vs390
p1056
ss(Vdescription
p1057
g1051
NVs390x
p1058
tp1059
(dp1060
Vhardware
p1061
VIBM zSeries
p1062
ss(Vbuild
p1063
g1051
tp1064
(dp1065
Vvdso
p1066
I01
sVimage-file
p1067
Varch/s390/boot/image
p1068
ss(Vbuild
p1069
g1051
NVs390x
p1070
tp1071
(dp1072
Vdebug-info
p1073
I01
ss(Vrelations
p1074
g1051
tp1075
(dp1076
Vheaders%gcc-6
p1077
Vlinux-compiler-gcc-6-s390
p1078
ss(Vimage
p1079
g1051
tp1080
(dp1081
Vinstall-stem
p1082
Vvmlinuz
p1083
sVbootloaders
p1084
(lp1085
Vs390-tools
p1086
ass(g158
g1051
g126
tp1087
(dp1088
g161
(lp1089
Vs390x
p1090
asg165
I01
ss(Vbase
p1091
Vsh3
p1092
tp1093
(dp1094
Vfeaturesets
p1095
(lp1096
sVkernel-arch
p1097
Vsh
p1098
ss(Vbase
p1099
Vsh4
p1100
tp1101
(dp1102
g124
(lp1103
g126
asVkernel-arch
p1104
Vsh
p1105
ss(Vbuild
p1106
g1100
tp1107
(dp1108
Vsigned-modules
p1109
I00
sVimage-file
p1110
Varch/sh/boot/zImage
p1111
ss(Vdescription
p1112
g1100
NVsh7751r
p1113
tp1114
(dp1115
Vhardware
p1116
Vsh7751r
p1117
sVhardware-long
p1118
VRenesas SH7751R R2D plus board
p1119
ss(Vdescription
p1120
g1100
NVsh7785lcr
p1121
tp1122
(dp1123
Vhardware
p1124
Vsh7785lcr
p1125
sVhardware-long
p1126
VRenesas SH7785 reference board
p1127
ss(Vimage
p1128
g1100
tp1129
(dp1130
Vinstall-stem
p1131
Vvmlinuz
p1132
ss(Vimage
p1133
g1100
NVsh7785lcr
p1134
tp1135
(dp1136
Vrecommends
p1137
Vu-boot-tools
p1138
sVcheck-size
p1139
L4194304L
ss(g158
g1100
g126
tp1140
(dp1141
g161
(lp1142
Vsh7751r
p1143
aVsh7785lcr
p1144
asg165
I01
ss(Vbase
p1145
Vsparc
p1146
tp1147
(dp1148
Vfeaturesets
p1149
(lp1150
sVkernel-arch
p1151
Vsparc
p1152
ss(Vbase
p1153
Vsparc64
p1154
tp1155
(dp1156
g124
(lp1157
g126
asVkernel-arch
p1158
Vsparc
p1159
ss(Vbuild
p1160
g1154
tp1161
(dp1162
Vsigned-modules
p1163
I00
sVimage-file
p1164
Varch/sparc/boot/zImage
p1165
ss(Vimage
p1166
g1154
NVsparc64
p1167
tp1168
(dp1169
Vconfigs
p1170
(lp1171
Vkernelarch-sparc/config-up
p1172
ass(Vimage
p1173
g1154
NVsparc64-smp
p1174
tp1175
(dp1176
Vconfigs
p1177
(lp1178
Vkernelarch-sparc/config-smp
p1179
ass(Vimage
p1180
g1154
tp1181
(dp1182
Vsuggests
p1183
Vsilo, fdutils
p1184
sVinstall-stem
p1185
Vvmlinuz
p1186
sVconfigs
p1187
(lp1188
ss(Vdescription
p1189
g1154
NVsparc64-smp
p1190
tp1191
(dp1192
Vhardware
p1193
Vmultiprocessor 64-bit UltraSPARC
p1194
ss(Vdescription
p1195
g1154
NVsparc64
p1196
tp1197
(dp1198
Vhardware
p1199
Vuniprocessor 64-bit UltraSPARC
p1200
ss(g158
g1154
g126
tp1201
(dp1202
g161
(lp1203
Vsparc64
p1204
aVsparc64-smp
p1205
asg165
I01
ss(Vbase
p1206
Vtilegx
p1207
tp1208
(dp1209
Vfeaturesets
p1210
(lp1211
sVkernel-arch
p1212
Vtile
p1213
ss(Vbase
p1214
Vx32
p1215
tp1216
(dp1217
Vfeaturesets
p1218
(lp1219
sVkernel-arch
p1220
Vx86
p1221
ss(Vdescription
p1222
NVrt
p1223
tp1224
(dp1225
Vparts
p1226
(lp1227
Vrt
p1228
asVpart-long-rt
p1229
VThis kernel includes the PREEMPT_RT realtime patch set.
p1230
sVpart-short-rt
p1231
VPREEMPT_RT
p1232
ss(Vabi
p1233
Ng1223
tp1234
(dp1235
Vignore-changes
p1236
(lp1237
V*
p1238
ass(Vversion
p1239
tp1240
(dp1241
Vupstream
p1242
V4.9
p1243
sVsource
p1244
V4.9.51-1+rpi1
p1245
sVabiname
p1246
V4.9.0-4
p1247
sVabiname_base
p1248
V4.9.0
p1249
ss.