cdebian_linux.config
ConfigCore
p0
(tRp1
(Vbase
p2
tp3
(dp4
Varches
p5
(lp6
Valpha
p7
aVamd64
p8
aVarm64
p9
aVarmel
p10
aVarmhf
p11
aVhppa
p12
aVi386
p13
aVm68k
p14
aVmips
p15
aVmipsel
p16
aVmipsn32
p17
aVmipsn32el
p18
aVmips64
p19
aVmips64el
p20
aVor1k
p21
aVpowerpc
p22
aVpowerpcspe
p23
aVppc64
p24
aVppc64el
p25
aVs390
p26
aVs390x
p27
aVsh3
p28
aVsh4
p29
aVsparc
p30
aVsparc64
p31
aVtilegx
p32
aVx32
p33
asVfeaturesets
p34
(lp35
Vnone
p36
aVrt
p37
asVcompiler
p38
Vgcc-6
p39
ss(Vbuild
p40
tp41
(dp42
Vsigned-modules
p43
I01
sVdebug-info
p44
I01
ss(Vbase
p45
NVrt
p46
tp47
(dp48
Venabled
p49
I01
ss(Vdescription
p50
tp51
(dp52
Vpart-long-up
p53
VThis kernel is not suitable for SMP (multi-processor,\u000amulti-core or hyper-threaded) systems.
p54
sVpart-long-xen
p55
VThis kernel also runs on a Xen hypervisor.\u000aIt supports both privileged (dom0) and unprivileged (domU) operation.
p56
ss(Vrelations
p57
tp58
(dp59
Vinitramfs-tools
p60
Vinitramfs-tools (>= 0.120+deb8u2)
p61
sVgcc-6
p62
Vgcc-6 <!stage1 !cross>, gcc-6-@gnu-type-package@:native <!stage1 cross>
p63
sVinitramfs-fallback
p64
Vlinux-initramfs-tool
p65
ss(Vimage
p66
tp67
(dp68
Vinitramfs-generators
p69
(lp70
Vinitramfs-tools
p71
aVinitramfs-fallback
p72
ass(Vabi
p73
tp74
(dp75
Vabiname
p76
V1
p77
sVignore-changes
p78
(lp79
V__cpuhp_*
p80
aVmodule:drivers/iio/common/st_sensors/**
p81
aVmodule:drivers/net/wireless/**
p82
aVmodule:drivers/power/supply/bq27xxx_battery
p83
aVmodule:drivers/usb/host/**
p84
aVmodule:drivers/usb/musb/**
p85
aVmodule:net/ceph/libceph
p86
aVbtree_*
p87
aVvisitor*
p88
ass(Vbase
p89
Valpha
p90
tp91
(dp92
Vfeaturesets
p93
(lp94
Vnone
p95
asVkernel-arch
p96
Valpha
p97
ss(Vdescription
p98
g90
NValpha-smp
p99
tp100
(dp101
Vhardware
p102
VAlpha SMP
p103
sVhardware-long
p104
VDEC Alpha SMP systems with extended kernel start address (Wildfire, Titan, Marvel)
p105
ss(Vbuild
p106
g90
tp107
(dp108
Vsigned-modules
p109
I00
sVimage-file
p110
Varch/alpha/boot/vmlinux.gz
p111
ss(Vdescription
p112
g90
NValpha-generic
p113
tp114
(dp115
Vhardware
p116
VAlpha
p117
sVhardware-long
p118
VDEC Alpha systems with extended kernel start address (Wildfire, Titan, Marvel)
p119
ss(Vimage
p120
g90
tp121
(dp122
Vsuggests
p123
Vaboot, fdutils
p124
sVinstall-stem
p125
Vvmlinuz
p126
ss(Vbase
p127
g90
g95
tp128
(dp129
Vflavours
p130
(lp131
Valpha-generic
p132
aValpha-smp
p133
asVimplicit-flavour
p134
I01
ss(Vbase
p135
Vamd64
p136
tp137
(dp138
Vfeaturesets
p139
(lp140
Vnone
p141
aVrt
p142
asVkernel-arch
p143
Vx86
p144
ss(Vdescription
p145
g136
NVamd64
p146
tp147
(dp148
Vhardware
p149
V64-bit PCs
p150
sVhardware-long
p151
VPCs with AMD64, Intel 64 or VIA Nano processors
p152
ss(Vbuild
p153
g136
tp154
(dp155
Vvdso
p156
I01
sVimage-file
p157
Varch/x86/boot/bzImage
p158
sVdebug-info
p159
I01
ss(Vrelations
p160
g136
tp161
(dp162
Vheaders%gcc-6
p163
Vlinux-compiler-gcc-6-x86
p164
ss(Vimage
p165
g136
tp166
(dp167
Vbreaks
p168
Vxserver-xorg-input-vmmouse (<< 1:13.0.99)
p169
sVinstall-stem
p170
Vvmlinuz
p171
sVbootloaders
p172
(lp173
Vgrub-pc
p174
aVgrub-efi-amd64
p175
aVextlinux
p176
ass(Vbase
p177
g136
Vnone
p178
tp179
(dp180
Vflavours
p181
(lp182
Vamd64
p183
ass(Vdescription
p184
g136
g178
Vamd64
p185
tp186
(dp187
Vparts
p188
(lp189
Vxen
p190
ass(Vbase
p191
g136
Vrt
p192
tp193
(dp194
Vflavours
p195
(lp196
Vamd64
p197
ass(Vbase
p198
Varm64
p199
tp200
(dp201
Vfeaturesets
p202
(lp203
Vnone
p204
asVkernel-arch
p205
Varm64
p206
ss(Vdescription
p207
g199
NVarm64
p208
tp209
(dp210
Vhardware
p211
V64-bit ARMv8 machines
p212
ss(Vbuild
p213
g199
tp214
(dp215
Vvdso
p216
I01
sVimage-file
p217
Varch/arm64/boot/Image
p218
sVdebug-info
p219
I01
ss(Vimage
p220
g199
NVarm64
p221
tp222
(dp223
s(Vimage
p224
g199
tp225
(dp226
Vbreaks
p227
Vlibmozjs185-1.0, libmozjs-24-0 (<< 24.2.0-5.1~)
p228
sVinstall-stem
p229
Vvmlinuz
p230
ss(Vbase
p231
g199
Vnone
p232
tp233
(dp234
Vflavours
p235
(lp236
Varm64
p237
ass(Vbase
p238
Varmel
p239
tp240
(dp241
g93
(lp242
g95
asVkernel-arch
p243
Varm
p244
ss(Vbuild
p245
g239
tp246
(dp247
Vsigned-modules
p248
I00
sVimage-file
p249
Varch/arm/boot/zImage
p250
ss(Vimage
p251
g239
NVmarvell
p252
tp253
(dp254
Vrecommends
p255
Vu-boot-tools
p256
sVbreaks
p257
Vflash-kernel (<< 3.57~)
p258
sVcheck-size-with-dtb
p259
I01
sVcheck-size
p260
L2097080L
ss(Vdescription
p261
g239
NVmarvell
p262
tp263
(dp264
Vhardware
p265
VMarvell Kirkwood/Orion
p266
sVhardware-long
p267
VMarvell Kirkwood based systems (SheevaPlug, QNAP TS-119/TS-219, etc)\u000aand Orion 5181, 5182 and 5281 based systems (QNAP TS-109/TS-209, etc)
p268
ss(Vrelations
p269
g239
tp270
(dp271
Vheaders%gcc-6
p272
Vlinux-compiler-gcc-6-arm
p273
ss(Vimage
p274
g239
tp275
(dp276
Vinstall-stem
p277
Vvmlinuz
p278
ss(g127
g239
g95
tp279
(dp280
g130
(lp281
Vmarvell
p282
asg134
I01
ss(Vbase
p283
Varmhf
p284
tp285
(dp286
g93
(lp287
g95
asVkernel-arch
p288
Varm
p289
ss(Vdescription
p290
g284
NVarmmp
p291
tp292
(dp293
Vhardware
p294
VARMv7 multiplatform compatible SoCs
p295
sVhardware-long
p296
VARMv7 multiplatform kernel. See\u000ahttps://wiki.debian.org/DebianKernel/ARMMP for details of supported\u000aplatforms
p297
ss(Vbuild
p298
g284
tp299
(dp300
Vvdso
p301
I01
sVimage-file
p302
Varch/arm/boot/zImage
p303
ss(Vdescription
p304
g284
NVarmmp-lpae
p305
tp306
(dp307
Vhardware
p308
VARMv7 multiplatform compatible SoCs supporting LPAE
p309
sVhardware-long
p310
VARMv7 multiplatform kernel supporting LPAE. See\u000ahttps://wiki.debian.org/DebianKernel/ARMMP for details of supported\u000aplatforms.
p311
ss(Vrelations
p312
g284
tp313
(dp314
Vheaders%gcc-6
p315
Vlinux-compiler-gcc-6-arm
p316
ss(Vimage
p317
g284
tp318
(dp319
Vinstall-stem
p320
Vvmlinuz
p321
ss(g127
g284
g95
tp322
(dp323
g130
(lp324
Varmmp
p325
aVarmmp-lpae
p326
asg134
I01
ss(Vbase
p327
Vhppa
p328
tp329
(dp330
g93
(lp331
g95
asVkernel-arch
p332
Vparisc
p333
ss(Vbuild
p334
g328
tp335
(dp336
Vsigned-modules
p337
I00
sVimage-file
p338
Vvmlinux
p339
ss(Vdescription
p340
g328
NVparisc64-smp
p341
tp342
(dp343
Vhardware
p344
Vmultiprocessor 64-bit PA-RISC
p345
sVhardware-long
p346
VHP PA-RISC 64-bit SMP systems with support for more than 4 GB RAM
p347
ss(Vbase
p348
g328
NVparisc64-smp
p349
tp350
(dp351
Vcflags
p352
V-fno-cse-follow-jumps
p353
sVoverride-host-type
p354
Vhppa64-linux-gnu
p355
ss(Vrelations
p356
g328
tp357
(dp358
Vgcc-6
p359
Vgcc-6 <!stage1 !cross>, binutils-hppa64-linux-gnu <!stage1 !cross>, gcc-6-hppa64-linux-gnu <!stage1 !cross>, gcc-6-hppa-linux-gnu:native <!stage1 cross>, binutils-hppa64-linux-gnu:native <!stage1 cross>, gcc-6-hppa64-linux-gnu:native <!stage1 cross>
p360
ss(Vdescription
p361
g328
NVparisc
p362
tp363
(dp364
Vhardware
p365
V32-bit PA-RISC
p366
sVhardware-long
p367
VHP PA-RISC 32-bit systems with max 4 GB RAM
p368
ss(Vimage
p369
g328
tp370
(dp371
Vsuggests
p372
Vpalo
p373
sVinstall-stem
p374
Vvmlinux
p375
ss(g127
g328
g95
tp376
(dp377
g130
(lp378
Vparisc
p379
aVparisc64-smp
p380
asg134
I01
ss(Vbase
p381
Vi386
p382
tp383
(dp384
Vfeaturesets
p385
(lp386
Vnone
p387
aVrt
p388
asVkernel-arch
p389
Vx86
p390
ss(Vbuild
p391
g382
tp392
(dp393
Vvdso
p394
I01
sVimage-file
p395
Varch/x86/boot/bzImage
p396
ss(Vdescription
p397
g382
NV686-pae
p398
tp399
(dp400
Vhardware
p401
Vmodern PCs
p402
sVhardware-long
p403
VPCs with one or more processors supporting PAE
p404
sVparts
p405
(lp406
Vpae
p407
ass(Vdescription
p408
g382
tp409
(dp410
Vpart-long-pae
p411
VThis kernel requires PAE (Physical Address Extension).\u000aThis feature is supported by the Intel Pentium Pro/II/III/4/4M/D, Xeon,\u000aCore and Atom; AMD Geode NX, Athlon (K7), Duron, Opteron, Sempron,\u000aTurion or Phenom; Transmeta Efficeon; VIA C7; and some other processors.
p412
ss(Vbuild
p413
g382
NV686-pae
p414
tp415
(dp416
Vdebug-info
p417
I01
ss(Vdescription
p418
g382
NV686
p419
tp420
(dp421
Vhardware
p422
Volder PCs
p423
sVhardware-long
p424
VPCs with one or more processors not supporting PAE
p425
ss(Vrelations
p426
g382
tp427
(dp428
Vheaders%gcc-6
p429
Vlinux-compiler-gcc-6-x86
p430
ss(Vimage
p431
g382
tp432
(dp433
Vbreaks
p434
Vxserver-xorg-input-vmmouse (<< 1:13.0.99)
p435
sVinstall-stem
p436
Vvmlinuz
p437
sVbootloaders
p438
(lp439
Vgrub-pc
p440
aVextlinux
p441
ass(Vbase
p442
g382
Vnone
p443
tp444
(dp445
Vflavours
p446
(lp447
V686
p448
aV686-pae
p449
ass(Vdescription
p450
g382
g443
V686-pae
p451
tp452
(dp453
Vparts
p454
(lp455
Vxen
p456
ass(Vbase
p457
g382
Vrt
p458
tp459
(dp460
Vflavours
p461
(lp462
V686-pae
p463
ass(Vbase
p464
Vm68k
p465
tp466
(dp467
Vcflags
p468
V-ffreestanding
p469
sg93
(lp470
g95
asVkernel-arch
p471
Vm68k
p472
ss(Vbuild
p473
g465
tp474
(dp475
Vsigned-modules
p476
I00
sVimage-file
p477
Vvmlinux.gz
p478
ss(Vdescription
p479
g465
NVm68k
p480
tp481
(dp482
Vhardware
p483
VMotorola MC68020+ family
p484
ss(Vimage
p485
g465
tp486
(dp487
Vsuggests
p488
Vvmelilo, fdutils
p489
sVinstall-stem
p490
Vvmlinuz
p491
ss(g127
g465
g95
tp492
(dp493
g130
(lp494
Vm68k
p495
asg134
I01
ss(Vbase
p496
Vmips
p497
tp498
(dp499
g93
(lp500
g95
asVkernel-arch
p501
Vmips
p502
ss(Vbuild
p503
g497
tp504
(dp505
Vsigned-modules
p506
I00
sVimage-file
p507
Vvmlinux
p508
ss(Vimage
p509
g497
NV4kc-malta
p510
tp511
(dp512
Vconfigs
p513
(lp514
Vkernelarch-mips/config.malta
p515
aVkernelarch-mips/config.mips32r2
p516
ass(Vimage
p517
g497
NV5kc-malta
p518
tp519
(dp520
Vconfigs
p521
(lp522
Vkernelarch-mips/config.malta
p523
aVkernelarch-mips/config.mips64r2
p524
ass(Vdescription
p525
g497
NVocteon
p526
tp527
(dp528
Vhardware
p529
VOcteon
p530
sVhardware-long
p531
VCavium Networks Octeon
p532
ss(Vimage
p533
g497
NVocteon
p534
tp535
(dp536
Vconfigs
p537
(lp538
Vkernelarch-mips/config.octeon
p539
ass(Vimage
p540
g497
tp541
(dp542
Vinstall-stem
p543
Vvmlinux
p544
ss(Vdescription
p545
g497
NV5kc-malta
p546
tp547
(dp548
Vhardware
p549
VMIPS Malta (64-bit)
p550
sVhardware-long
p551
VMIPS Malta boards (64-bit)
p552
ss(Vdescription
p553
g497
NV4kc-malta
p554
tp555
(dp556
Vhardware
p557
VMIPS Malta
p558
sVhardware-long
p559
VMIPS Malta boards
p560
ss(g127
g497
g95
tp561
(dp562
g130
(lp563
V4kc-malta
p564
aV5kc-malta
p565
aVocteon
p566
asg134
I01
ss(Vbase
p567
Vmipsel
p568
tp569
(dp570
g93
(lp571
g95
asVkernel-arch
p572
Vmips
p573
ss(Vimage
p574
g568
NVloongson-3
p575
tp576
(dp577
Vconfigs
p578
(lp579
Vkernelarch-mips/config.loongson-3
p580
ass(Vbuild
p581
g568
tp582
(dp583
Vsigned-modules
p584
I00
sVimage-file
p585
Vvmlinux
p586
ss(Vimage
p587
g568
NV4kc-malta
p588
tp589
(dp590
Vconfigs
p591
(lp592
Vkernelarch-mips/config.malta
p593
aVkernelarch-mips/config.mips32r2
p594
ass(Vimage
p595
g568
NV5kc-malta
p596
tp597
(dp598
Vconfigs
p599
(lp600
Vkernelarch-mips/config.malta
p601
aVkernelarch-mips/config.mips64r2
p602
ass(Vdescription
p603
g568
NVocteon
p604
tp605
(dp606
Vhardware
p607
VOcteon
p608
sVhardware-long
p609
VCavium Networks Octeon
p610
ss(Vdescription
p611
g568
NVloongson-3
p612
tp613
(dp614
Vhardware
p615
VLoongson 3A/3B
p616
sVhardware-long
p617
VLoongson 3A or 3B based systems (e.g. from Loongson or Lemote)
p618
ss(Vimage
p619
g568
NVocteon
p620
tp621
(dp622
Vconfigs
p623
(lp624
Vkernelarch-mips/config.octeon
p625
ass(Vimage
p626
g568
tp627
(dp628
Vinstall-stem
p629
Vvmlinux
p630
ss(Vdescription
p631
g568
NV5kc-malta
p632
tp633
(dp634
Vhardware
p635
VMIPS Malta (64-bit)
p636
sVhardware-long
p637
VMIPS Malta boards (64-bit)
p638
ss(Vdescription
p639
g568
NV4kc-malta
p640
tp641
(dp642
Vhardware
p643
VMIPS Malta
p644
sVhardware-long
p645
VMIPS Malta boards
p646
ss(g127
g568
g95
tp647
(dp648
g130
(lp649
V4kc-malta
p650
aV5kc-malta
p651
aVloongson-3
p652
aVocteon
p653
asg134
I01
ss(Vbase
p654
Vmipsn32
p655
tp656
(dp657
Vfeaturesets
p658
(lp659
sVkernel-arch
p660
Vmips
p661
ss(Vbase
p662
Vmipsn32el
p663
tp664
(dp665
Vfeaturesets
p666
(lp667
sVkernel-arch
p668
Vmips
p669
ss(Vbase
p670
Vmips64
p671
tp672
(dp673
g93
(lp674
g95
asVkernel-arch
p675
Vmips
p676
ss(Vbuild
p677
g671
tp678
(dp679
Vsigned-modules
p680
I00
sVimage-file
p681
Vvmlinux
p682
ss(Vimage
p683
g671
NV5kc-malta
p684
tp685
(dp686
Vconfigs
p687
(lp688
Vkernelarch-mips/config.malta
p689
aVkernelarch-mips/config.mips64r2
p690
ass(Vdescription
p691
g671
NVocteon
p692
tp693
(dp694
Vhardware
p695
VOcteon
p696
sVhardware-long
p697
VCavium Networks Octeon
p698
ss(Vimage
p699
g671
tp700
(dp701
Vinstall-stem
p702
Vvmlinux
p703
ss(Vdescription
p704
g671
NV5kc-malta
p705
tp706
(dp707
Vhardware
p708
VMIPS Malta
p709
sVhardware-long
p710
VMIPS Malta boards
p711
ss(Vimage
p712
g671
NVocteon
p713
tp714
(dp715
Vconfigs
p716
(lp717
Vkernelarch-mips/config.octeon
p718
ass(g127
g671
g95
tp719
(dp720
g130
(lp721
V5kc-malta
p722
aVocteon
p723
asg134
I01
ss(Vbase
p724
Vmips64el
p725
tp726
(dp727
g93
(lp728
g95
asVkernel-arch
p729
Vmips
p730
ss(Vimage
p731
g725
NVloongson-3
p732
tp733
(dp734
Vconfigs
p735
(lp736
Vkernelarch-mips/config.loongson-3
p737
ass(Vbuild
p738
g725
tp739
(dp740
Vsigned-modules
p741
I00
sVimage-file
p742
Vvmlinux
p743
ss(Vimage
p744
g725
NV5kc-malta
p745
tp746
(dp747
Vconfigs
p748
(lp749
Vkernelarch-mips/config.malta
p750
aVkernelarch-mips/config.mips64r2
p751
ass(Vdescription
p752
g725
NVocteon
p753
tp754
(dp755
Vhardware
p756
VOcteon
p757
sVhardware-long
p758
VCavium Networks Octeon
p759
ss(Vdescription
p760
g725
NVloongson-3
p761
tp762
(dp763
Vhardware
p764
VLoongson 3A/3B
p765
sVhardware-long
p766
VLoongson 3A or 3B based systems (e.g. from Loongson or Lemote)
p767
ss(Vimage
p768
g725
tp769
(dp770
Vinstall-stem
p771
Vvmlinux
p772
ss(Vdescription
p773
g725
NV5kc-malta
p774
tp775
(dp776
Vhardware
p777
VMIPS Malta
p778
sVhardware-long
p779
VMIPS Malta boards
p780
ss(Vimage
p781
g725
NVocteon
p782
tp783
(dp784
Vconfigs
p785
(lp786
Vkernelarch-mips/config.octeon
p787
ass(g127
g725
g95
tp788
(dp789
g130
(lp790
V5kc-malta
p791
aVloongson-3
p792
aVocteon
p793
asg134
I01
ss(Vbase
p794
Vor1k
p795
tp796
(dp797
Vfeaturesets
p798
(lp799
sVkernel-arch
p800
Vopenrisc
p801
ss(Vbase
p802
Vpowerpc
p803
tp804
(dp805
g93
(lp806
g95
asVkernel-arch
p807
Vpowerpc
p808
ss(Vdescription
p809
g803
NVpowerpc64
p810
tp811
(dp812
Vhardware
p813
V64-bit PowerPC
p814
ss(Vbuild
p815
g803
tp816
(dp817
Vvdso
p818
I01
sVimage-file
p819
Vvmlinux
p820
ss(Vimage
p821
g803
NVpowerpc-smp
p822
tp823
(dp824
Vconfigs
p825
(lp826
Vpowerpc/config.powerpc
p827
aVpowerpc/config.powerpc-smp
p828
ass(Vdescription
p829
g803
NVpowerpc
p830
tp831
(dp832
Vhardware
p833
Vuniprocessor 32-bit PowerPC
p834
ss(Vimage
p835
g803
NVpowerpc64
p836
tp837
(dp838
Vconfigs
p839
(lp840
Vkernelarch-powerpc/config-arch-64
p841
aVkernelarch-powerpc/config-arch-64-be
p842
ass(Vdescription
p843
g803
NVpowerpc-smp
p844
tp845
(dp846
Vhardware
p847
Vmultiprocessor 32-bit PowerPC
p848
ss(Vimage
p849
g803
tp850
(dp851
Vsuggests
p852
Vmkvmlinuz
p853
sVinstall-stem
p854
Vvmlinux
p855
sVconfigs
p856
(lp857
ss(g127
g803
g95
tp858
(dp859
g130
(lp860
Vpowerpc
p861
aVpowerpc-smp
p862
aVpowerpc64
p863
asg134
I01
ss(Vbase
p864
Vpowerpcspe
p865
tp866
(dp867
g93
(lp868
g95
asVkernel-arch
p869
Vpowerpc
p870
ss(Vbuild
p871
g865
tp872
(dp873
Vsigned-modules
p874
I00
sVimage-file
p875
Vvmlinux
p876
sVvdso
p877
I01
ss(Vimage
p878
g865
tp879
(dp880
Vsuggests
p881
Vmkvmlinuz
p882
sVinstall-stem
p883
Vvmlinux
p884
ss(Vdescription
p885
g865
tp886
(dp887
Vhardware
p888
V32-bit PowerPC with SPE (instead of AltiVec) with SMP support
p889
ss(g127
g865
g95
tp890
(dp891
g130
(lp892
Vpowerpcspe
p893
asg134
I01
ss(Vbase
p894
Vppc64
p895
tp896
(dp897
g93
(lp898
g95
asVkernel-arch
p899
Vpowerpc
p900
ss(Vdescription
p901
g895
NVpowerpc64
p902
tp903
(dp904
Vhardware
p905
V64-bit PowerPC
p906
ss(Vbuild
p907
g895
tp908
(dp909
Vsigned-modules
p910
I00
sVimage-file
p911
Vvmlinux
p912
sVvdso
p913
I01
ss(Vimage
p914
g895
NVpowerpc64
p915
tp916
(dp917
Vconfigs
p918
(lp919
Vkernelarch-powerpc/config-arch-64
p920
aVkernelarch-powerpc/config-arch-64-be
p921
ass(Vimage
p922
g895
tp923
(dp924
Vsuggests
p925
Vmkvmlinuz
p926
sVinstall-stem
p927
Vvmlinux
p928
sVconfigs
p929
(lp930
ss(g127
g895
g95
tp931
(dp932
g130
(lp933
Vpowerpc64
p934
asg134
I01
ss(Vbase
p935
Vppc64el
p936
tp937
(dp938
g93
(lp939
g95
asVkernel-arch
p940
Vpowerpc
p941
ss(Vdescription
p942
g936
NVpowerpc64le
p943
tp944
(dp945
Vhardware
p946
VLittle-endian 64-bit PowerPC
p947
ss(Vbuild
p948
g936
tp949
(dp950
Vvdso
p951
I01
sVimage-file
p952
Vvmlinux
p953
ss(Vimage
p954
g936
tp955
(dp956
Vsuggests
p957
Vmkvmlinuz
p958
sVinstall-stem
p959
Vvmlinux
p960
sVconfigs
p961
(lp962
ss(Vimage
p963
g936
NVpowerpc64le
p964
tp965
(dp966
Vconfigs
p967
(lp968
Vkernelarch-powerpc/config-arch-64
p969
aVkernelarch-powerpc/config-arch-64-le
p970
ass(g127
g936
g95
tp971
(dp972
g130
(lp973
Vpowerpc64le
p974
asg134
I01
ss(Vbase
p975
Vs390
p976
tp977
(dp978
Vfeaturesets
p979
(lp980
sVkernel-arch
p981
Vs390
p982
ss(Vbase
p983
Vs390x
p984
tp985
(dp986
g93
(lp987
g95
asVkernel-arch
p988
Vs390
p989
ss(Vdescription
p990
g984
NVs390x
p991
tp992
(dp993
Vhardware
p994
VIBM zSeries
p995
ss(Vbuild
p996
g984
tp997
(dp998
Vvdso
p999
I01
sVimage-file
p1000
Varch/s390/boot/image
p1001
ss(Vbuild
p1002
g984
NVs390x
p1003
tp1004
(dp1005
Vdebug-info
p1006
I01
ss(Vrelations
p1007
g984
tp1008
(dp1009
Vheaders%gcc-6
p1010
Vlinux-compiler-gcc-6-s390
p1011
ss(Vimage
p1012
g984
tp1013
(dp1014
Vinstall-stem
p1015
Vvmlinuz
p1016
sVbootloaders
p1017
(lp1018
Vs390-tools
p1019
ass(g127
g984
g95
tp1020
(dp1021
g130
(lp1022
Vs390x
p1023
asg134
I01
ss(Vbase
p1024
Vsh3
p1025
tp1026
(dp1027
Vfeaturesets
p1028
(lp1029
sVkernel-arch
p1030
Vsh
p1031
ss(Vbase
p1032
Vsh4
p1033
tp1034
(dp1035
g93
(lp1036
g95
asVkernel-arch
p1037
Vsh
p1038
ss(Vbuild
p1039
g1033
tp1040
(dp1041
Vsigned-modules
p1042
I00
sVimage-file
p1043
Varch/sh/boot/zImage
p1044
ss(Vdescription
p1045
g1033
NVsh7751r
p1046
tp1047
(dp1048
Vhardware
p1049
Vsh7751r
p1050
sVhardware-long
p1051
VRenesas SH7751R R2D plus board
p1052
ss(Vdescription
p1053
g1033
NVsh7785lcr
p1054
tp1055
(dp1056
Vhardware
p1057
Vsh7785lcr
p1058
sVhardware-long
p1059
VRenesas SH7785 reference board
p1060
ss(Vimage
p1061
g1033
tp1062
(dp1063
Vinstall-stem
p1064
Vvmlinuz
p1065
ss(Vimage
p1066
g1033
NVsh7785lcr
p1067
tp1068
(dp1069
Vrecommends
p1070
Vu-boot-tools
p1071
sVcheck-size
p1072
L4194304L
ss(g127
g1033
g95
tp1073
(dp1074
g130
(lp1075
Vsh7751r
p1076
aVsh7785lcr
p1077
asg134
I01
ss(Vbase
p1078
Vsparc
p1079
tp1080
(dp1081
Vfeaturesets
p1082
(lp1083
sVkernel-arch
p1084
Vsparc
p1085
ss(Vbase
p1086
Vsparc64
p1087
tp1088
(dp1089
g93
(lp1090
g95
asVkernel-arch
p1091
Vsparc
p1092
ss(Vbuild
p1093
g1087
tp1094
(dp1095
Vsigned-modules
p1096
I00
sVimage-file
p1097
Varch/sparc/boot/zImage
p1098
ss(Vimage
p1099
g1087
NVsparc64
p1100
tp1101
(dp1102
Vconfigs
p1103
(lp1104
Vkernelarch-sparc/config-up
p1105
ass(Vimage
p1106
g1087
NVsparc64-smp
p1107
tp1108
(dp1109
Vconfigs
p1110
(lp1111
Vkernelarch-sparc/config-smp
p1112
ass(Vimage
p1113
g1087
tp1114
(dp1115
Vsuggests
p1116
Vsilo, fdutils
p1117
sVinstall-stem
p1118
Vvmlinuz
p1119
sVconfigs
p1120
(lp1121
ss(Vdescription
p1122
g1087
NVsparc64-smp
p1123
tp1124
(dp1125
Vhardware
p1126
Vmultiprocessor 64-bit UltraSPARC
p1127
ss(Vdescription
p1128
g1087
NVsparc64
p1129
tp1130
(dp1131
Vhardware
p1132
Vuniprocessor 64-bit UltraSPARC
p1133
ss(g127
g1087
g95
tp1134
(dp1135
g130
(lp1136
Vsparc64
p1137
aVsparc64-smp
p1138
asg134
I01
ss(Vbase
p1139
Vtilegx
p1140
tp1141
(dp1142
Vfeaturesets
p1143
(lp1144
sVkernel-arch
p1145
Vtile
p1146
ss(Vbase
p1147
Vx32
p1148
tp1149
(dp1150
Vfeaturesets
p1151
(lp1152
sVkernel-arch
p1153
Vx86
p1154
ss(Vdescription
p1155
NVrt
p1156
tp1157
(dp1158
Vparts
p1159
(lp1160
Vrt
p1161
asVpart-long-rt
p1162
VThis kernel includes the PREEMPT_RT realtime patch set.
p1163
sVpart-short-rt
p1164
VPREEMPT_RT
p1165
ss(Vabi
p1166
Ng1156
tp1167
(dp1168
Vignore-changes
p1169
(lp1170
V*
p1171
ass(Vversion
p1172
tp1173
(dp1174
Vupstream
p1175
V4.9
p1176
sVsource
p1177
V4.9.6-3
p1178
sVabiname
p1179
V4.9.0-1
p1180
sVabiname_base
p1181
V4.9.0
p1182
ss.