ccopy_reg
_reconstructor
p0
(cdebian_linux.config
ConfigCore
p1
c__builtin__
dict
p2
(dp3
(Vbase
p4
Vtilegx
p5
tp6
(dp7
Vfeaturesets
p8
(lp9
sVkernel-arch
p10
Vtile
p11
ss(Vimage
p12
Vmips64
p13
NV5kc-malta
p14
tp15
(dp16
Vconfigs
p17
(lp18
Vkernelarch-mips/config.malta
p19
aVkernelarch-mips/config.mips64r2
p20
ass(Vimage
p21
Vmips
p22
NVocteon
p23
tp24
(dp25
Vconfigs
p26
(lp27
Vkernelarch-mips/config.octeon
p28
ass(Vbase
p29
Vsparc64
p30
Vnone
p31
tp32
(dp33
Vflavours
p34
(lp35
Vsparc64
p36
aVsparc64-smp
p37
asVimplicit-flavour
p38
I01
ss(Vdescription
p39
Vs390x
p40
NVs390x
p41
tp42
(dp43
Vhardware
p44
VIBM zSeries
p45
ss(Vimage
p46
g30
tp47
(dp48
Vconfigs
p49
(lp50
sVinstall-stem
p51
Vvmlinuz
p52
sVsuggests
p53
Vsilo, fdutils
p54
ss(Vimage
p55
Vmipsel
p56
NVocteon
p57
tp58
(dp59
Vconfigs
p60
(lp61
Vkernelarch-mips/config.octeon
p62
ass(Vdescription
p63
Valpha
p64
NValpha-generic
p65
tp66
(dp67
Vhardware-long
p68
VDEC Alpha systems with extended kernel start address (Wildfire, Titan, Marvel)
p69
sVhardware
p70
VAlpha
p71
ss(Vimage
p72
Vpowerpc
p73
tp74
(dp75
Vconfigs
p76
(lp77
sVinstall-stem
p78
Vvmlinux
p79
sVsuggests
p80
Vmkvmlinuz
p81
ss(Vrelations
p82
Vhppa
p83
tp84
(dp85
Vgcc-5
p86
Vgcc-5 <!stage1 !cross>, binutils-hppa64-linux-gnu <!stage1 !cross>, gcc-5-hppa64-linux-gnu <!stage1 !cross>, gcc-5-hppa-linux-gnu:native <!stage1 cross>, binutils-hppa64-linux-gnu:native <!stage1 cross>, gcc-5-hppa64-linux-gnu:native <!stage1 cross>
p87
ss(g29
Varmhf
p88
g31
tp89
(dp90
g34
(lp91
Varmmp
p92
aVarmmp-lpae
p93
asg38
I01
ss(g29
Vppc64el
p94
g31
tp95
(dp96
g34
(lp97
Vpowerpc64le
p98
asg38
I01
ss(g29
Vppc64
p99
g31
tp100
(dp101
g34
(lp102
Vpowerpc64
p103
asg38
I01
ss(Vimage
p104
g22
tp105
(dp106
Vinstall-stem
p107
Vvmlinux
p108
ss(Vimage
p109
Varm64
p110
NVarm64
p111
tp112
(dp113
s(Vdescription
p114
Vmips64el
p115
NVocteon
p116
tp117
(dp118
Vhardware-long
p119
VCavium Networks Octeon
p120
sVhardware
p121
VOcteon
p122
ss(g29
Vpowerpcspe
p123
g31
tp124
(dp125
g34
(lp126
Vpowerpcspe
p127
asg38
I01
ss(Vbuild
p128
g123
tp129
(dp130
Vsigned-modules
p131
I00
sVimage-file
p132
Vvmlinux
p133
sVvdso
p134
I01
ss(Vdescription
p135
g99
NVpowerpc64
p136
tp137
(dp138
Vhardware
p139
V64-bit PowerPC
p140
ss(Vdescription
p141
g73
NVpowerpc
p142
tp143
(dp144
Vhardware
p145
Vuniprocessor 32-bit PowerPC
p146
ss(Vimage
p147
g56
NV5kc-malta
p148
tp149
(dp150
Vconfigs
p151
(lp152
Vkernelarch-mips/config.malta
p153
aVkernelarch-mips/config.mips64r2
p154
ass(Vbuild
p155
Vm68k
p156
tp157
(dp158
Vsigned-modules
p159
I00
sVimage-file
p160
Vvmlinux.gz
p161
ss(Vbase
p162
Vamd64
p163
Vnone
p164
tp165
(dp166
Vflavours
p167
(lp168
Vamd64
p169
ass(Vdescription
p170
Vi386
p171
NV686
p172
tp173
(dp174
Vhardware-long
p175
VPCs with one or more processors not supporting PAE
p176
sVhardware
p177
Volder PCs
p178
ss(Vbuild
p179
g56
tp180
(dp181
Vsigned-modules
p182
I00
sVimage-file
p183
Vvmlinux
p184
ss(Vdescription
p185
g22
NV5kc-malta
p186
tp187
(dp188
Vhardware-long
p189
VMIPS Malta boards (64-bit)
p190
sVhardware
p191
VMIPS Malta (64-bit)
p192
ss(Vbuild
p193
g94
tp194
(dp195
Vimage-file
p196
Vvmlinux
p197
sVvdso
p198
I01
ss(Vbase
p199
g171
Vrt
p200
tp201
(dp202
Vflavours
p203
(lp204
V686-pae
p205
ass(Vimage
p206
g110
tp207
(dp208
Vinstall-stem
p209
Vvmlinuz
p210
ss(Vbase
p211
g83
tp212
(dp213
Vfeaturesets
p214
(lp215
g31
asVkernel-arch
p216
Vparisc
p217
ss(Vdescription
p218
g56
NV5kc-malta
p219
tp220
(dp221
Vhardware-long
p222
VMIPS Malta boards (64-bit)
p223
sVhardware
p224
VMIPS Malta (64-bit)
p225
ss(Vbase
p226
g110
tp227
(dp228
Vfeaturesets
p229
(lp230
Vnone
p231
asVkernel-arch
p232
Varm64
p233
ss(Vdescription
p234
g163
g164
Vamd64
p235
tp236
(dp237
Vparts
p238
(lp239
Vxen
p240
ass(Vimage
p241
g115
NV5kc-malta
p242
tp243
(dp244
Vconfigs
p245
(lp246
Vkernelarch-mips/config.malta
p247
aVkernelarch-mips/config.mips64r2
p248
ass(Vbase
p249
g40
tp250
(dp251
g214
(lp252
g31
asVkernel-arch
p253
Vs390
p254
ss(Vdescription
p255
g22
NV4kc-malta
p256
tp257
(dp258
Vhardware-long
p259
VMIPS Malta boards
p260
sVhardware
p261
VMIPS Malta
p262
ss(Vbuild
p263
g40
NVs390x
p264
tp265
(dp266
Vdebug-info
p267
I01
ss(Vimage
p268
g56
tp269
(dp270
Vinstall-stem
p271
Vvmlinux
p272
ss(Vimage
p273
Vsh4
p274
tp275
(dp276
Vinstall-stem
p277
Vvmlinuz
p278
ss(Vdescription
p279
g56
NV4kc-malta
p280
tp281
(dp282
Vhardware-long
p283
VMIPS Malta boards
p284
sVhardware
p285
VMIPS Malta
p286
ss(g29
g274
g31
tp287
(dp288
g34
(lp289
Vsh7751r
p290
aVsh7785lcr
p291
asg38
I01
ss(Vbuild
p292
Varmel
p293
tp294
(dp295
Vsigned-modules
p296
I00
sVimage-file
p297
Varch/arm/boot/zImage
p298
ss(g29
g64
g31
tp299
(dp300
g34
(lp301
Valpha-generic
p302
aValpha-smp
p303
asg38
I01
ss(Vdescription
p304
g56
NVloongson-3
p305
tp306
(dp307
Vhardware-long
p308
VLoongson 3A or 3B based systems (e.g. from Loongson or Lemote)
p309
sVhardware
p310
VLoongson 3A/3B
p311
ss(Vdescription
p312
g171
tp313
(dp314
Vpart-long-pae
p315
VThis kernel requires PAE (Physical Address Extension).\u000aThis feature is supported by the Intel Pentium Pro/II/III/4/4M/D, Xeon,\u000aCore and Atom; AMD Geode NX, Athlon (K7), Duron, Opteron, Sempron,\u000aTurion or Phenom; Transmeta Efficeon; VIA C7; and some other processors.
p316
ss(Vbase
p317
tp318
(dp319
Vcompiler
p320
Vgcc-5
p321
sVfeaturesets
p322
(lp323
Vnone
p324
aVrt
p325
asVarches
p326
(lp327
Valpha
p328
aVamd64
p329
aVarm64
p330
aVarmel
p331
aVarmhf
p332
aVhppa
p333
aVi386
p334
aVm68k
p335
aVmips
p336
aVmipsel
p337
aVmipsn32
p338
aVmipsn32el
p339
aVmips64
p340
aVmips64el
p341
aVor1k
p342
aVpowerpc
p343
aVpowerpcspe
p344
aVppc64
p345
aVppc64el
p346
aVs390
p347
aVs390x
p348
aVsh4
p349
aVsparc
p350
aVsparc64
p351
aVtilegx
p352
aVx32
p353
ass(Vdescription
p354
g123
tp355
(dp356
Vhardware
p357
V32-bit PowerPC with SPE (instead of AltiVec) with SMP support
p358
ss(Vimage
p359
g171
tp360
(dp361
Vinstall-stem
p362
Vvmlinuz
p363
sVbootloaders
p364
(lp365
Vgrub-pc
p366
aVextlinux
p367
asVbreaks
p368
Vxserver-xorg-input-vmmouse (<< 1:13.0.99)
p369
ss(Vbase
p370
g88
tp371
(dp372
g214
(lp373
g31
asVkernel-arch
p374
Varm
p375
ss(Vbase
p376
g94
tp377
(dp378
g214
(lp379
g31
asVkernel-arch
p380
Vpowerpc
p381
ss(Vimage
p382
g99
NVpowerpc64
p383
tp384
(dp385
Vconfigs
p386
(lp387
Vkernelarch-powerpc/config-arch-64
p388
aVkernelarch-powerpc/config-arch-64-be
p389
ass(Vimage
p390
g115
NVloongson-3
p391
tp392
(dp393
Vconfigs
p394
(lp395
Vkernelarch-mips/config.loongson-3
p396
ass(Vimage
p397
g156
tp398
(dp399
Vinstall-stem
p400
Vvmlinuz
p401
sVsuggests
p402
Vvmelilo, fdutils
p403
ss(Vimage
p404
g83
tp405
(dp406
Vinstall-stem
p407
Vvmlinux
p408
sVsuggests
p409
Vpalo
p410
ss(Vbuild
p411
g171
tp412
(dp413
Vimage-file
p414
Varch/x86/boot/bzImage
p415
sVvdso
p416
I01
ss(Vbase
p417
Vor1k
p418
tp419
(dp420
Vfeaturesets
p421
(lp422
sVkernel-arch
p423
Vopenrisc
p424
ss(Vbase
p425
g13
tp426
(dp427
g214
(lp428
g31
asVkernel-arch
p429
Vmips
p430
ss(Vdescription
p431
g274
NVsh7785lcr
p432
tp433
(dp434
Vhardware-long
p435
VRenesas SH7785 reference board
p436
sVhardware
p437
Vsh7785lcr
p438
ss(Vimage
p439
g274
NVsh7785lcr
p440
tp441
(dp442
Vrecommends
p443
Vu-boot-tools
p444
sVcheck-size
p445
L4194304L
ss(Vimage
p446
tp447
(dp448
Vinitramfs-generators
p449
(lp450
Vinitramfs-tools
p451
aVinitramfs-fallback
p452
ass(Vbuild
p453
g22
tp454
(dp455
Vsigned-modules
p456
I00
sVimage-file
p457
Vvmlinux
p458
ss(g29
g115
g31
tp459
(dp460
g34
(lp461
V5kc-malta
p462
aVloongson-3
p463
aVocteon
p464
asg38
I01
ss(Vdescription
p465
g171
Vnone
p466
V686-pae
p467
tp468
(dp469
Vparts
p470
(lp471
Vxen
p472
ass(Vbase
p473
g274
tp474
(dp475
g214
(lp476
g31
asVkernel-arch
p477
Vsh
p478
ss(Vimage
p479
g123
tp480
(dp481
Vinstall-stem
p482
Vvmlinux
p483
sVsuggests
p484
Vmkvmlinuz
p485
ss(Vimage
p486
g13
tp487
(dp488
Vinstall-stem
p489
Vvmlinux
p490
ss(Vdescription
p491
g274
NVsh7751r
p492
tp493
(dp494
Vhardware-long
p495
VRenesas SH7751R R2D plus board
p496
sVhardware
p497
Vsh7751r
p498
ss(Vbuild
p499
g171
NV686-pae
p500
tp501
(dp502
Vdebug-info
p503
I01
ss(Vdescription
p504
g22
NVocteon
p505
tp506
(dp507
Vhardware-long
p508
VCavium Networks Octeon
p509
sVhardware
p510
VOcteon
p511
ss(Vimage
p512
g293
NVmarvell
p513
tp514
(dp515
Vrecommends
p516
Vu-boot-tools
p517
sVcheck-size
p518
L2097080L
sVcheck-size-with-dtb
p519
I01
sVbreaks
p520
Vflash-kernel (<< 3.57~)
p521
ss(Vdescription
p522
g293
NVmarvell
p523
tp524
(dp525
Vhardware-long
p526
VMarvell Kirkwood based systems (SheevaPlug, QNAP TS-119/TS-219, etc)\u000aand Orion 5181, 5182 and 5281 based systems (QNAP TS-109/TS-209, etc)
p527
sVhardware
p528
VMarvell Kirkwood/Orion
p529
ss(Vrelations
p530
g88
tp531
(dp532
Vheaders%gcc-5
p533
Vlinux-compiler-gcc-5-arm
p534
ss(Vdescription
p535
g30
NVsparc64-smp
p536
tp537
(dp538
Vhardware
p539
Vmultiprocessor 64-bit UltraSPARC
p540
ss(Vdescription
p541
g156
NVm68k
p542
tp543
(dp544
Vhardware
p545
VMotorola MC68020+ family
p546
ss(Vbuild
p547
tp548
(dp549
Vsigned-modules
p550
I01
sVdebug-info
p551
I01
ss(Vbase
p552
g73
tp553
(dp554
g214
(lp555
g31
asVkernel-arch
p556
Vpowerpc
p557
ss(Vdescription
p558
g73
NVpowerpc-smp
p559
tp560
(dp561
Vhardware
p562
Vmultiprocessor 32-bit PowerPC
p563
ss(g29
g156
g31
tp564
(dp565
g34
(lp566
Vm68k
p567
asg38
I01
ss(Vimage
p568
g22
NV4kc-malta
p569
tp570
(dp571
Vconfigs
p572
(lp573
Vkernelarch-mips/config.malta
p574
aVkernelarch-mips/config.mips32r2
p575
ass(Vimage
p576
g88
tp577
(dp578
Vinstall-stem
p579
Vvmlinuz
p580
ss(Vdescription
p581
g88
NVarmmp-lpae
p582
tp583
(dp584
Vhardware-long
p585
VARMv7 multiplatform kernel supporting LPAE. See\u000ahttps://wiki.debian.org/DebianKernel/ARMMP for details of supported\u000aplatforms.
p586
sVhardware
p587
VARMv7 multiplatform compatible SoCs supporting LPAE
p588
ss(Vimage
p589
g56
NVloongson-3
p590
tp591
(dp592
Vconfigs
p593
(lp594
Vkernelarch-mips/config.loongson-3
p595
ass(g29
g22
g31
tp596
(dp597
g34
(lp598
V4kc-malta
p599
aV5kc-malta
p600
aVocteon
p601
asg38
I01
ss(Vbase
p602
g30
tp603
(dp604
g214
(lp605
g31
asVkernel-arch
p606
Vsparc
p607
ss(Vimage
p608
g73
NVpowerpc-smp
p609
tp610
(dp611
Vconfigs
p612
(lp613
Vpowerpc/config.powerpc
p614
aVpowerpc/config.powerpc-smp
p615
ass(Vbuild
p616
g83
tp617
(dp618
Vsigned-modules
p619
I00
sVimage-file
p620
Vvmlinux
p621
ss(Vdescription
p622
g115
NV5kc-malta
p623
tp624
(dp625
Vhardware-long
p626
VMIPS Malta boards
p627
sVhardware
p628
VMIPS Malta
p629
ss(Vimage
p630
g56
NV4kc-malta
p631
tp632
(dp633
Vconfigs
p634
(lp635
Vkernelarch-mips/config.malta
p636
aVkernelarch-mips/config.mips32r2
p637
ass(Vimage
p638
g30
NVsparc64-smp
p639
tp640
(dp641
Vconfigs
p642
(lp643
Vkernelarch-sparc/config-smp
p644
ass(Vdescription
p645
g163
NVamd64
p646
tp647
(dp648
Vhardware-long
p649
VPCs with AMD64, Intel 64 or VIA Nano processors
p650
sVhardware
p651
V64-bit PCs
p652
ss(Vbase
p653
g293
tp654
(dp655
g214
(lp656
g31
asVkernel-arch
p657
Varm
p658
ss(Vdescription
p659
g73
NVpowerpc64
p660
tp661
(dp662
Vhardware
p663
V64-bit PowerPC
p664
ss(g29
g13
g31
tp665
(dp666
g34
(lp667
V5kc-malta
p668
aVocteon
p669
asg38
I01
ss(Vdescription
p670
g64
NValpha-smp
p671
tp672
(dp673
Vhardware-long
p674
VDEC Alpha SMP systems with extended kernel start address (Wildfire, Titan, Marvel)
p675
sVhardware
p676
VAlpha SMP
p677
ss(g29
g40
g31
tp678
(dp679
g34
(lp680
Vs390x
p681
asg38
I01
ss(Vimage
p682
g64
tp683
(dp684
Vinstall-stem
p685
Vvmlinuz
p686
sVsuggests
p687
Vaboot, fdutils
p688
ss(Vbase
p689
Vmipsn32el
p690
tp691
(dp692
Vfeaturesets
p693
(lp694
sVkernel-arch
p695
Vmips
p696
ss(Vbuild
p697
g73
tp698
(dp699
Vimage-file
p700
Vvmlinux
p701
sVvdso
p702
I01
ss(Vabi
p703
NVrt
p704
tp705
(dp706
Vignore-changes
p707
(lp708
V*
p709
ass(Vrelations
p710
tp711
(dp712
Vgcc-5
p713
Vgcc-5 <!stage1 !cross>, gcc-5-@gnu-type-package@:native <!stage1 cross>
p714
sVinitramfs-fallback
p715
Vlinux-initramfs-tool
p716
sVinitramfs-tools
p717
Vinitramfs-tools (>= 0.110~)
p718
ss(Vdescription
p719
g110
NVarm64
p720
tp721
(dp722
Vhardware
p723
V64-bit ARMv8 machines
p724
ss(Vbase
p725
g99
tp726
(dp727
g214
(lp728
g31
asVkernel-arch
p729
Vpowerpc
p730
ss(g29
g73
g31
tp731
(dp732
g34
(lp733
Vpowerpc
p734
aVpowerpc-smp
p735
aVpowerpc64
p736
asg38
I01
ss(Vdescription
p737
g171
NV686-pae
p738
tp739
(dp740
Vhardware-long
p741
VPCs with one or more processors supporting PAE
p742
sVhardware
p743
Vmodern PCs
p744
sVparts
p745
(lp746
Vpae
p747
ass(Vbase
p748
Vs390
p749
tp750
(dp751
Vfeaturesets
p752
(lp753
sVkernel-arch
p754
Vs390
p755
ss(Vimage
p756
g22
NV5kc-malta
p757
tp758
(dp759
Vconfigs
p760
(lp761
Vkernelarch-mips/config.malta
p762
aVkernelarch-mips/config.mips64r2
p763
ass(Vbase
p764
g56
tp765
(dp766
g214
(lp767
g31
asVkernel-arch
p768
Vmips
p769
ss(Vdescription
p770
g30
NVsparc64
p771
tp772
(dp773
Vhardware
p774
Vuniprocessor 64-bit UltraSPARC
p775
ss(Vimage
p776
g94
NVpowerpc64le
p777
tp778
(dp779
Vconfigs
p780
(lp781
Vkernelarch-powerpc/config-arch-64
p782
aVkernelarch-powerpc/config-arch-64-le
p783
ass(Vimage
p784
g94
tp785
(dp786
Vconfigs
p787
(lp788
sVinstall-stem
p789
Vvmlinux
p790
sVsuggests
p791
Vmkvmlinuz
p792
ss(Vbuild
p793
g99
tp794
(dp795
Vsigned-modules
p796
I00
sVimage-file
p797
Vvmlinux
p798
sVvdso
p799
I01
ss(Vbase
p800
g115
tp801
(dp802
g214
(lp803
g31
asVkernel-arch
p804
Vmips
p805
ss(Vdescription
p806
g94
NVpowerpc64le
p807
tp808
(dp809
Vhardware
p810
VLittle-endian 64-bit PowerPC
p811
ss(Vrelations
p812
g293
tp813
(dp814
Vheaders%gcc-5
p815
Vlinux-compiler-gcc-5-arm
p816
ss(Vimage
p817
g163
tp818
(dp819
Vinstall-stem
p820
Vvmlinuz
p821
sVbootloaders
p822
(lp823
Vgrub-pc
p824
aVgrub-efi-amd64
p825
aVextlinux
p826
asVbreaks
p827
Vxserver-xorg-input-vmmouse (<< 1:13.0.99)
p828
ss(Vbuild
p829
g88
tp830
(dp831
Vimage-file
p832
Varch/arm/boot/zImage
p833
sVvdso
p834
I01
ss(Vimage
p835
g293
tp836
(dp837
Vinstall-stem
p838
Vvmlinuz
p839
ss(Vrelations
p840
g163
tp841
(dp842
Vheaders%gcc-5
p843
Vlinux-compiler-gcc-5-x86
p844
ss(Vdescription
p845
g83
NVparisc64-smp
p846
tp847
(dp848
Vhardware-long
p849
VHP PA-RISC 64-bit SMP systems with support for more than 4 GB RAM
p850
sVhardware
p851
Vmultiprocessor 64-bit PA-RISC
p852
ss(Vimage
p853
g99
tp854
(dp855
Vconfigs
p856
(lp857
sVinstall-stem
p858
Vvmlinux
p859
sVsuggests
p860
Vmkvmlinuz
p861
ss(Vbuild
p862
g163
tp863
(dp864
Vdebug-info
p865
I01
sVvdso
p866
I01
sVimage-file
p867
Varch/x86/boot/bzImage
p868
ss(Vdescription
p869
g56
NVocteon
p870
tp871
(dp872
Vhardware-long
p873
VCavium Networks Octeon
p874
sVhardware
p875
VOcteon
p876
ss(Vbase
p877
Vmipsn32
p878
tp879
(dp880
Vfeaturesets
p881
(lp882
sVkernel-arch
p883
Vmips
p884
ss(Vrelations
p885
g171
tp886
(dp887
Vheaders%gcc-5
p888
Vlinux-compiler-gcc-5-x86
p889
ss(Vbase
p890
g64
tp891
(dp892
g214
(lp893
g31
asVkernel-arch
p894
Valpha
p895
ss(Vbuild
p896
g30
tp897
(dp898
Vsigned-modules
p899
I00
sVimage-file
p900
Varch/sparc/boot/zImage
p901
ss(Vdescription
p902
g13
NV5kc-malta
p903
tp904
(dp905
Vhardware-long
p906
VMIPS Malta boards
p907
sVhardware
p908
VMIPS Malta
p909
ss(Vrelations
p910
g40
tp911
(dp912
Vheaders%gcc-5
p913
Vlinux-compiler-gcc-5-s390
p914
ss(Vbuild
p915
g274
tp916
(dp917
Vsigned-modules
p918
I00
sVimage-file
p919
Varch/sh/boot/zImage
p920
ss(Vbuild
p921
g110
tp922
(dp923
Vdebug-info
p924
I01
sVvdso
p925
I01
sVimage-file
p926
Varch/arm64/boot/Image
p927
ss(Vbase
p928
g22
tp929
(dp930
g214
(lp931
g31
asVkernel-arch
p932
Vmips
p933
ss(Vbase
p934
Vx32
p935
tp936
(dp937
Vfeaturesets
p938
(lp939
sVkernel-arch
p940
Vx86
p941
ss(Vdescription
p942
g293
NVversatile
p943
tp944
(dp945
Vhardware-long
p946
VVersatile systems (PB, AB, Qemu)
p947
sVhardware
p948
VVersatile
p949
ss(Vimage
p950
g40
tp951
(dp952
Vinstall-stem
p953
Vvmlinuz
p954
sVbootloaders
p955
(lp956
Vs390-tools
p957
ass(g29
g83
g31
tp958
(dp959
g34
(lp960
Vparisc
p961
aVparisc64-smp
p962
asg38
I01
ss(g29
g293
g31
tp963
(dp964
g34
(lp965
Vmarvell
p966
aVversatile
p967
asg38
I01
ss(Vbase
p968
NVrt
p969
tp970
(dp971
Venabled
p972
I01
ss(Vbuild
p973
g115
tp974
(dp975
Vsigned-modules
p976
I00
sVimage-file
p977
Vvmlinux
p978
ss(Vimage
p979
g73
NVpowerpc64
p980
tp981
(dp982
Vconfigs
p983
(lp984
Vkernelarch-powerpc/config-arch-64
p985
aVkernelarch-powerpc/config-arch-64-be
p986
ass(Vbuild
p987
g40
tp988
(dp989
Vimage-file
p990
Varch/s390/boot/image
p991
sVvdso
p992
I01
ss(Vbuild
p993
g13
tp994
(dp995
Vsigned-modules
p996
I00
sVimage-file
p997
Vvmlinux
p998
ss(Vbase
p999
g163
Vrt
p1000
tp1001
(dp1002
Vflavours
p1003
(lp1004
Vamd64
p1005
ass(Vdescription
p1006
g13
NVocteon
p1007
tp1008
(dp1009
Vhardware-long
p1010
VCavium Networks Octeon
p1011
sVhardware
p1012
VOcteon
p1013
ss(Vbuild
p1014
g64
tp1015
(dp1016
Vsigned-modules
p1017
I00
sVimage-file
p1018
Varch/alpha/boot/vmlinux.gz
p1019
ss(Vdescription
p1020
g83
NVparisc
p1021
tp1022
(dp1023
Vhardware-long
p1024
VHP PA-RISC 32-bit systems with max 4 GB RAM
p1025
sVhardware
p1026
V32-bit PA-RISC
p1027
ss(Vimage
p1028
g13
NVocteon
p1029
tp1030
(dp1031
Vconfigs
p1032
(lp1033
Vkernelarch-mips/config.octeon
p1034
ass(Vdescription
p1035
g88
NVarmmp
p1036
tp1037
(dp1038
Vhardware-long
p1039
VARMv7 multiplatform kernel. See\u000ahttps://wiki.debian.org/DebianKernel/ARMMP for details of supported\u000aplatforms
p1040
sVhardware
p1041
VARMv7 multiplatform compatible SoCs
p1042
ss(Vimage
p1043
g30
NVsparc64
p1044
tp1045
(dp1046
Vconfigs
p1047
(lp1048
Vkernelarch-sparc/config-up
p1049
ass(Vdescription
p1050
g115
NVloongson-3
p1051
tp1052
(dp1053
Vhardware-long
p1054
VLoongson 3A or 3B based systems (e.g. from Loongson or Lemote)
p1055
sVhardware
p1056
VLoongson 3A/3B
p1057
ss(Vbase
p1058
g171
g466
tp1059
(dp1060
Vflavours
p1061
(lp1062
V686
p1063
aV686-pae
p1064
ass(Vdescription
p1065
Ng704
tp1066
(dp1067
Vpart-short-rt
p1068
VPREEMPT_RT
p1069
sVpart-long-rt
p1070
VThis kernel includes the PREEMPT_RT realtime patch set.
p1071
sVparts
p1072
(lp1073
Vrt
p1074
ass(Vbase
p1075
g110
Vnone
p1076
tp1077
(dp1078
Vflavours
p1079
(lp1080
Varm64
p1081
ass(Vbase
p1082
g83
NVparisc64-smp
p1083
tp1084
(dp1085
Voverride-host-type
p1086
Vhppa64-linux-gnu
p1087
sVcflags
p1088
V-fno-cse-follow-jumps
p1089
ss(Vimage
p1090
g115
NVocteon
p1091
tp1092
(dp1093
Vconfigs
p1094
(lp1095
Vkernelarch-mips/config.octeon
p1096
ass(Vxen
p1097
g163
g164
Vamd64
p1098
tp1099
(dp1100
Vflavours
p1101
(lp1102
Vamd64
p1103
ass(Vbase
p1104
g163
tp1105
(dp1106
Vfeaturesets
p1107
(lp1108
Vnone
p1109
aVrt
p1110
asVkernel-arch
p1111
Vx86
p1112
ss(Vbase
p1113
Vsparc
p1114
tp1115
(dp1116
Vfeaturesets
p1117
(lp1118
sVkernel-arch
p1119
Vsparc
p1120
ss(Vbase
p1121
g156
tp1122
(dp1123
g214
(lp1124
g31
asVkernel-arch
p1125
Vm68k
p1126
sVcflags
p1127
V-ffreestanding
p1128
ss(Vabi
p1129
tp1130
(dp1131
Vabiname
p1132
V1
p1133
ss(Vimage
p1134
g115
tp1135
(dp1136
Vinstall-stem
p1137
Vvmlinux
p1138
ss(g29
g56
g31
tp1139
(dp1140
g34
(lp1141
V4kc-malta
p1142
aV5kc-malta
p1143
aVloongson-3
p1144
aVocteon
p1145
asg38
I01
ss(Vbase
p1146
g123
tp1147
(dp1148
g214
(lp1149
g31
asVkernel-arch
p1150
Vpowerpc
p1151
ss(Vdescription
p1152
tp1153
(dp1154
Vpart-long-up
p1155
VThis kernel is not suitable for SMP (multi-processor,\u000amulti-core or hyper-threaded) systems.
p1156
sVpart-long-xen
p1157
VThis kernel also runs on a Xen hypervisor.\u000aIt supports both privileged (dom0) and unprivileged (domU) operation.
p1158
ss(Vbase
p1159
g171
tp1160
(dp1161
Vfeaturesets
p1162
(lp1163
Vnone
p1164
aVrt
p1165
asVkernel-arch
p1166
Vx86
p1167
ss(Vversion
p1168
tp1169
(dp1170
Vabiname
p1171
V4.8.0-1
p1172
sVabiname_base
p1173
V4.8.0
p1174
sVsource
p1175
V4.8.5-1
p1176
sVupstream
p1177
V4.8
p1178
sstp1179
Rp1180
.