cdebian_linux.config
ConfigCore
p0
(tRp1
(Vbase
p2
tp3
(dp4
Varches
p5
(lp6
Valpha
p7
aVamd64
p8
aVarm64
p9
aVarmel
p10
aVarmhf
p11
aVhppa
p12
aVi386
p13
aVm68k
p14
aVmips
p15
aVmipsel
p16
aVmipsn32
p17
aVmipsn32el
p18
aVmips64
p19
aVmips64el
p20
aVpowerpc
p21
aVpowerpcspe
p22
aVppc64
p23
aVppc64el
p24
aVs390
p25
aVs390x
p26
aVsh3
p27
aVsh4
p28
aVsparc
p29
aVsparc64
p30
aVtilegx
p31
aVx32
p32
asVfeaturesets
p33
(lp34
Vnone
p35
aVrt
p36
asVcompiler
p37
Vgcc-4.9
p38
ss(Vbuild
p39
tp40
(dp41
Vdebug-info
p42
I01
ss(Vbase
p43
NVrt
p44
tp45
(dp46
Venabled
p47
I01
ss(Vdescription
p48
tp49
(dp50
Vpart-long-up
p51
VThis kernel is not suitable for SMP (multi-processor,\u000amulti-core or hyper-threaded) systems.
p52
sVpart-long-xen
p53
VThis kernel also runs on a Xen hypervisor.\u000aIt supports both privileged (dom0) and unprivileged (domU) operation.
p54
ss(Vrelations
p55
tp56
(dp57
Vgcc-4.9
p58
Vgcc-4.9 <!stage1 !cross>, gcc-6-@gnu-type-package@:native <!stage1 cross>
p59
sVinitramfs-tools
p60
Vinitramfs-tools (>= 0.120+deb8u2)
p61
sVinitramfs-fallback
p62
Vlinux-initramfs-tool
p63
ss(Vimage
p64
tp65
(dp66
Vinitramfs-generators
p67
(lp68
Vinitramfs-tools
p69
aVinitramfs-fallback
p70
ass(Vabi
p71
tp72
(dp73
Vabiname
p74
V5
p75
sVignore-changes
p76
(lp77
V__cpuhp_*
p78
aVbpf_analyzer
p79
aVcxl_*
p80
aVcpu_tlbstate
p81
aVinet_frag_*
p82
aVinet_frags_*
p83
aVmm_iommu_*
p84
aVmv_mbus_*
p85
aVregister_cxl_calls
p86
aVregister_key_type
p87
aVtcp_cong_avoid_ai
p88
aVtcp_slow_start
p89
aVunregister_cxl_calls
p90
aVmodule:arch/x86/kvm/*
p91
aVmodule:drivers/crypto/ccp/*
p92
aVmodule:drivers/hv/*
p93
aVmodule:drivers/iio/common/hid-sensors/*
p94
aVmodule:drivers/iio/common/st_sensors/**
p95
aVmodule:drivers/md/dm-*
p96
aVmodule:drivers/net/wireless/**
p97
aVmodule:drivers/nvdimm/*
p98
aVmodule:drivers/nvme/target/*
p99
aVmodule:drivers/power/supply/bq27xxx_battery
p100
aVmodule:drivers/s390/net/qeth
p101
aVmodule:drivers/s390/net/qeth*
p102
aVmodule:drivers/scsi/cxgbi/*
p103
aVmodule:drivers/scsi/libiscs*
p104
aVmodule:drivers/scsi/libsas/*
p105
aVmodule:drivers/scsi/hisi_sas/*
p106
aVmodule:drivers/scsi/qla2xxx/qla2xxx
p107
aVmodule:drivers/scsi/ufs/*
p108
aVmodule:drivers/target/**
p109
aVmodule:drivers/usb/chipidea/**
p110
aVmodule:drivers/usb/gadget/**
p111
aVmodule:drivers/usb/host/**
p112
aVmodule:drivers/usb/musb/**
p113
aVmodule:drivers/usb/usbip/*
p114
aVmodule:fs/nfs/nfs
p115
aVmodule:net/ceph/libceph
p116
aVmodule:net/ipv4/inet_diag
p117
aVmodule:net/l2tp/**
p118
aVmodule:net/sctp/*
p119
aVmodule:net/vmw_vsock/*
p120
aVmodule:sound/firewire/snd-firewire-lib
p121
aVbtree_*
p122
aVvisitor*
p123
aVcan_rx_register
p124
aVip6_xmit
p125
aVmodule:net/dccp/dccp
p126
aVmodule:net/rds/rds
p127
aVdevfreq_*
p128
aVdevm_devfreq_*
p129
aVupdate_devfreq
p130
aVmodule:drivers/infiniband/**
p131
aVacpi_ec_add_query_handler
p132
aVacpi_ec_remove_query_handler
p133
aVfirst_ec
p134
aVdebugfs_create_automount
p135
ass(Vbase
p136
Valpha
p137
tp138
(dp139
Vfeaturesets
p140
(lp141
Vnone
p142
asVkernel-arch
p143
Valpha
p144
ss(Vdescription
p145
g137
NValpha-smp
p146
tp147
(dp148
Vhardware
p149
VAlpha SMP
p150
sVhardware-long
p151
VDEC Alpha SMP systems with extended kernel start address (Wildfire, Titan, Marvel)
p152
ss(Vbuild
p153
g137
tp154
(dp155
Vsigned-modules
p156
I00
sVimage-file
p157
Varch/alpha/boot/vmlinux.gz
p158
ss(Vdescription
p159
g137
NValpha-generic
p160
tp161
(dp162
Vhardware
p163
VAlpha
p164
sVhardware-long
p165
VDEC Alpha systems with extended kernel start address (Wildfire, Titan, Marvel)
p166
ss(Vimage
p167
g137
tp168
(dp169
Vsuggests
p170
Vaboot, fdutils
p171
sVinstall-stem
p172
Vvmlinuz
p173
ss(Vbase
p174
g137
g142
tp175
(dp176
Vflavours
p177
(lp178
Valpha-generic
p179
aValpha-smp
p180
asVimplicit-flavour
p181
I01
ss(Vbase
p182
Vamd64
p183
tp184
(dp185
Vfeaturesets
p186
(lp187
Vnone
p188
aVrt
p189
asVkernel-arch
p190
Vx86
p191
ss(Vdescription
p192
g183
NVamd64
p193
tp194
(dp195
Vhardware
p196
V64-bit PCs
p197
sVhardware-long
p198
VPCs with AMD64, Intel 64 or VIA Nano processors
p199
ss(Vbuild
p200
g183
tp201
(dp202
Vvdso
p203
I01
sVimage-file
p204
Varch/x86/boot/bzImage
p205
sVdebug-info
p206
I01
ss(Vrelations
p207
g183
tp208
(dp209
Vheaders%gcc-6
p210
Vlinux-compiler-gcc-6-x86
p211
ss(Vimage
p212
g183
tp213
(dp214
Vbreaks
p215
Vxserver-xorg-input-vmmouse (<< 1:13.0.99)
p216
sVinstall-stem
p217
Vvmlinuz
p218
sVbootloaders
p219
(lp220
Vgrub-pc
p221
aVgrub-efi-amd64
p222
aVextlinux
p223
ass(Vbase
p224
g183
Vnone
p225
tp226
(dp227
Vflavours
p228
(lp229
Vamd64
p230
ass(Vdescription
p231
g183
g225
Vamd64
p232
tp233
(dp234
Vparts
p235
(lp236
Vxen
p237
ass(Vbase
p238
g183
Vrt
p239
tp240
(dp241
Vflavours
p242
(lp243
Vamd64
p244
ass(Vbase
p245
Varm64
p246
tp247
(dp248
Vfeaturesets
p249
(lp250
Vnone
p251
asVkernel-arch
p252
Varm64
p253
ss(Vdescription
p254
g246
NVarm64
p255
tp256
(dp257
Vhardware
p258
V64-bit ARMv8 machines
p259
ss(Vbuild
p260
g246
tp261
(dp262
Vvdso
p263
I01
sVimage-file
p264
Varch/arm64/boot/Image
p265
sVdebug-info
p266
I01
ss(Vimage
p267
g246
NVarm64
p268
tp269
(dp270
s(Vimage
p271
g246
tp272
(dp273
Vbreaks
p274
Vlibmozjs185-1.0, libmozjs-24-0 (<< 24.2.0-5.1~)
p275
sVinstall-stem
p276
Vvmlinuz
p277
ss(Vbase
p278
g246
Vnone
p279
tp280
(dp281
Vflavours
p282
(lp283
Varm64
p284
ass(Vbase
p285
Varmel
p286
tp287
(dp288
g140
(lp289
g142
asVkernel-arch
p290
Varm
p291
ss(Vbuild
p292
g286
tp293
(dp294
Vsigned-modules
p295
I00
sVimage-file
p296
Varch/arm/boot/zImage
p297
ss(Vimage
p298
g286
NVmarvell
p299
tp300
(dp301
Vrecommends
p302
Vu-boot-tools
p303
sVbreaks
p304
Vflash-kernel (<< 3.57~)
p305
sVcheck-size-with-dtb
p306
I01
sVcheck-size
p307
L2097080L
ss(Vdescription
p308
g286
NVmarvell
p309
tp310
(dp311
Vhardware
p312
VMarvell Kirkwood/Orion
p313
sVhardware-long
p314
VMarvell Kirkwood based systems (SheevaPlug, QNAP TS-119/TS-219, etc)\u000aand Orion 5181, 5182 and 5281 based systems (QNAP TS-109/TS-209, etc)
p315
ss(Vrelations
p316
g286
tp317
(dp318
Vheaders%gcc-6
p319
Vlinux-compiler-gcc-6-arm
p320
ss(Vimage
p321
g286
tp322
(dp323
Vinstall-stem
p324
Vvmlinuz
p325
ss(g174
g286
g142
tp326
(dp327
g177
(lp328
Vmarvell
p329
asg181
I01
ss(Vdescription
p330
Varmhf
p331
NVarmmp
p332
tp333
(dp334
Vhardware
p335
VARMv7 multiplatform compatible SoCs
p336
sVhardware-long
p337
VARMv7 multiplatform kernel. See\u000ahttps://wiki.debian.org/DebianKernel/ARMMP for details of supported\u000aplatforms
p338
ss(Vdescription
p339
g331
NVrpi
p340
tp341
(dp342
Vhardware
p343
VRaspberryPI
p344
sVhardware-long
p345
VRaspberry PI
p346
ss(Vdescription
p347
g331
NVarmmp-lpae
p348
tp349
(dp350
Vhardware
p351
VARMv7 multiplatform compatible SoCs supporting LPAE
p352
sVhardware-long
p353
VARMv7 multiplatform kernel supporting LPAE. See\u000ahttps://wiki.debian.org/DebianKernel/ARMMP for details of supported\u000aplatforms.
p354
ss(Vbuild
p355
g331
NVrpi
p356
tp357
(dp358
Vimage-file
p359
Varch/arm/boot/zImagerpdt
p360
ss(Vrelations
p361
g331
tp362
(dp363
Vheaders%gcc-4.9
p364
Vlinux-compiler-gcc-4.9-arm
p365
ss(Vimage
p366
g331
tp367
(dp368
Vinstall-stem
p369
Vvmlinuz
p370
ss(Vbase
p371
g331
tp372
(dp373
g140
(lp374
g142
asVkernel-arch
p375
Varm
p376
ss(Vbuild
p377
g331
tp378
(dp379
Vvdso
p380
I01
sVimage-file
p381
Varch/arm/boot/zImage
p382
ss(Vbuild
p383
g331
NVrpi2
p384
tp385
(dp386
Vimage-file
p387
Varch/arm/boot/zImagerpdt
p388
ss(Vimage
p389
g331
NVrpi2
p390
tp391
(dp392
Vconfigs
p393
(lp394
Varmhf/config.rpix
p395
aVarmhf/config.rpi2
p396
ass(Vimage
p397
g331
NVrpi
p398
tp399
(dp400
Vconfigs
p401
(lp402
Varmhf/config.rpix
p403
aVarmhf/config.rpi
p404
ass(Vdescription
p405
g331
NVrpi2
p406
tp407
(dp408
Vhardware
p409
VRaspberryPI2
p410
sVhardware-long
p411
VRaspberry PI 2
p412
ss(g174
g331
g142
tp413
(dp414
g177
(lp415
Vrpi
p416
aVrpi2
p417
asg181
I01
ss(Vbase
p418
Vhppa
p419
tp420
(dp421
g140
(lp422
g142
asVkernel-arch
p423
Vparisc
p424
ss(Vbuild
p425
g419
tp426
(dp427
Vsigned-modules
p428
I00
sVimage-file
p429
Vvmlinux
p430
ss(Vdescription
p431
g419
NVparisc64-smp
p432
tp433
(dp434
Vhardware
p435
Vmultiprocessor 64-bit PA-RISC
p436
sVhardware-long
p437
VHP PA-RISC 64-bit SMP systems with support for more than 4 GB RAM
p438
ss(Vbase
p439
g419
NVparisc64-smp
p440
tp441
(dp442
Vcflags
p443
V-fno-cse-follow-jumps
p444
sVoverride-host-type
p445
Vhppa64-linux-gnu
p446
ss(Vrelations
p447
g419
tp448
(dp449
Vgcc-6
p450
Vgcc-6 <!stage1 !cross>, binutils-hppa64-linux-gnu <!stage1 !cross>, gcc-6-hppa64-linux-gnu <!stage1 !cross>, gcc-6-hppa-linux-gnu <!stage1 cross>, binutils-hppa64-linux-gnu <!stage1 cross>, gcc-6-hppa64-linux-gnu <!stage1 cross>
p451
ss(Vdescription
p452
g419
NVparisc
p453
tp454
(dp455
Vhardware
p456
V32-bit PA-RISC
p457
sVhardware-long
p458
VHP PA-RISC 32-bit systems with max 4 GB RAM
p459
ss(Vimage
p460
g419
tp461
(dp462
Vsuggests
p463
Vpalo
p464
sVinstall-stem
p465
Vvmlinux
p466
ss(g174
g419
g142
tp467
(dp468
g177
(lp469
Vparisc
p470
aVparisc64-smp
p471
asg181
I01
ss(Vbase
p472
Vi386
p473
tp474
(dp475
Vfeaturesets
p476
(lp477
Vnone
p478
aVrt
p479
asVkernel-arch
p480
Vx86
p481
ss(Vbuild
p482
g473
tp483
(dp484
Vvdso
p485
I01
sVimage-file
p486
Varch/x86/boot/bzImage
p487
ss(Vdescription
p488
g473
NV686-pae
p489
tp490
(dp491
Vhardware
p492
Vmodern PCs
p493
sVhardware-long
p494
VPCs with one or more processors supporting PAE
p495
sVparts
p496
(lp497
Vpae
p498
ass(Vdescription
p499
g473
tp500
(dp501
Vpart-long-pae
p502
VThis kernel requires PAE (Physical Address Extension).\u000aThis feature is supported by the Intel Pentium Pro/II/III/4/4M/D, Xeon,\u000aCore and Atom; AMD Geode NX, Athlon (K7), Duron, Opteron, Sempron,\u000aTurion or Phenom; Transmeta Efficeon; VIA C7; and some other processors.
p503
ss(Vbuild
p504
g473
NV686-pae
p505
tp506
(dp507
Vdebug-info
p508
I01
ss(Vdescription
p509
g473
NV686
p510
tp511
(dp512
Vhardware
p513
Volder PCs
p514
sVhardware-long
p515
VPCs with one or more processors not supporting PAE
p516
ss(Vrelations
p517
g473
tp518
(dp519
Vheaders%gcc-6
p520
Vlinux-compiler-gcc-6-x86
p521
ss(Vimage
p522
g473
tp523
(dp524
Vbreaks
p525
Vxserver-xorg-input-vmmouse (<< 1:13.0.99)
p526
sVinstall-stem
p527
Vvmlinuz
p528
sVbootloaders
p529
(lp530
Vgrub-pc
p531
aVextlinux
p532
ass(Vbase
p533
g473
Vnone
p534
tp535
(dp536
Vflavours
p537
(lp538
V686
p539
aV686-pae
p540
ass(Vdescription
p541
g473
g534
V686-pae
p542
tp543
(dp544
Vparts
p545
(lp546
Vxen
p547
ass(Vbase
p548
g473
Vrt
p549
tp550
(dp551
Vflavours
p552
(lp553
V686-pae
p554
ass(Vbase
p555
Vm68k
p556
tp557
(dp558
Vcflags
p559
V-ffreestanding
p560
sg140
(lp561
g142
asVkernel-arch
p562
Vm68k
p563
ss(Vbuild
p564
g556
tp565
(dp566
Vsigned-modules
p567
I00
sVimage-file
p568
Vvmlinux.gz
p569
ss(Vdescription
p570
g556
NVm68k
p571
tp572
(dp573
Vhardware
p574
VMotorola MC68020+ family
p575
ss(Vimage
p576
g556
tp577
(dp578
Vsuggests
p579
Vvmelilo, fdutils
p580
sVinstall-stem
p581
Vvmlinuz
p582
ss(g174
g556
g142
tp583
(dp584
g177
(lp585
Vm68k
p586
asg181
I01
ss(Vbase
p587
Vmips
p588
tp589
(dp590
g140
(lp591
g142
asVkernel-arch
p592
Vmips
p593
ss(Vbuild
p594
g588
tp595
(dp596
Vsigned-modules
p597
I00
sVimage-file
p598
Vvmlinux
p599
ss(Vimage
p600
g588
NV4kc-malta
p601
tp602
(dp603
Vconfigs
p604
(lp605
Vkernelarch-mips/config.malta
p606
aVkernelarch-mips/config.mips32r2
p607
ass(Vimage
p608
g588
NV5kc-malta
p609
tp610
(dp611
Vconfigs
p612
(lp613
Vkernelarch-mips/config.malta
p614
aVkernelarch-mips/config.mips64r2
p615
ass(Vdescription
p616
g588
NVocteon
p617
tp618
(dp619
Vhardware
p620
VOcteon
p621
sVhardware-long
p622
VCavium Networks Octeon
p623
ss(Vimage
p624
g588
NVocteon
p625
tp626
(dp627
Vconfigs
p628
(lp629
Vkernelarch-mips/config.octeon
p630
ass(Vimage
p631
g588
tp632
(dp633
Vinstall-stem
p634
Vvmlinux
p635
ss(Vdescription
p636
g588
NV5kc-malta
p637
tp638
(dp639
Vhardware
p640
VMIPS Malta (64-bit)
p641
sVhardware-long
p642
VMIPS Malta boards (64-bit)
p643
ss(Vdescription
p644
g588
NV4kc-malta
p645
tp646
(dp647
Vhardware
p648
VMIPS Malta
p649
sVhardware-long
p650
VMIPS Malta boards
p651
ss(g174
g588
g142
tp652
(dp653
g177
(lp654
V4kc-malta
p655
aV5kc-malta
p656
aVocteon
p657
asg181
I01
ss(Vbase
p658
Vmipsel
p659
tp660
(dp661
g140
(lp662
g142
asVkernel-arch
p663
Vmips
p664
ss(Vimage
p665
g659
NVloongson-3
p666
tp667
(dp668
Vconfigs
p669
(lp670
Vkernelarch-mips/config.loongson-3
p671
ass(Vbuild
p672
g659
tp673
(dp674
Vsigned-modules
p675
I00
sVimage-file
p676
Vvmlinux
p677
ss(Vimage
p678
g659
NV4kc-malta
p679
tp680
(dp681
Vconfigs
p682
(lp683
Vkernelarch-mips/config.malta
p684
aVkernelarch-mips/config.mips32r2
p685
ass(Vimage
p686
g659
NV5kc-malta
p687
tp688
(dp689
Vconfigs
p690
(lp691
Vkernelarch-mips/config.malta
p692
aVkernelarch-mips/config.mips64r2
p693
ass(Vdescription
p694
g659
NVocteon
p695
tp696
(dp697
Vhardware
p698
VOcteon
p699
sVhardware-long
p700
VCavium Networks Octeon
p701
ss(Vdescription
p702
g659
NVloongson-3
p703
tp704
(dp705
Vhardware
p706
VLoongson 3A/3B
p707
sVhardware-long
p708
VLoongson 3A or 3B based systems (e.g. from Loongson or Lemote)
p709
ss(Vimage
p710
g659
NVocteon
p711
tp712
(dp713
Vconfigs
p714
(lp715
Vkernelarch-mips/config.octeon
p716
ass(Vimage
p717
g659
tp718
(dp719
Vinstall-stem
p720
Vvmlinux
p721
ss(Vdescription
p722
g659
NV5kc-malta
p723
tp724
(dp725
Vhardware
p726
VMIPS Malta (64-bit)
p727
sVhardware-long
p728
VMIPS Malta boards (64-bit)
p729
ss(Vdescription
p730
g659
NV4kc-malta
p731
tp732
(dp733
Vhardware
p734
VMIPS Malta
p735
sVhardware-long
p736
VMIPS Malta boards
p737
ss(g174
g659
g142
tp738
(dp739
g177
(lp740
V4kc-malta
p741
aV5kc-malta
p742
aVloongson-3
p743
aVocteon
p744
asg181
I01
ss(Vbase
p745
Vmipsn32
p746
tp747
(dp748
Vfeaturesets
p749
(lp750
sVkernel-arch
p751
Vmips
p752
ss(Vbase
p753
Vmipsn32el
p754
tp755
(dp756
Vfeaturesets
p757
(lp758
sVkernel-arch
p759
Vmips
p760
ss(Vbase
p761
Vmips64
p762
tp763
(dp764
g140
(lp765
g142
asVkernel-arch
p766
Vmips
p767
ss(Vbuild
p768
g762
tp769
(dp770
Vsigned-modules
p771
I00
sVimage-file
p772
Vvmlinux
p773
ss(Vimage
p774
g762
NV5kc-malta
p775
tp776
(dp777
Vconfigs
p778
(lp779
Vkernelarch-mips/config.malta
p780
aVkernelarch-mips/config.mips64r2
p781
ass(Vdescription
p782
g762
NVocteon
p783
tp784
(dp785
Vhardware
p786
VOcteon
p787
sVhardware-long
p788
VCavium Networks Octeon
p789
ss(Vimage
p790
g762
tp791
(dp792
Vinstall-stem
p793
Vvmlinux
p794
ss(Vdescription
p795
g762
NV5kc-malta
p796
tp797
(dp798
Vhardware
p799
VMIPS Malta
p800
sVhardware-long
p801
VMIPS Malta boards
p802
ss(Vimage
p803
g762
NVocteon
p804
tp805
(dp806
Vconfigs
p807
(lp808
Vkernelarch-mips/config.octeon
p809
ass(g174
g762
g142
tp810
(dp811
g177
(lp812
V5kc-malta
p813
aVocteon
p814
asg181
I01
ss(Vbase
p815
Vmips64el
p816
tp817
(dp818
g140
(lp819
g142
asVkernel-arch
p820
Vmips
p821
ss(Vimage
p822
g816
NVloongson-3
p823
tp824
(dp825
Vconfigs
p826
(lp827
Vkernelarch-mips/config.loongson-3
p828
ass(Vbuild
p829
g816
tp830
(dp831
Vsigned-modules
p832
I00
sVimage-file
p833
Vvmlinux
p834
ss(Vimage
p835
g816
NV5kc-malta
p836
tp837
(dp838
Vconfigs
p839
(lp840
Vkernelarch-mips/config.malta
p841
aVkernelarch-mips/config.mips64r2
p842
ass(Vdescription
p843
g816
NVocteon
p844
tp845
(dp846
Vhardware
p847
VOcteon
p848
sVhardware-long
p849
VCavium Networks Octeon
p850
ss(Vdescription
p851
g816
NVloongson-3
p852
tp853
(dp854
Vhardware
p855
VLoongson 3A/3B
p856
sVhardware-long
p857
VLoongson 3A or 3B based systems (e.g. from Loongson or Lemote)
p858
ss(Vimage
p859
g816
tp860
(dp861
Vinstall-stem
p862
Vvmlinux
p863
ss(Vdescription
p864
g816
NV5kc-malta
p865
tp866
(dp867
Vhardware
p868
VMIPS Malta
p869
sVhardware-long
p870
VMIPS Malta boards
p871
ss(Vimage
p872
g816
NVocteon
p873
tp874
(dp875
Vconfigs
p876
(lp877
Vkernelarch-mips/config.octeon
p878
ass(g174
g816
g142
tp879
(dp880
g177
(lp881
V5kc-malta
p882
aVloongson-3
p883
aVocteon
p884
asg181
I01
ss(Vbase
p885
Vpowerpc
p886
tp887
(dp888
g140
(lp889
g142
asVkernel-arch
p890
Vpowerpc
p891
ss(Vdescription
p892
g886
NVpowerpc64
p893
tp894
(dp895
Vhardware
p896
V64-bit PowerPC
p897
ss(Vbuild
p898
g886
tp899
(dp900
Vvdso
p901
I01
sVimage-file
p902
Vvmlinux
p903
ss(Vimage
p904
g886
NVpowerpc-smp
p905
tp906
(dp907
Vconfigs
p908
(lp909
Vpowerpc/config.powerpc
p910
aVpowerpc/config.powerpc-smp
p911
ass(Vdescription
p912
g886
NVpowerpc
p913
tp914
(dp915
Vhardware
p916
Vuniprocessor 32-bit PowerPC
p917
ss(Vimage
p918
g886
NVpowerpc64
p919
tp920
(dp921
Vconfigs
p922
(lp923
Vkernelarch-powerpc/config-arch-64
p924
aVkernelarch-powerpc/config-arch-64-be
p925
ass(Vdescription
p926
g886
NVpowerpc-smp
p927
tp928
(dp929
Vhardware
p930
Vmultiprocessor 32-bit PowerPC
p931
ss(Vimage
p932
g886
tp933
(dp934
Vsuggests
p935
Vmkvmlinuz
p936
sVinstall-stem
p937
Vvmlinux
p938
sVconfigs
p939
(lp940
ss(g174
g886
g142
tp941
(dp942
g177
(lp943
Vpowerpc
p944
aVpowerpc-smp
p945
aVpowerpc64
p946
asg181
I01
ss(Vbase
p947
Vpowerpcspe
p948
tp949
(dp950
g140
(lp951
g142
asVkernel-arch
p952
Vpowerpc
p953
ss(Vbuild
p954
g948
tp955
(dp956
Vsigned-modules
p957
I00
sVimage-file
p958
Vvmlinux
p959
sVvdso
p960
I01
ss(Vimage
p961
g948
tp962
(dp963
Vsuggests
p964
Vmkvmlinuz
p965
sVinstall-stem
p966
Vvmlinux
p967
ss(Vdescription
p968
g948
tp969
(dp970
Vhardware
p971
V32-bit PowerPC with SPE (instead of AltiVec) with SMP support
p972
ss(g174
g948
g142
tp973
(dp974
g177
(lp975
Vpowerpcspe
p976
asg181
I01
ss(Vbase
p977
Vppc64
p978
tp979
(dp980
g140
(lp981
g142
asVkernel-arch
p982
Vpowerpc
p983
ss(Vdescription
p984
g978
NVpowerpc64
p985
tp986
(dp987
Vhardware
p988
V64-bit PowerPC
p989
ss(Vbuild
p990
g978
tp991
(dp992
Vsigned-modules
p993
I00
sVimage-file
p994
Vvmlinux
p995
sVvdso
p996
I01
ss(Vimage
p997
g978
NVpowerpc64
p998
tp999
(dp1000
Vconfigs
p1001
(lp1002
Vkernelarch-powerpc/config-arch-64
p1003
aVkernelarch-powerpc/config-arch-64-be
p1004
ass(Vimage
p1005
g978
tp1006
(dp1007
Vsuggests
p1008
Vmkvmlinuz
p1009
sVinstall-stem
p1010
Vvmlinux
p1011
sVconfigs
p1012
(lp1013
ss(g174
g978
g142
tp1014
(dp1015
g177
(lp1016
Vpowerpc64
p1017
asg181
I01
ss(Vbase
p1018
Vppc64el
p1019
tp1020
(dp1021
g140
(lp1022
g142
asVkernel-arch
p1023
Vpowerpc
p1024
ss(Vdescription
p1025
g1019
NVpowerpc64le
p1026
tp1027
(dp1028
Vhardware
p1029
VLittle-endian 64-bit PowerPC
p1030
ss(Vbuild
p1031
g1019
tp1032
(dp1033
Vvdso
p1034
I01
sVimage-file
p1035
Vvmlinux
p1036
ss(Vimage
p1037
g1019
tp1038
(dp1039
Vsuggests
p1040
Vmkvmlinuz
p1041
sVinstall-stem
p1042
Vvmlinux
p1043
sVconfigs
p1044
(lp1045
ss(Vimage
p1046
g1019
NVpowerpc64le
p1047
tp1048
(dp1049
Vconfigs
p1050
(lp1051
Vkernelarch-powerpc/config-arch-64
p1052
aVkernelarch-powerpc/config-arch-64-le
p1053
ass(g174
g1019
g142
tp1054
(dp1055
g177
(lp1056
Vpowerpc64le
p1057
asg181
I01
ss(Vbase
p1058
Vs390
p1059
tp1060
(dp1061
Vfeaturesets
p1062
(lp1063
sVkernel-arch
p1064
Vs390
p1065
ss(Vbase
p1066
Vs390x
p1067
tp1068
(dp1069
g140
(lp1070
g142
asVkernel-arch
p1071
Vs390
p1072
ss(Vdescription
p1073
g1067
NVs390x
p1074
tp1075
(dp1076
Vhardware
p1077
VIBM zSeries
p1078
ss(Vbuild
p1079
g1067
tp1080
(dp1081
Vvdso
p1082
I01
sVimage-file
p1083
Varch/s390/boot/image
p1084
ss(Vbuild
p1085
g1067
NVs390x
p1086
tp1087
(dp1088
Vdebug-info
p1089
I01
ss(Vrelations
p1090
g1067
tp1091
(dp1092
Vheaders%gcc-6
p1093
Vlinux-compiler-gcc-6-s390
p1094
ss(Vimage
p1095
g1067
tp1096
(dp1097
Vinstall-stem
p1098
Vvmlinuz
p1099
sVbootloaders
p1100
(lp1101
Vs390-tools
p1102
ass(g174
g1067
g142
tp1103
(dp1104
g177
(lp1105
Vs390x
p1106
asg181
I01
ss(Vbase
p1107
Vsh3
p1108
tp1109
(dp1110
Vfeaturesets
p1111
(lp1112
sVkernel-arch
p1113
Vsh
p1114
ss(Vbase
p1115
Vsh4
p1116
tp1117
(dp1118
g140
(lp1119
g142
asVkernel-arch
p1120
Vsh
p1121
ss(Vbuild
p1122
g1116
tp1123
(dp1124
Vsigned-modules
p1125
I00
sVimage-file
p1126
Varch/sh/boot/zImage
p1127
ss(Vdescription
p1128
g1116
NVsh7751r
p1129
tp1130
(dp1131
Vhardware
p1132
Vsh7751r
p1133
sVhardware-long
p1134
VRenesas SH7751R R2D plus board
p1135
ss(Vdescription
p1136
g1116
NVsh7785lcr
p1137
tp1138
(dp1139
Vhardware
p1140
Vsh7785lcr
p1141
sVhardware-long
p1142
VRenesas SH7785 reference board
p1143
ss(Vimage
p1144
g1116
tp1145
(dp1146
Vinstall-stem
p1147
Vvmlinuz
p1148
ss(Vimage
p1149
g1116
NVsh7785lcr
p1150
tp1151
(dp1152
Vrecommends
p1153
Vu-boot-tools
p1154
sVcheck-size
p1155
L4194304L
ss(g174
g1116
g142
tp1156
(dp1157
g177
(lp1158
Vsh7751r
p1159
aVsh7785lcr
p1160
asg181
I01
ss(Vbase
p1161
Vsparc
p1162
tp1163
(dp1164
Vfeaturesets
p1165
(lp1166
sVkernel-arch
p1167
Vsparc
p1168
ss(Vbase
p1169
Vsparc64
p1170
tp1171
(dp1172
g140
(lp1173
g142
asVkernel-arch
p1174
Vsparc
p1175
ss(Vbuild
p1176
g1170
tp1177
(dp1178
Vsigned-modules
p1179
I00
sVimage-file
p1180
Varch/sparc/boot/zImage
p1181
ss(Vimage
p1182
g1170
NVsparc64
p1183
tp1184
(dp1185
Vconfigs
p1186
(lp1187
Vkernelarch-sparc/config-up
p1188
ass(Vimage
p1189
g1170
NVsparc64-smp
p1190
tp1191
(dp1192
Vconfigs
p1193
(lp1194
Vkernelarch-sparc/config-smp
p1195
ass(Vimage
p1196
g1170
tp1197
(dp1198
Vsuggests
p1199
Vsilo, fdutils
p1200
sVinstall-stem
p1201
Vvmlinuz
p1202
sVconfigs
p1203
(lp1204
ss(Vdescription
p1205
g1170
NVsparc64-smp
p1206
tp1207
(dp1208
Vhardware
p1209
Vmultiprocessor 64-bit UltraSPARC
p1210
ss(Vdescription
p1211
g1170
NVsparc64
p1212
tp1213
(dp1214
Vhardware
p1215
Vuniprocessor 64-bit UltraSPARC
p1216
ss(g174
g1170
g142
tp1217
(dp1218
g177
(lp1219
Vsparc64
p1220
aVsparc64-smp
p1221
asg181
I01
ss(Vbase
p1222
Vtilegx
p1223
tp1224
(dp1225
Vfeaturesets
p1226
(lp1227
sVkernel-arch
p1228
Vtile
p1229
ss(Vbase
p1230
Vx32
p1231
tp1232
(dp1233
Vfeaturesets
p1234
(lp1235
sVkernel-arch
p1236
Vx86
p1237
ss(Vdescription
p1238
NVrt
p1239
tp1240
(dp1241
Vparts
p1242
(lp1243
Vrt
p1244
asVpart-long-rt
p1245
VThis kernel includes the PREEMPT_RT realtime patch set.
p1246
sVpart-short-rt
p1247
VPREEMPT_RT
p1248
ss(Vabi
p1249
Ng1239
tp1250
(dp1251
Vignore-changes
p1252
(lp1253
V*
p1254
ass(Vversion
p1255
tp1256
(dp1257
Vupstream
p1258
V4.9
p1259
sVsource
p1260
V4.9.80-2+rpi1
p1261
sVabiname
p1262
V4.9.0-5
p1263
sVabiname_base
p1264
V4.9.0
p1265
ss.