cdebian_linux.config
ConfigCore
p0
(tRp1
(Vbase
p2
tp3
(dp4
Varches
p5
(lp6
Valpha
p7
aVamd64
p8
aVarm64
p9
aVarmel
p10
aVarmhf
p11
aVhppa
p12
aVi386
p13
aVm68k
p14
aVmips
p15
aVmipsel
p16
aVmipsn32
p17
aVmipsn32el
p18
aVmips64
p19
aVmips64el
p20
aVpowerpc
p21
aVpowerpcspe
p22
aVppc64
p23
aVppc64el
p24
aVs390
p25
aVs390x
p26
aVsh3
p27
aVsh4
p28
aVsparc
p29
aVsparc64
p30
aVtilegx
p31
aVx32
p32
asVfeaturesets
p33
(lp34
Vnone
p35
aVrt
p36
asVcompiler
p37
Vgcc-4.9
p38
ss(Vbuild
p39
tp40
(dp41
Vsigned-modules
p42
I00
ss(Vbase
p43
NVrt
p44
tp45
(dp46
Venabled
p47
I01
ss(Vdescription
p48
tp49
(dp50
Vpart-long-up
p51
VThis kernel is not suitable for SMP (multi-processor,\u000amulti-core or hyper-threaded) systems.
p52
sVpart-long-xen
p53
VThis kernel also runs on a Xen hypervisor.\u000aIt supports both privileged (dom0) and unprivileged (domU) operation.
p54
ss(Vpackages
p55
tp56
(dp57
Vtools-unversioned
p58
I00
sVlibc-dev
p59
I00
sVinstaller
p60
I00
ss(Vrelations
p61
tp62
(dp63
Vgcc-4.7
p64
Vgcc-4.7
p65
sVgcc-4.9
p66
Vgcc-4.9
p67
sVgcc-4.8
p68
Vgcc-4.8
p69
sVinitramfs-tools
p70
Vinitramfs-tools (>= 0.120+deb8u2)
p71
sVgcc-4.6
p72
Vgcc-4.6
p73
sVinitramfs-fallback
p74
Vlinux-initramfs-tool
p75
ss(Vimage
p76
tp77
(dp78
Vinitramfs-generators
p79
(lp80
Vinitramfs-tools
p81
aVinitramfs-fallback
p82
ass(Vabi
p83
tp84
(dp85
Vabiname
p86
V0.bpo.8
p87
sVignore-changes
p88
(lp89
V__cpuhp_*
p90
aVbpf_analyzer
p91
aVcxl_*
p92
aVinet_frag_*
p93
aVinet_frags_*
p94
aVmm_iommu_*
p95
aVmv_mbus_*
p96
aVregister_cxl_calls
p97
aVregister_key_type
p98
aVtpm_*
p99
aVtpmm_chip_alloc
p100
aVunregister_cxl_calls
p101
aVmodule:arch/x86/kvm/*
p102
aVmodule:drivers/crypto/ccp/*
p103
aVmodule:drivers/hv/*
p104
aVmodule:drivers/iio/common/hid-sensors/*
p105
aVmodule:drivers/iio/common/st_sensors/**
p106
aVmodule:drivers/net/wireless/**
p107
aVmodule:drivers/nvdimm/*
p108
aVmodule:drivers/nvme/**
p109
aVmodule:drivers/power/supply/bq27xxx_battery
p110
aVmodule:drivers/s390/net/qeth
p111
aVmodule:drivers/s390/net/qeth*
p112
aVmodule:drivers/scsi/cxgbi/*
p113
aVmodule:drivers/scsi/libiscs*
p114
aVmodule:drivers/scsi/qla2xxx/qla2xxx
p115
aVmodule:drivers/scsi/ufs/*
p116
aVmodule:drivers/target/**
p117
aVmodule:drivers/usb/chipidea/**
p118
aVmodule:drivers/usb/gadget/**
p119
aVmodule:drivers/usb/host/**
p120
aVmodule:drivers/usb/musb/**
p121
aVmodule:fs/nfs/nfs
p122
aVmodule:net/ceph/libceph
p123
aVmodule:net/l2tp/**
p124
aVmodule:sound/firewire/snd-firewire-lib
p125
aVbtree_*
p126
aVvisitor*
p127
aVcan_rx_register
p128
aVip6_xmit
p129
aVmodule:net/dccp/dccp
p130
aVmodule:net/rds/rds
p131
aVdevfreq_*
p132
aVdevm_devfreq_*
p133
aVupdate_devfreq
p134
aVmodule:drivers/infiniband/**
p135
aVacpi_ec_add_query_handler
p136
aVacpi_ec_remove_query_handler
p137
aVfirst_ec
p138
aVdebugfs_create_automount
p139
ass(Vbase
p140
Valpha
p141
tp142
(dp143
Vfeaturesets
p144
(lp145
Vnone
p146
asVkernel-arch
p147
Valpha
p148
ss(Vdescription
p149
g141
NValpha-smp
p150
tp151
(dp152
Vhardware
p153
VAlpha SMP
p154
sVhardware-long
p155
VDEC Alpha SMP systems with extended kernel start address (Wildfire, Titan, Marvel)
p156
ss(Vbuild
p157
g141
tp158
(dp159
Vsigned-modules
p160
I00
sVimage-file
p161
Varch/alpha/boot/vmlinux.gz
p162
ss(Vdescription
p163
g141
NValpha-generic
p164
tp165
(dp166
Vhardware
p167
VAlpha
p168
sVhardware-long
p169
VDEC Alpha systems with extended kernel start address (Wildfire, Titan, Marvel)
p170
ss(Vimage
p171
g141
tp172
(dp173
Vsuggests
p174
Vaboot, fdutils
p175
sVinstall-stem
p176
Vvmlinuz
p177
ss(Vbase
p178
g141
g146
tp179
(dp180
Vflavours
p181
(lp182
Valpha-generic
p183
aValpha-smp
p184
asVimplicit-flavour
p185
I01
ss(Vbase
p186
Vamd64
p187
tp188
(dp189
Vfeaturesets
p190
(lp191
Vnone
p192
aVrt
p193
asVkernel-arch
p194
Vx86
p195
ss(Vdescription
p196
g187
NVamd64
p197
tp198
(dp199
Vhardware
p200
V64-bit PCs
p201
sVhardware-long
p202
VPCs with AMD64, Intel 64 or VIA Nano processors
p203
ss(Vbuild
p204
g187
tp205
(dp206
Vvdso
p207
I01
sVimage-file
p208
Varch/x86/boot/bzImage
p209
sVdebug-info
p210
I01
ss(Vrelations
p211
g187
tp212
(dp213
Vgcc-4.9
p214
Vgcc-4.9 (>= 4.9.2-10+deb7u1), gcc-4.9 (<< 4.9.2-11)
p215
sVheaders%gcc-4.9
p216
Vlinux-compiler-gcc-4.9-x86 (>= 3.16.51-3+deb8u2~), linux-compiler-gcc-4.9-x86 (<< 3.17) | linux-compiler-gcc-4.9-x86 (>= 4.9.82-1+deb9u1~)
p217
ss(Vimage
p218
g187
tp219
(dp220
Vinstall-stem
p221
Vvmlinuz
p222
sVbootloaders
p223
(lp224
Vgrub-pc
p225
aVgrub-efi-amd64
p226
aVextlinux
p227
ass(Vbase
p228
g187
Vnone
p229
tp230
(dp231
Vflavours
p232
(lp233
Vamd64
p234
ass(Vdescription
p235
g187
g229
Vamd64
p236
tp237
(dp238
Vparts
p239
(lp240
Vxen
p241
ass(Vbase
p242
g187
Vrt
p243
tp244
(dp245
Vflavours
p246
(lp247
Vamd64
p248
ass(Vbase
p249
Varm64
p250
tp251
(dp252
Vfeaturesets
p253
(lp254
Vnone
p255
asVkernel-arch
p256
Varm64
p257
ss(Vdescription
p258
g250
NVarm64
p259
tp260
(dp261
Vhardware
p262
V64-bit ARMv8 machines
p263
ss(Vbuild
p264
g250
tp265
(dp266
Vvdso
p267
I01
sVimage-file
p268
Varch/arm64/boot/Image
p269
sVdebug-info
p270
I01
ss(Vimage
p271
g250
NVarm64
p272
tp273
(dp274
s(Vimage
p275
g250
tp276
(dp277
Vbreaks
p278
Vlibmozjs185-1.0, libmozjs-24-0 (<< 24.2.0-5.1~)
p279
sVinstall-stem
p280
Vvmlinuz
p281
ss(Vbase
p282
g250
Vnone
p283
tp284
(dp285
Vflavours
p286
(lp287
Varm64
p288
ass(Vbase
p289
Varmel
p290
tp291
(dp292
g144
(lp293
g146
asVkernel-arch
p294
Varm
p295
ss(Vbuild
p296
g290
tp297
(dp298
Vsigned-modules
p299
I00
sVimage-file
p300
Varch/arm/boot/zImage
p301
ss(Vimage
p302
g290
NVmarvell
p303
tp304
(dp305
Vrecommends
p306
Vu-boot-tools
p307
sVbreaks
p308
Vflash-kernel (<< 3.57~)
p309
sVcheck-size-with-dtb
p310
I01
sVcheck-size
p311
L2097080L
ss(Vdescription
p312
g290
NVmarvell
p313
tp314
(dp315
Vhardware
p316
VMarvell Kirkwood/Orion
p317
sVhardware-long
p318
VMarvell Kirkwood based systems (SheevaPlug, QNAP TS-119/TS-219, etc)\u000aand Orion 5181, 5182 and 5281 based systems (QNAP TS-109/TS-209, etc)
p319
ss(Vrelations
p320
g290
tp321
(dp322
Vheaders%gcc-4.9
p323
Vlinux-compiler-gcc-4.9-arm
p324
ss(Vimage
p325
g290
tp326
(dp327
Vinstall-stem
p328
Vvmlinuz
p329
ss(g178
g290
g146
tp330
(dp331
g181
(lp332
Vmarvell
p333
asg185
I01
ss(Vbase
p334
Varmhf
p335
tp336
(dp337
g144
(lp338
g146
asVkernel-arch
p339
Varm
p340
ss(Vdescription
p341
g335
NVarmmp
p342
tp343
(dp344
Vhardware
p345
VARMv7 multiplatform compatible SoCs
p346
sVhardware-long
p347
VARMv7 multiplatform kernel. See\u000ahttps://wiki.debian.org/DebianKernel/ARMMP for details of supported\u000aplatforms
p348
ss(Vbuild
p349
g335
tp350
(dp351
Vvdso
p352
I01
sVimage-file
p353
Varch/arm/boot/zImage
p354
ss(Vdescription
p355
g335
NVarmmp-lpae
p356
tp357
(dp358
Vhardware
p359
VARMv7 multiplatform compatible SoCs supporting LPAE
p360
sVhardware-long
p361
VARMv7 multiplatform kernel supporting LPAE. See\u000ahttps://wiki.debian.org/DebianKernel/ARMMP for details of supported\u000aplatforms.
p362
ss(Vrelations
p363
g335
tp364
(dp365
Vheaders%gcc-4.9
p366
Vlinux-compiler-gcc-4.9-arm
p367
ss(Vimage
p368
g335
tp369
(dp370
Vinstall-stem
p371
Vvmlinuz
p372
ss(g178
g335
g146
tp373
(dp374
g181
(lp375
Varmmp
p376
aVarmmp-lpae
p377
asg185
I01
ss(Vbase
p378
Vhppa
p379
tp380
(dp381
g144
(lp382
g146
asVkernel-arch
p383
Vparisc
p384
ss(Vbuild
p385
g379
tp386
(dp387
Vsigned-modules
p388
I00
sVimage-file
p389
Vvmlinux
p390
ss(Vdescription
p391
g379
NVparisc64-smp
p392
tp393
(dp394
Vhardware
p395
Vmultiprocessor 64-bit PA-RISC
p396
sVhardware-long
p397
VHP PA-RISC 64-bit SMP systems with support for more than 4 GB RAM
p398
ss(Vbase
p399
g379
NVparisc64-smp
p400
tp401
(dp402
Vcflags
p403
V-fno-cse-follow-jumps
p404
sVoverride-host-type
p405
Vhppa64-linux-gnu
p406
ss(Vrelations
p407
g379
tp408
(dp409
Vgcc-4.9
p410
Vgcc-4.9, binutils-hppa64, gcc-4.9-hppa64
p411
ss(Vdescription
p412
g379
NVparisc
p413
tp414
(dp415
Vhardware
p416
V32-bit PA-RISC
p417
sVhardware-long
p418
VHP PA-RISC 32-bit systems with max 4 GB RAM
p419
ss(Vimage
p420
g379
tp421
(dp422
Vsuggests
p423
Vpalo
p424
sVinstall-stem
p425
Vvmlinux
p426
ss(g178
g379
g146
tp427
(dp428
g181
(lp429
Vparisc
p430
aVparisc64-smp
p431
asg185
I01
ss(Vbase
p432
Vi386
p433
tp434
(dp435
Vfeaturesets
p436
(lp437
Vnone
p438
aVrt
p439
asVkernel-arch
p440
Vx86
p441
ss(Vbuild
p442
g433
tp443
(dp444
Vvdso
p445
I01
sVimage-file
p446
Varch/x86/boot/bzImage
p447
ss(Vdescription
p448
g433
NV686-pae
p449
tp450
(dp451
Vhardware
p452
Vmodern PCs
p453
sVhardware-long
p454
VPCs with one or more processors supporting PAE
p455
sVparts
p456
(lp457
Vpae
p458
ass(Vdescription
p459
g433
tp460
(dp461
Vpart-long-pae
p462
VThis kernel requires PAE (Physical Address Extension).\u000aThis feature is supported by the Intel Pentium Pro/II/III/4/4M/D, Xeon,\u000aCore and Atom; AMD Geode NX, Athlon (K7), Duron, Opteron, Sempron,\u000aTurion or Phenom; Transmeta Efficeon; VIA C7; and some other processors.
p463
ss(Vbuild
p464
g433
NV686-pae
p465
tp466
(dp467
Vdebug-info
p468
I01
ss(Vdescription
p469
g433
NV686
p470
tp471
(dp472
Vhardware
p473
Volder PCs
p474
sVhardware-long
p475
VPCs with one or more processors not supporting PAE
p476
ss(Vrelations
p477
g433
tp478
(dp479
Vgcc-4.9
p480
Vgcc-4.9 (>= 4.9.2-10+deb7u1), gcc-4.9 (<< 4.9.2-11)
p481
sVheaders%gcc-4.9
p482
Vlinux-compiler-gcc-4.9-x86 (>= 3.16.51-3+deb8u2~), linux-compiler-gcc-4.9-x86 (<< 3.17) | linux-compiler-gcc-4.9-x86 (>= 4.9.82-1+deb9u1~)
p483
ss(Vimage
p484
g433
tp485
(dp486
Vinstall-stem
p487
Vvmlinuz
p488
sVbootloaders
p489
(lp490
Vgrub-pc
p491
aVextlinux
p492
ass(Vbase
p493
g433
Vnone
p494
tp495
(dp496
Vflavours
p497
(lp498
V686
p499
aV686-pae
p500
ass(Vdescription
p501
g433
g494
V686-pae
p502
tp503
(dp504
Vparts
p505
(lp506
Vxen
p507
ass(Vbase
p508
g433
Vrt
p509
tp510
(dp511
Vflavours
p512
(lp513
V686-pae
p514
ass(Vbase
p515
Vm68k
p516
tp517
(dp518
Vcflags
p519
V-ffreestanding
p520
sg144
(lp521
g146
asVcompiler
p522
Vgcc-4.8
p523
sVkernel-arch
p524
Vm68k
p525
ss(Vbuild
p526
g516
tp527
(dp528
Vsigned-modules
p529
I00
sVimage-file
p530
Vvmlinux.gz
p531
ss(Vdescription
p532
g516
NVm68k
p533
tp534
(dp535
Vhardware
p536
VMotorola MC68020+ family
p537
ss(Vimage
p538
g516
tp539
(dp540
Vsuggests
p541
Vvmelilo, fdutils
p542
sVinstall-stem
p543
Vvmlinuz
p544
ss(g178
g516
g146
tp545
(dp546
g181
(lp547
Vm68k
p548
asg185
I01
ss(Vbase
p549
Vmips
p550
tp551
(dp552
g144
(lp553
g146
asVkernel-arch
p554
Vmips
p555
ss(Vbuild
p556
g550
tp557
(dp558
Vsigned-modules
p559
I00
sVimage-file
p560
Vvmlinux
p561
ss(Vimage
p562
g550
NV4kc-malta
p563
tp564
(dp565
Vconfigs
p566
(lp567
Vkernelarch-mips/config.malta
p568
aVkernelarch-mips/config.mips32r2
p569
ass(Vimage
p570
g550
NV5kc-malta
p571
tp572
(dp573
Vconfigs
p574
(lp575
Vkernelarch-mips/config.malta
p576
aVkernelarch-mips/config.mips64r2
p577
ass(Vdescription
p578
g550
NVocteon
p579
tp580
(dp581
Vhardware
p582
VOcteon
p583
sVhardware-long
p584
VCavium Networks Octeon
p585
ss(Vimage
p586
g550
NVocteon
p587
tp588
(dp589
Vconfigs
p590
(lp591
Vkernelarch-mips/config.octeon
p592
ass(Vimage
p593
g550
tp594
(dp595
Vinstall-stem
p596
Vvmlinux
p597
ss(Vdescription
p598
g550
NV5kc-malta
p599
tp600
(dp601
Vhardware
p602
VMIPS Malta (64-bit)
p603
sVhardware-long
p604
VMIPS Malta boards (64-bit)
p605
ss(Vdescription
p606
g550
NV4kc-malta
p607
tp608
(dp609
Vhardware
p610
VMIPS Malta
p611
sVhardware-long
p612
VMIPS Malta boards
p613
ss(g178
g550
g146
tp614
(dp615
g181
(lp616
V4kc-malta
p617
aV5kc-malta
p618
aVocteon
p619
asg185
I01
ss(Vbase
p620
Vmipsel
p621
tp622
(dp623
g144
(lp624
g146
asVkernel-arch
p625
Vmips
p626
ss(Vimage
p627
g621
NVloongson-3
p628
tp629
(dp630
Vconfigs
p631
(lp632
Vkernelarch-mips/config.loongson-3
p633
ass(Vbuild
p634
g621
tp635
(dp636
Vsigned-modules
p637
I00
sVimage-file
p638
Vvmlinux
p639
ss(Vimage
p640
g621
NV4kc-malta
p641
tp642
(dp643
Vconfigs
p644
(lp645
Vkernelarch-mips/config.malta
p646
aVkernelarch-mips/config.mips32r2
p647
ass(Vimage
p648
g621
NV5kc-malta
p649
tp650
(dp651
Vconfigs
p652
(lp653
Vkernelarch-mips/config.malta
p654
aVkernelarch-mips/config.mips64r2
p655
ass(Vdescription
p656
g621
NVocteon
p657
tp658
(dp659
Vhardware
p660
VOcteon
p661
sVhardware-long
p662
VCavium Networks Octeon
p663
ss(Vdescription
p664
g621
NVloongson-3
p665
tp666
(dp667
Vhardware
p668
VLoongson 3A/3B
p669
sVhardware-long
p670
VLoongson 3A or 3B based systems (e.g. from Loongson or Lemote)
p671
ss(Vimage
p672
g621
NVocteon
p673
tp674
(dp675
Vconfigs
p676
(lp677
Vkernelarch-mips/config.octeon
p678
ass(Vimage
p679
g621
tp680
(dp681
Vinstall-stem
p682
Vvmlinux
p683
ss(Vdescription
p684
g621
NV5kc-malta
p685
tp686
(dp687
Vhardware
p688
VMIPS Malta (64-bit)
p689
sVhardware-long
p690
VMIPS Malta boards (64-bit)
p691
ss(Vdescription
p692
g621
NV4kc-malta
p693
tp694
(dp695
Vhardware
p696
VMIPS Malta
p697
sVhardware-long
p698
VMIPS Malta boards
p699
ss(g178
g621
g146
tp700
(dp701
g181
(lp702
V4kc-malta
p703
aV5kc-malta
p704
aVloongson-3
p705
aVocteon
p706
asg185
I01
ss(Vbase
p707
Vmipsn32
p708
tp709
(dp710
Vfeaturesets
p711
(lp712
sVkernel-arch
p713
Vmips
p714
ss(Vbase
p715
Vmipsn32el
p716
tp717
(dp718
Vfeaturesets
p719
(lp720
sVkernel-arch
p721
Vmips
p722
ss(Vbase
p723
Vmips64
p724
tp725
(dp726
g144
(lp727
g146
asVkernel-arch
p728
Vmips
p729
ss(Vbuild
p730
g724
tp731
(dp732
Vsigned-modules
p733
I00
sVimage-file
p734
Vvmlinux
p735
ss(Vimage
p736
g724
NV5kc-malta
p737
tp738
(dp739
Vconfigs
p740
(lp741
Vkernelarch-mips/config.malta
p742
aVkernelarch-mips/config.mips64r2
p743
ass(Vdescription
p744
g724
NVocteon
p745
tp746
(dp747
Vhardware
p748
VOcteon
p749
sVhardware-long
p750
VCavium Networks Octeon
p751
ss(Vimage
p752
g724
tp753
(dp754
Vinstall-stem
p755
Vvmlinux
p756
ss(Vdescription
p757
g724
NV5kc-malta
p758
tp759
(dp760
Vhardware
p761
VMIPS Malta
p762
sVhardware-long
p763
VMIPS Malta boards
p764
ss(Vimage
p765
g724
NVocteon
p766
tp767
(dp768
Vconfigs
p769
(lp770
Vkernelarch-mips/config.octeon
p771
ass(g178
g724
g146
tp772
(dp773
g181
(lp774
V5kc-malta
p775
aVocteon
p776
asg185
I01
ss(Vbase
p777
Vmips64el
p778
tp779
(dp780
g144
(lp781
g146
asVkernel-arch
p782
Vmips
p783
ss(Vimage
p784
g778
NVloongson-3
p785
tp786
(dp787
Vconfigs
p788
(lp789
Vkernelarch-mips/config.loongson-3
p790
ass(Vbuild
p791
g778
tp792
(dp793
Vsigned-modules
p794
I00
sVimage-file
p795
Vvmlinux
p796
ss(Vimage
p797
g778
NV5kc-malta
p798
tp799
(dp800
Vconfigs
p801
(lp802
Vkernelarch-mips/config.malta
p803
aVkernelarch-mips/config.mips64r2
p804
ass(Vdescription
p805
g778
NVocteon
p806
tp807
(dp808
Vhardware
p809
VOcteon
p810
sVhardware-long
p811
VCavium Networks Octeon
p812
ss(Vdescription
p813
g778
NVloongson-3
p814
tp815
(dp816
Vhardware
p817
VLoongson 3A/3B
p818
sVhardware-long
p819
VLoongson 3A or 3B based systems (e.g. from Loongson or Lemote)
p820
ss(Vimage
p821
g778
tp822
(dp823
Vinstall-stem
p824
Vvmlinux
p825
ss(Vdescription
p826
g778
NV5kc-malta
p827
tp828
(dp829
Vhardware
p830
VMIPS Malta
p831
sVhardware-long
p832
VMIPS Malta boards
p833
ss(Vimage
p834
g778
NVocteon
p835
tp836
(dp837
Vconfigs
p838
(lp839
Vkernelarch-mips/config.octeon
p840
ass(g178
g778
g146
tp841
(dp842
g181
(lp843
V5kc-malta
p844
aVloongson-3
p845
aVocteon
p846
asg185
I01
ss(Vbase
p847
Vpowerpc
p848
tp849
(dp850
g144
(lp851
g146
asVkernel-arch
p852
Vpowerpc
p853
ss(Vdescription
p854
g848
NVpowerpc64
p855
tp856
(dp857
Vhardware
p858
V64-bit PowerPC
p859
ss(Vbuild
p860
g848
tp861
(dp862
Vvdso
p863
I01
sVimage-file
p864
Vvmlinux
p865
ss(Vimage
p866
g848
NVpowerpc-smp
p867
tp868
(dp869
Vconfigs
p870
(lp871
Vpowerpc/config.powerpc
p872
aVpowerpc/config.powerpc-smp
p873
ass(Vdescription
p874
g848
NVpowerpc
p875
tp876
(dp877
Vhardware
p878
Vuniprocessor 32-bit PowerPC
p879
ss(Vimage
p880
g848
NVpowerpc64
p881
tp882
(dp883
Vconfigs
p884
(lp885
Vkernelarch-powerpc/config-arch-64
p886
aVkernelarch-powerpc/config-arch-64-be
p887
ass(Vdescription
p888
g848
NVpowerpc-smp
p889
tp890
(dp891
Vhardware
p892
Vmultiprocessor 32-bit PowerPC
p893
ss(Vimage
p894
g848
tp895
(dp896
Vsuggests
p897
Vmkvmlinuz
p898
sVinstall-stem
p899
Vvmlinux
p900
sVconfigs
p901
(lp902
ss(g178
g848
g146
tp903
(dp904
g181
(lp905
Vpowerpc
p906
aVpowerpc-smp
p907
aVpowerpc64
p908
asg185
I01
ss(Vbase
p909
Vpowerpcspe
p910
tp911
(dp912
g144
(lp913
g146
asVkernel-arch
p914
Vpowerpc
p915
ss(Vbuild
p916
g910
tp917
(dp918
Vsigned-modules
p919
I00
sVimage-file
p920
Vvmlinux
p921
sVvdso
p922
I01
ss(Vimage
p923
g910
tp924
(dp925
Vsuggests
p926
Vmkvmlinuz
p927
sVinstall-stem
p928
Vvmlinux
p929
ss(Vdescription
p930
g910
tp931
(dp932
Vhardware
p933
V32-bit PowerPC with SPE (instead of AltiVec) with SMP support
p934
ss(g178
g910
g146
tp935
(dp936
g181
(lp937
Vpowerpcspe
p938
asg185
I01
ss(Vbase
p939
Vppc64
p940
tp941
(dp942
g144
(lp943
g146
asVkernel-arch
p944
Vpowerpc
p945
ss(Vdescription
p946
g940
NVpowerpc64
p947
tp948
(dp949
Vhardware
p950
V64-bit PowerPC
p951
ss(Vbuild
p952
g940
tp953
(dp954
Vsigned-modules
p955
I00
sVimage-file
p956
Vvmlinux
p957
sVvdso
p958
I01
ss(Vimage
p959
g940
NVpowerpc64
p960
tp961
(dp962
Vconfigs
p963
(lp964
Vkernelarch-powerpc/config-arch-64
p965
aVkernelarch-powerpc/config-arch-64-be
p966
ass(Vimage
p967
g940
tp968
(dp969
Vsuggests
p970
Vmkvmlinuz
p971
sVinstall-stem
p972
Vvmlinux
p973
sVconfigs
p974
(lp975
ss(g178
g940
g146
tp976
(dp977
g181
(lp978
Vpowerpc64
p979
asg185
I01
ss(Vbase
p980
Vppc64el
p981
tp982
(dp983
g144
(lp984
g146
asVkernel-arch
p985
Vpowerpc
p986
ss(Vdescription
p987
g981
NVpowerpc64le
p988
tp989
(dp990
Vhardware
p991
VLittle-endian 64-bit PowerPC
p992
ss(Vbuild
p993
g981
tp994
(dp995
Vvdso
p996
I01
sVimage-file
p997
Vvmlinux
p998
ss(Vimage
p999
g981
tp1000
(dp1001
Vsuggests
p1002
Vmkvmlinuz
p1003
sVinstall-stem
p1004
Vvmlinux
p1005
sVconfigs
p1006
(lp1007
ss(Vimage
p1008
g981
NVpowerpc64le
p1009
tp1010
(dp1011
Vconfigs
p1012
(lp1013
Vkernelarch-powerpc/config-arch-64
p1014
aVkernelarch-powerpc/config-arch-64-le
p1015
ass(g178
g981
g146
tp1016
(dp1017
g181
(lp1018
Vpowerpc64le
p1019
asg185
I01
ss(Vbase
p1020
Vs390
p1021
tp1022
(dp1023
Vfeaturesets
p1024
(lp1025
sVkernel-arch
p1026
Vs390
p1027
ss(Vbase
p1028
Vs390x
p1029
tp1030
(dp1031
g144
(lp1032
g146
asVkernel-arch
p1033
Vs390
p1034
ss(Vdescription
p1035
g1029
NVs390x
p1036
tp1037
(dp1038
Vhardware
p1039
VIBM zSeries
p1040
ss(Vbuild
p1041
g1029
tp1042
(dp1043
Vvdso
p1044
I01
sVimage-file
p1045
Varch/s390/boot/image
p1046
ss(Vbuild
p1047
g1029
NVs390x
p1048
tp1049
(dp1050
Vdebug-info
p1051
I01
ss(Vrelations
p1052
g1029
tp1053
(dp1054
Vheaders%gcc-4.9
p1055
Vlinux-compiler-gcc-4.9-s390
p1056
ss(Vimage
p1057
g1029
tp1058
(dp1059
Vinstall-stem
p1060
Vvmlinuz
p1061
sVbootloaders
p1062
(lp1063
Vs390-tools
p1064
ass(g178
g1029
g146
tp1065
(dp1066
g181
(lp1067
Vs390x
p1068
asg185
I01
ss(Vbase
p1069
Vsh3
p1070
tp1071
(dp1072
Vfeaturesets
p1073
(lp1074
sVkernel-arch
p1075
Vsh
p1076
ss(Vbase
p1077
Vsh4
p1078
tp1079
(dp1080
g144
(lp1081
g146
asVkernel-arch
p1082
Vsh
p1083
ss(Vbuild
p1084
g1078
tp1085
(dp1086
Vsigned-modules
p1087
I00
sVimage-file
p1088
Varch/sh/boot/zImage
p1089
ss(Vdescription
p1090
g1078
NVsh7751r
p1091
tp1092
(dp1093
Vhardware
p1094
Vsh7751r
p1095
sVhardware-long
p1096
VRenesas SH7751R R2D plus board
p1097
ss(Vdescription
p1098
g1078
NVsh7785lcr
p1099
tp1100
(dp1101
Vhardware
p1102
Vsh7785lcr
p1103
sVhardware-long
p1104
VRenesas SH7785 reference board
p1105
ss(Vimage
p1106
g1078
tp1107
(dp1108
Vinstall-stem
p1109
Vvmlinuz
p1110
ss(Vimage
p1111
g1078
NVsh7785lcr
p1112
tp1113
(dp1114
Vrecommends
p1115
Vu-boot-tools
p1116
sVcheck-size
p1117
L4194304L
ss(g178
g1078
g146
tp1118
(dp1119
g181
(lp1120
Vsh7751r
p1121
aVsh7785lcr
p1122
asg185
I01
ss(Vbase
p1123
Vsparc
p1124
tp1125
(dp1126
Vfeaturesets
p1127
(lp1128
sVkernel-arch
p1129
Vsparc
p1130
ss(Vbase
p1131
Vsparc64
p1132
tp1133
(dp1134
g144
(lp1135
g146
asVkernel-arch
p1136
Vsparc
p1137
ss(Vbuild
p1138
g1132
tp1139
(dp1140
Vsigned-modules
p1141
I00
sVimage-file
p1142
Varch/sparc/boot/zImage
p1143
ss(Vimage
p1144
g1132
NVsparc64
p1145
tp1146
(dp1147
Vconfigs
p1148
(lp1149
Vkernelarch-sparc/config-up
p1150
ass(Vimage
p1151
g1132
NVsparc64-smp
p1152
tp1153
(dp1154
Vconfigs
p1155
(lp1156
Vkernelarch-sparc/config-smp
p1157
ass(Vimage
p1158
g1132
tp1159
(dp1160
Vsuggests
p1161
Vsilo, fdutils
p1162
sVinstall-stem
p1163
Vvmlinuz
p1164
sVconfigs
p1165
(lp1166
ss(Vdescription
p1167
g1132
NVsparc64-smp
p1168
tp1169
(dp1170
Vhardware
p1171
Vmultiprocessor 64-bit UltraSPARC
p1172
ss(Vdescription
p1173
g1132
NVsparc64
p1174
tp1175
(dp1176
Vhardware
p1177
Vuniprocessor 64-bit UltraSPARC
p1178
ss(g178
g1132
g146
tp1179
(dp1180
g181
(lp1181
Vsparc64
p1182
aVsparc64-smp
p1183
asg185
I01
ss(Vbase
p1184
Vtilegx
p1185
tp1186
(dp1187
Vfeaturesets
p1188
(lp1189
sVkernel-arch
p1190
Vtile
p1191
ss(Vbase
p1192
Vx32
p1193
tp1194
(dp1195
Vfeaturesets
p1196
(lp1197
sVkernel-arch
p1198
Vx86
p1199
ss(Vdescription
p1200
NVrt
p1201
tp1202
(dp1203
Vparts
p1204
(lp1205
Vrt
p1206
asVpart-long-rt
p1207
VThis kernel includes the PREEMPT_RT realtime patch set.
p1208
sVpart-short-rt
p1209
VPREEMPT_RT
p1210
ss(Vabi
p1211
Ng1201
tp1212
(dp1213
Vignore-changes
p1214
(lp1215
V*
p1216
ass(Vversion
p1217
tp1218
(dp1219
Vupstream
p1220
V4.9
p1221
sVsource
p1222
V4.9.110-3+deb9u4~deb8u1
p1223
sVabiname
p1224
V4.9.0-0.bpo.8
p1225
sVabiname_base
p1226
V4.9.0
p1227
ss.