cdebian_linux.config
ConfigCore
p0
(tRp1
(Vbase
p2
tp3
(dp4
Varches
p5
(lp6
Valpha
p7
aVamd64
p8
aVarm64
p9
aVarmel
p10
aVarmhf
p11
aVhppa
p12
aVi386
p13
aVm68k
p14
aVmips
p15
aVmipsel
p16
aVmipsn32
p17
aVmipsn32el
p18
aVmips64
p19
aVmips64el
p20
aVpowerpc
p21
aVpowerpcspe
p22
aVppc64
p23
aVppc64el
p24
aVs390
p25
aVs390x
p26
aVsh3
p27
aVsh4
p28
aVsparc
p29
aVsparc64
p30
aVtilegx
p31
aVx32
p32
asVfeaturesets
p33
(lp34
Vnone
p35
aVrt
p36
asVcompiler
p37
Vgcc-6
p38
ss(Vbuild
p39
tp40
(dp41
Vdebug-info
p42
I01
ss(Vbase
p43
NVrt
p44
tp45
(dp46
Venabled
p47
I01
ss(Vdescription
p48
tp49
(dp50
Vpart-long-up
p51
VThis kernel is not suitable for SMP (multi-processor,\u000amulti-core or hyper-threaded) systems.
p52
sVpart-long-xen
p53
VThis kernel also runs on a Xen hypervisor.\u000aIt supports both privileged (dom0) and unprivileged (domU) operation.
p54
ss(Vpackages
p55
tp56
(dp57
Vlibc-dev
p58
I00
ss(Vrelations
p59
tp60
(dp61
Vinitramfs-tools
p62
Vinitramfs-tools (>= 0.120+deb8u2)
p63
sVgcc-6
p64
Vgcc-6 <!stage1 !cross>, gcc-6-@gnu-type-package@:native <!stage1 cross>
p65
sVinitramfs-fallback
p66
Vlinux-initramfs-tool
p67
ss(Vimage
p68
tp69
(dp70
Vinitramfs-generators
p71
(lp72
Vinitramfs-tools
p73
aVinitramfs-fallback
p74
ass(Vabi
p75
tp76
(dp77
Vabiname
p78
V2
p79
sVignore-changes
p80
(lp81
V__cpuhp_*
p82
aVmodule:drivers/iio/common/st_sensors/**
p83
aVmodule:drivers/net/wireless/**
p84
aVmodule:drivers/power/supply/bq27xxx_battery
p85
aVmodule:drivers/usb/host/**
p86
aVmodule:drivers/usb/musb/**
p87
aVmodule:net/ceph/libceph
p88
aVbtree_*
p89
aVvisitor*
p90
aVcan_rx_register
p91
aVip6_xmit
p92
ass(Vbase
p93
Valpha
p94
tp95
(dp96
Vfeaturesets
p97
(lp98
Vnone
p99
asVkernel-arch
p100
Valpha
p101
ss(Vdescription
p102
g94
NValpha-smp
p103
tp104
(dp105
Vhardware
p106
VAlpha SMP
p107
sVhardware-long
p108
VDEC Alpha SMP systems with extended kernel start address (Wildfire, Titan, Marvel)
p109
ss(Vbuild
p110
g94
tp111
(dp112
Vsigned-modules
p113
I00
sVimage-file
p114
Varch/alpha/boot/vmlinux.gz
p115
ss(Vdescription
p116
g94
NValpha-generic
p117
tp118
(dp119
Vhardware
p120
VAlpha
p121
sVhardware-long
p122
VDEC Alpha systems with extended kernel start address (Wildfire, Titan, Marvel)
p123
ss(Vimage
p124
g94
tp125
(dp126
Vsuggests
p127
Vaboot, fdutils
p128
sVinstall-stem
p129
Vvmlinuz
p130
ss(Vbase
p131
g94
g99
tp132
(dp133
Vflavours
p134
(lp135
Valpha-generic
p136
aValpha-smp
p137
asVimplicit-flavour
p138
I01
ss(Vbase
p139
Vamd64
p140
tp141
(dp142
Vfeaturesets
p143
(lp144
Vnone
p145
aVrt
p146
asVkernel-arch
p147
Vx86
p148
ss(Vdescription
p149
g140
NVamd64
p150
tp151
(dp152
Vhardware
p153
V64-bit PCs
p154
sVhardware-long
p155
VPCs with AMD64, Intel 64 or VIA Nano processors
p156
ss(Vbuild
p157
g140
tp158
(dp159
Vvdso
p160
I01
sVimage-file
p161
Varch/x86/boot/bzImage
p162
sVdebug-info
p163
I01
ss(Vrelations
p164
g140
tp165
(dp166
Vheaders%gcc-6
p167
Vlinux-compiler-gcc-6-x86
p168
ss(Vimage
p169
g140
tp170
(dp171
Vbreaks
p172
Vxserver-xorg-input-vmmouse (<< 1:13.0.99)
p173
sVinstall-stem
p174
Vvmlinuz
p175
sVbootloaders
p176
(lp177
Vgrub-pc
p178
aVgrub-efi-amd64
p179
aVextlinux
p180
ass(Vbase
p181
g140
Vnone
p182
tp183
(dp184
Vflavours
p185
(lp186
Vamd64
p187
ass(Vdescription
p188
g140
g182
Vamd64
p189
tp190
(dp191
Vparts
p192
(lp193
Vxen
p194
ass(Vbase
p195
g140
Vrt
p196
tp197
(dp198
Vflavours
p199
(lp200
Vamd64
p201
ass(Vbase
p202
Varm64
p203
tp204
(dp205
Vfeaturesets
p206
(lp207
Vnone
p208
asVkernel-arch
p209
Varm64
p210
ss(Vdescription
p211
g203
NVarm64
p212
tp213
(dp214
Vhardware
p215
V64-bit ARMv8 machines
p216
ss(Vbuild
p217
g203
tp218
(dp219
Vvdso
p220
I01
sVimage-file
p221
Varch/arm64/boot/Image
p222
sVdebug-info
p223
I01
ss(Vimage
p224
g203
NVarm64
p225
tp226
(dp227
s(Vimage
p228
g203
tp229
(dp230
Vbreaks
p231
Vlibmozjs185-1.0, libmozjs-24-0 (<< 24.2.0-5.1~)
p232
sVinstall-stem
p233
Vvmlinuz
p234
ss(Vbase
p235
g203
Vnone
p236
tp237
(dp238
Vflavours
p239
(lp240
Varm64
p241
ass(Vbase
p242
Varmel
p243
tp244
(dp245
g97
(lp246
g99
asVkernel-arch
p247
Varm
p248
ss(Vbuild
p249
g243
tp250
(dp251
Vsigned-modules
p252
I00
sVimage-file
p253
Varch/arm/boot/zImage
p254
ss(Vimage
p255
g243
NVmarvell
p256
tp257
(dp258
Vrecommends
p259
Vu-boot-tools
p260
sVbreaks
p261
Vflash-kernel (<< 3.57~)
p262
sVcheck-size-with-dtb
p263
I01
sVcheck-size
p264
L2097080L
ss(Vdescription
p265
g243
NVmarvell
p266
tp267
(dp268
Vhardware
p269
VMarvell Kirkwood/Orion
p270
sVhardware-long
p271
VMarvell Kirkwood based systems (SheevaPlug, QNAP TS-119/TS-219, etc)\u000aand Orion 5181, 5182 and 5281 based systems (QNAP TS-109/TS-209, etc)
p272
ss(Vrelations
p273
g243
tp274
(dp275
Vheaders%gcc-6
p276
Vlinux-compiler-gcc-6-arm
p277
ss(Vimage
p278
g243
tp279
(dp280
Vinstall-stem
p281
Vvmlinuz
p282
ss(g131
g243
g99
tp283
(dp284
g134
(lp285
Vmarvell
p286
asg138
I01
ss(Vdescription
p287
Varmhf
p288
NVarmmp
p289
tp290
(dp291
Vhardware
p292
VARMv7 multiplatform compatible SoCs
p293
sVhardware-long
p294
VARMv7 multiplatform kernel. See\u000ahttps://wiki.debian.org/DebianKernel/ARMMP for details of supported\u000aplatforms
p295
ss(Vdescription
p296
g288
NVrpi
p297
tp298
(dp299
Vhardware
p300
VRaspberryPI
p301
sVhardware-long
p302
VRaspberry PI
p303
ss(Vdescription
p304
g288
NVarmmp-lpae
p305
tp306
(dp307
Vhardware
p308
VARMv7 multiplatform compatible SoCs supporting LPAE
p309
sVhardware-long
p310
VARMv7 multiplatform kernel supporting LPAE. See\u000ahttps://wiki.debian.org/DebianKernel/ARMMP for details of supported\u000aplatforms.
p311
ss(Vbuild
p312
g288
NVrpi
p313
tp314
(dp315
Vimage-file
p316
Varch/arm/boot/zImagerpdt
p317
ss(Vrelations
p318
g288
tp319
(dp320
Vheaders%gcc-6
p321
Vlinux-compiler-gcc-6-arm
p322
ss(Vimage
p323
g288
tp324
(dp325
Vinstall-stem
p326
Vvmlinuz
p327
ss(Vbase
p328
g288
tp329
(dp330
g97
(lp331
g99
asVkernel-arch
p332
Varm
p333
ss(Vbuild
p334
g288
tp335
(dp336
Vvdso
p337
I01
sVimage-file
p338
Varch/arm/boot/zImage
p339
ss(Vbuild
p340
g288
NVrpi2
p341
tp342
(dp343
Vimage-file
p344
Varch/arm/boot/zImagerpdt
p345
ss(Vimage
p346
g288
NVrpi2
p347
tp348
(dp349
Vconfigs
p350
(lp351
Varmhf/config.rpix
p352
aVarmhf/config.rpi2
p353
ass(Vimage
p354
g288
NVrpi
p355
tp356
(dp357
Vconfigs
p358
(lp359
Varmhf/config.rpix
p360
aVarmhf/config.rpi
p361
ass(Vdescription
p362
g288
NVrpi2
p363
tp364
(dp365
Vhardware
p366
VRaspberryPI2
p367
sVhardware-long
p368
VRaspberry PI 2
p369
ss(g131
g288
g99
tp370
(dp371
g134
(lp372
Vrpi
p373
aVrpi2
p374
asg138
I01
ss(Vbase
p375
Vhppa
p376
tp377
(dp378
g97
(lp379
g99
asVkernel-arch
p380
Vparisc
p381
ss(Vbuild
p382
g376
tp383
(dp384
Vsigned-modules
p385
I00
sVimage-file
p386
Vvmlinux
p387
ss(Vdescription
p388
g376
NVparisc64-smp
p389
tp390
(dp391
Vhardware
p392
Vmultiprocessor 64-bit PA-RISC
p393
sVhardware-long
p394
VHP PA-RISC 64-bit SMP systems with support for more than 4 GB RAM
p395
ss(Vbase
p396
g376
NVparisc64-smp
p397
tp398
(dp399
Vcflags
p400
V-fno-cse-follow-jumps
p401
sVoverride-host-type
p402
Vhppa64-linux-gnu
p403
ss(Vrelations
p404
g376
tp405
(dp406
Vgcc-6
p407
Vgcc-6 <!stage1 !cross>, binutils-hppa64-linux-gnu <!stage1 !cross>, gcc-6-hppa64-linux-gnu <!stage1 !cross>, gcc-6-hppa-linux-gnu:native <!stage1 cross>, binutils-hppa64-linux-gnu:native <!stage1 cross>, gcc-6-hppa64-linux-gnu:native <!stage1 cross>
p408
ss(Vdescription
p409
g376
NVparisc
p410
tp411
(dp412
Vhardware
p413
V32-bit PA-RISC
p414
sVhardware-long
p415
VHP PA-RISC 32-bit systems with max 4 GB RAM
p416
ss(Vimage
p417
g376
tp418
(dp419
Vsuggests
p420
Vpalo
p421
sVinstall-stem
p422
Vvmlinux
p423
ss(g131
g376
g99
tp424
(dp425
g134
(lp426
Vparisc
p427
aVparisc64-smp
p428
asg138
I01
ss(Vbase
p429
Vi386
p430
tp431
(dp432
Vfeaturesets
p433
(lp434
Vnone
p435
aVrt
p436
asVkernel-arch
p437
Vx86
p438
ss(Vbuild
p439
g430
tp440
(dp441
Vvdso
p442
I01
sVimage-file
p443
Varch/x86/boot/bzImage
p444
ss(Vdescription
p445
g430
NV686-pae
p446
tp447
(dp448
Vhardware
p449
Vmodern PCs
p450
sVhardware-long
p451
VPCs with one or more processors supporting PAE
p452
sVparts
p453
(lp454
Vpae
p455
ass(Vdescription
p456
g430
tp457
(dp458
Vpart-long-pae
p459
VThis kernel requires PAE (Physical Address Extension).\u000aThis feature is supported by the Intel Pentium Pro/II/III/4/4M/D, Xeon,\u000aCore and Atom; AMD Geode NX, Athlon (K7), Duron, Opteron, Sempron,\u000aTurion or Phenom; Transmeta Efficeon; VIA C7; and some other processors.
p460
ss(Vbuild
p461
g430
NV686-pae
p462
tp463
(dp464
Vdebug-info
p465
I01
ss(Vdescription
p466
g430
NV686
p467
tp468
(dp469
Vhardware
p470
Volder PCs
p471
sVhardware-long
p472
VPCs with one or more processors not supporting PAE
p473
ss(Vrelations
p474
g430
tp475
(dp476
Vheaders%gcc-6
p477
Vlinux-compiler-gcc-6-x86
p478
ss(Vimage
p479
g430
tp480
(dp481
Vbreaks
p482
Vxserver-xorg-input-vmmouse (<< 1:13.0.99)
p483
sVinstall-stem
p484
Vvmlinuz
p485
sVbootloaders
p486
(lp487
Vgrub-pc
p488
aVextlinux
p489
ass(Vbase
p490
g430
Vnone
p491
tp492
(dp493
Vflavours
p494
(lp495
V686
p496
aV686-pae
p497
ass(Vdescription
p498
g430
g491
V686-pae
p499
tp500
(dp501
Vparts
p502
(lp503
Vxen
p504
ass(Vbase
p505
g430
Vrt
p506
tp507
(dp508
Vflavours
p509
(lp510
V686-pae
p511
ass(Vbase
p512
Vm68k
p513
tp514
(dp515
Vcflags
p516
V-ffreestanding
p517
sg97
(lp518
g99
asVkernel-arch
p519
Vm68k
p520
ss(Vbuild
p521
g513
tp522
(dp523
Vsigned-modules
p524
I00
sVimage-file
p525
Vvmlinux.gz
p526
ss(Vdescription
p527
g513
NVm68k
p528
tp529
(dp530
Vhardware
p531
VMotorola MC68020+ family
p532
ss(Vimage
p533
g513
tp534
(dp535
Vsuggests
p536
Vvmelilo, fdutils
p537
sVinstall-stem
p538
Vvmlinuz
p539
ss(g131
g513
g99
tp540
(dp541
g134
(lp542
Vm68k
p543
asg138
I01
ss(Vbase
p544
Vmips
p545
tp546
(dp547
g97
(lp548
g99
asVkernel-arch
p549
Vmips
p550
ss(Vbuild
p551
g545
tp552
(dp553
Vsigned-modules
p554
I00
sVimage-file
p555
Vvmlinux
p556
ss(Vimage
p557
g545
NV4kc-malta
p558
tp559
(dp560
Vconfigs
p561
(lp562
Vkernelarch-mips/config.malta
p563
aVkernelarch-mips/config.mips32r2
p564
ass(Vimage
p565
g545
NV5kc-malta
p566
tp567
(dp568
Vconfigs
p569
(lp570
Vkernelarch-mips/config.malta
p571
aVkernelarch-mips/config.mips64r2
p572
ass(Vdescription
p573
g545
NVocteon
p574
tp575
(dp576
Vhardware
p577
VOcteon
p578
sVhardware-long
p579
VCavium Networks Octeon
p580
ss(Vimage
p581
g545
NVocteon
p582
tp583
(dp584
Vconfigs
p585
(lp586
Vkernelarch-mips/config.octeon
p587
ass(Vimage
p588
g545
tp589
(dp590
Vinstall-stem
p591
Vvmlinux
p592
ss(Vdescription
p593
g545
NV5kc-malta
p594
tp595
(dp596
Vhardware
p597
VMIPS Malta (64-bit)
p598
sVhardware-long
p599
VMIPS Malta boards (64-bit)
p600
ss(Vdescription
p601
g545
NV4kc-malta
p602
tp603
(dp604
Vhardware
p605
VMIPS Malta
p606
sVhardware-long
p607
VMIPS Malta boards
p608
ss(g131
g545
g99
tp609
(dp610
g134
(lp611
V4kc-malta
p612
aV5kc-malta
p613
aVocteon
p614
asg138
I01
ss(Vbase
p615
Vmipsel
p616
tp617
(dp618
g97
(lp619
g99
asVkernel-arch
p620
Vmips
p621
ss(Vimage
p622
g616
NVloongson-3
p623
tp624
(dp625
Vconfigs
p626
(lp627
Vkernelarch-mips/config.loongson-3
p628
ass(Vbuild
p629
g616
tp630
(dp631
Vsigned-modules
p632
I00
sVimage-file
p633
Vvmlinux
p634
ss(Vimage
p635
g616
NV4kc-malta
p636
tp637
(dp638
Vconfigs
p639
(lp640
Vkernelarch-mips/config.malta
p641
aVkernelarch-mips/config.mips32r2
p642
ass(Vimage
p643
g616
NV5kc-malta
p644
tp645
(dp646
Vconfigs
p647
(lp648
Vkernelarch-mips/config.malta
p649
aVkernelarch-mips/config.mips64r2
p650
ass(Vdescription
p651
g616
NVocteon
p652
tp653
(dp654
Vhardware
p655
VOcteon
p656
sVhardware-long
p657
VCavium Networks Octeon
p658
ss(Vdescription
p659
g616
NVloongson-3
p660
tp661
(dp662
Vhardware
p663
VLoongson 3A/3B
p664
sVhardware-long
p665
VLoongson 3A or 3B based systems (e.g. from Loongson or Lemote)
p666
ss(Vimage
p667
g616
NVocteon
p668
tp669
(dp670
Vconfigs
p671
(lp672
Vkernelarch-mips/config.octeon
p673
ass(Vimage
p674
g616
tp675
(dp676
Vinstall-stem
p677
Vvmlinux
p678
ss(Vdescription
p679
g616
NV5kc-malta
p680
tp681
(dp682
Vhardware
p683
VMIPS Malta (64-bit)
p684
sVhardware-long
p685
VMIPS Malta boards (64-bit)
p686
ss(Vdescription
p687
g616
NV4kc-malta
p688
tp689
(dp690
Vhardware
p691
VMIPS Malta
p692
sVhardware-long
p693
VMIPS Malta boards
p694
ss(g131
g616
g99
tp695
(dp696
g134
(lp697
V4kc-malta
p698
aV5kc-malta
p699
aVloongson-3
p700
aVocteon
p701
asg138
I01
ss(Vbase
p702
Vmipsn32
p703
tp704
(dp705
Vfeaturesets
p706
(lp707
sVkernel-arch
p708
Vmips
p709
ss(Vbase
p710
Vmipsn32el
p711
tp712
(dp713
Vfeaturesets
p714
(lp715
sVkernel-arch
p716
Vmips
p717
ss(Vbase
p718
Vmips64
p719
tp720
(dp721
g97
(lp722
g99
asVkernel-arch
p723
Vmips
p724
ss(Vbuild
p725
g719
tp726
(dp727
Vsigned-modules
p728
I00
sVimage-file
p729
Vvmlinux
p730
ss(Vimage
p731
g719
NV5kc-malta
p732
tp733
(dp734
Vconfigs
p735
(lp736
Vkernelarch-mips/config.malta
p737
aVkernelarch-mips/config.mips64r2
p738
ass(Vdescription
p739
g719
NVocteon
p740
tp741
(dp742
Vhardware
p743
VOcteon
p744
sVhardware-long
p745
VCavium Networks Octeon
p746
ss(Vimage
p747
g719
tp748
(dp749
Vinstall-stem
p750
Vvmlinux
p751
ss(Vdescription
p752
g719
NV5kc-malta
p753
tp754
(dp755
Vhardware
p756
VMIPS Malta
p757
sVhardware-long
p758
VMIPS Malta boards
p759
ss(Vimage
p760
g719
NVocteon
p761
tp762
(dp763
Vconfigs
p764
(lp765
Vkernelarch-mips/config.octeon
p766
ass(g131
g719
g99
tp767
(dp768
g134
(lp769
V5kc-malta
p770
aVocteon
p771
asg138
I01
ss(Vbase
p772
Vmips64el
p773
tp774
(dp775
g97
(lp776
g99
asVkernel-arch
p777
Vmips
p778
ss(Vimage
p779
g773
NVloongson-3
p780
tp781
(dp782
Vconfigs
p783
(lp784
Vkernelarch-mips/config.loongson-3
p785
ass(Vbuild
p786
g773
tp787
(dp788
Vsigned-modules
p789
I00
sVimage-file
p790
Vvmlinux
p791
ss(Vimage
p792
g773
NV5kc-malta
p793
tp794
(dp795
Vconfigs
p796
(lp797
Vkernelarch-mips/config.malta
p798
aVkernelarch-mips/config.mips64r2
p799
ass(Vdescription
p800
g773
NVocteon
p801
tp802
(dp803
Vhardware
p804
VOcteon
p805
sVhardware-long
p806
VCavium Networks Octeon
p807
ss(Vdescription
p808
g773
NVloongson-3
p809
tp810
(dp811
Vhardware
p812
VLoongson 3A/3B
p813
sVhardware-long
p814
VLoongson 3A or 3B based systems (e.g. from Loongson or Lemote)
p815
ss(Vimage
p816
g773
tp817
(dp818
Vinstall-stem
p819
Vvmlinux
p820
ss(Vdescription
p821
g773
NV5kc-malta
p822
tp823
(dp824
Vhardware
p825
VMIPS Malta
p826
sVhardware-long
p827
VMIPS Malta boards
p828
ss(Vimage
p829
g773
NVocteon
p830
tp831
(dp832
Vconfigs
p833
(lp834
Vkernelarch-mips/config.octeon
p835
ass(g131
g773
g99
tp836
(dp837
g134
(lp838
V5kc-malta
p839
aVloongson-3
p840
aVocteon
p841
asg138
I01
ss(Vbase
p842
Vpowerpc
p843
tp844
(dp845
g97
(lp846
g99
asVkernel-arch
p847
Vpowerpc
p848
ss(Vdescription
p849
g843
NVpowerpc64
p850
tp851
(dp852
Vhardware
p853
V64-bit PowerPC
p854
ss(Vbuild
p855
g843
tp856
(dp857
Vvdso
p858
I01
sVimage-file
p859
Vvmlinux
p860
ss(Vimage
p861
g843
NVpowerpc-smp
p862
tp863
(dp864
Vconfigs
p865
(lp866
Vpowerpc/config.powerpc
p867
aVpowerpc/config.powerpc-smp
p868
ass(Vdescription
p869
g843
NVpowerpc
p870
tp871
(dp872
Vhardware
p873
Vuniprocessor 32-bit PowerPC
p874
ss(Vimage
p875
g843
NVpowerpc64
p876
tp877
(dp878
Vconfigs
p879
(lp880
Vkernelarch-powerpc/config-arch-64
p881
aVkernelarch-powerpc/config-arch-64-be
p882
ass(Vdescription
p883
g843
NVpowerpc-smp
p884
tp885
(dp886
Vhardware
p887
Vmultiprocessor 32-bit PowerPC
p888
ss(Vimage
p889
g843
tp890
(dp891
Vsuggests
p892
Vmkvmlinuz
p893
sVinstall-stem
p894
Vvmlinux
p895
sVconfigs
p896
(lp897
ss(g131
g843
g99
tp898
(dp899
g134
(lp900
Vpowerpc
p901
aVpowerpc-smp
p902
aVpowerpc64
p903
asg138
I01
ss(Vbase
p904
Vpowerpcspe
p905
tp906
(dp907
g97
(lp908
g99
asVkernel-arch
p909
Vpowerpc
p910
ss(Vbuild
p911
g905
tp912
(dp913
Vsigned-modules
p914
I00
sVimage-file
p915
Vvmlinux
p916
sVvdso
p917
I01
ss(Vimage
p918
g905
tp919
(dp920
Vsuggests
p921
Vmkvmlinuz
p922
sVinstall-stem
p923
Vvmlinux
p924
ss(Vdescription
p925
g905
tp926
(dp927
Vhardware
p928
V32-bit PowerPC with SPE (instead of AltiVec) with SMP support
p929
ss(g131
g905
g99
tp930
(dp931
g134
(lp932
Vpowerpcspe
p933
asg138
I01
ss(Vbase
p934
Vppc64
p935
tp936
(dp937
g97
(lp938
g99
asVkernel-arch
p939
Vpowerpc
p940
ss(Vdescription
p941
g935
NVpowerpc64
p942
tp943
(dp944
Vhardware
p945
V64-bit PowerPC
p946
ss(Vbuild
p947
g935
tp948
(dp949
Vsigned-modules
p950
I00
sVimage-file
p951
Vvmlinux
p952
sVvdso
p953
I01
ss(Vimage
p954
g935
NVpowerpc64
p955
tp956
(dp957
Vconfigs
p958
(lp959
Vkernelarch-powerpc/config-arch-64
p960
aVkernelarch-powerpc/config-arch-64-be
p961
ass(Vimage
p962
g935
tp963
(dp964
Vsuggests
p965
Vmkvmlinuz
p966
sVinstall-stem
p967
Vvmlinux
p968
sVconfigs
p969
(lp970
ss(g131
g935
g99
tp971
(dp972
g134
(lp973
Vpowerpc64
p974
asg138
I01
ss(Vbase
p975
Vppc64el
p976
tp977
(dp978
g97
(lp979
g99
asVkernel-arch
p980
Vpowerpc
p981
ss(Vdescription
p982
g976
NVpowerpc64le
p983
tp984
(dp985
Vhardware
p986
VLittle-endian 64-bit PowerPC
p987
ss(Vbuild
p988
g976
tp989
(dp990
Vvdso
p991
I01
sVimage-file
p992
Vvmlinux
p993
ss(Vimage
p994
g976
tp995
(dp996
Vsuggests
p997
Vmkvmlinuz
p998
sVinstall-stem
p999
Vvmlinux
p1000
sVconfigs
p1001
(lp1002
ss(Vimage
p1003
g976
NVpowerpc64le
p1004
tp1005
(dp1006
Vconfigs
p1007
(lp1008
Vkernelarch-powerpc/config-arch-64
p1009
aVkernelarch-powerpc/config-arch-64-le
p1010
ass(g131
g976
g99
tp1011
(dp1012
g134
(lp1013
Vpowerpc64le
p1014
asg138
I01
ss(Vbase
p1015
Vs390
p1016
tp1017
(dp1018
Vfeaturesets
p1019
(lp1020
sVkernel-arch
p1021
Vs390
p1022
ss(Vbase
p1023
Vs390x
p1024
tp1025
(dp1026
g97
(lp1027
g99
asVkernel-arch
p1028
Vs390
p1029
ss(Vdescription
p1030
g1024
NVs390x
p1031
tp1032
(dp1033
Vhardware
p1034
VIBM zSeries
p1035
ss(Vbuild
p1036
g1024
tp1037
(dp1038
Vvdso
p1039
I01
sVimage-file
p1040
Varch/s390/boot/image
p1041
ss(Vbuild
p1042
g1024
NVs390x
p1043
tp1044
(dp1045
Vdebug-info
p1046
I01
ss(Vrelations
p1047
g1024
tp1048
(dp1049
Vheaders%gcc-6
p1050
Vlinux-compiler-gcc-6-s390
p1051
ss(Vimage
p1052
g1024
tp1053
(dp1054
Vinstall-stem
p1055
Vvmlinuz
p1056
sVbootloaders
p1057
(lp1058
Vs390-tools
p1059
ass(g131
g1024
g99
tp1060
(dp1061
g134
(lp1062
Vs390x
p1063
asg138
I01
ss(Vbase
p1064
Vsh3
p1065
tp1066
(dp1067
Vfeaturesets
p1068
(lp1069
sVkernel-arch
p1070
Vsh
p1071
ss(Vbase
p1072
Vsh4
p1073
tp1074
(dp1075
g97
(lp1076
g99
asVkernel-arch
p1077
Vsh
p1078
ss(Vbuild
p1079
g1073
tp1080
(dp1081
Vsigned-modules
p1082
I00
sVimage-file
p1083
Varch/sh/boot/zImage
p1084
ss(Vdescription
p1085
g1073
NVsh7751r
p1086
tp1087
(dp1088
Vhardware
p1089
Vsh7751r
p1090
sVhardware-long
p1091
VRenesas SH7751R R2D plus board
p1092
ss(Vdescription
p1093
g1073
NVsh7785lcr
p1094
tp1095
(dp1096
Vhardware
p1097
Vsh7785lcr
p1098
sVhardware-long
p1099
VRenesas SH7785 reference board
p1100
ss(Vimage
p1101
g1073
tp1102
(dp1103
Vinstall-stem
p1104
Vvmlinuz
p1105
ss(Vimage
p1106
g1073
NVsh7785lcr
p1107
tp1108
(dp1109
Vrecommends
p1110
Vu-boot-tools
p1111
sVcheck-size
p1112
L4194304L
ss(g131
g1073
g99
tp1113
(dp1114
g134
(lp1115
Vsh7751r
p1116
aVsh7785lcr
p1117
asg138
I01
ss(Vbase
p1118
Vsparc
p1119
tp1120
(dp1121
Vfeaturesets
p1122
(lp1123
sVkernel-arch
p1124
Vsparc
p1125
ss(Vbase
p1126
Vsparc64
p1127
tp1128
(dp1129
g97
(lp1130
g99
asVkernel-arch
p1131
Vsparc
p1132
ss(Vbuild
p1133
g1127
tp1134
(dp1135
Vsigned-modules
p1136
I00
sVimage-file
p1137
Varch/sparc/boot/zImage
p1138
ss(Vimage
p1139
g1127
NVsparc64
p1140
tp1141
(dp1142
Vconfigs
p1143
(lp1144
Vkernelarch-sparc/config-up
p1145
ass(Vimage
p1146
g1127
NVsparc64-smp
p1147
tp1148
(dp1149
Vconfigs
p1150
(lp1151
Vkernelarch-sparc/config-smp
p1152
ass(Vimage
p1153
g1127
tp1154
(dp1155
Vsuggests
p1156
Vsilo, fdutils
p1157
sVinstall-stem
p1158
Vvmlinuz
p1159
sVconfigs
p1160
(lp1161
ss(Vdescription
p1162
g1127
NVsparc64-smp
p1163
tp1164
(dp1165
Vhardware
p1166
Vmultiprocessor 64-bit UltraSPARC
p1167
ss(Vdescription
p1168
g1127
NVsparc64
p1169
tp1170
(dp1171
Vhardware
p1172
Vuniprocessor 64-bit UltraSPARC
p1173
ss(g131
g1127
g99
tp1174
(dp1175
g134
(lp1176
Vsparc64
p1177
aVsparc64-smp
p1178
asg138
I01
ss(Vbase
p1179
Vtilegx
p1180
tp1181
(dp1182
Vfeaturesets
p1183
(lp1184
sVkernel-arch
p1185
Vtile
p1186
ss(Vbase
p1187
Vx32
p1188
tp1189
(dp1190
Vfeaturesets
p1191
(lp1192
sVkernel-arch
p1193
Vx86
p1194
ss(Vdescription
p1195
NVrt
p1196
tp1197
(dp1198
Vparts
p1199
(lp1200
Vrt
p1201
asVpart-long-rt
p1202
VThis kernel includes the PREEMPT_RT realtime patch set.
p1203
sVpart-short-rt
p1204
VPREEMPT_RT
p1205
ss(Vabi
p1206
Ng1196
tp1207
(dp1208
Vignore-changes
p1209
(lp1210
V*
p1211
ass(Vversion
p1212
tp1213
(dp1214
Vupstream
p1215
V4.9
p1216
sVsource
p1217
V4.9.13-1+rpi1
p1218
sVabiname
p1219
V4.9.0-2
p1220
sVabiname_base
p1221
V4.9.0
p1222
ss.