cdebian_linux.config
ConfigCore
p0
(tRp1
(Vbase
p2
tp3
(dp4
Varches
p5
(lp6
Valpha
p7
aVamd64
p8
aVarm64
p9
aVarmel
p10
aVarmhf
p11
aVhppa
p12
aVi386
p13
aVm68k
p14
aVmips
p15
aVmipsel
p16
aVmipsn32
p17
aVmipsn32el
p18
aVmips64
p19
aVmips64el
p20
aVpowerpc
p21
aVpowerpcspe
p22
aVppc64
p23
aVppc64el
p24
aVs390
p25
aVs390x
p26
aVsh3
p27
aVsh4
p28
aVsparc
p29
aVsparc64
p30
aVtilegx
p31
aVx32
p32
asVfeaturesets
p33
(lp34
Vnone
p35
aVrt
p36
asVcompiler
p37
Vgcc-4.9
p38
ss(Vbuild
p39
tp40
(dp41
Vsigned-modules
p42
I00
ss(Vbase
p43
NVrt
p44
tp45
(dp46
Venabled
p47
I01
ss(Vdescription
p48
tp49
(dp50
Vpart-long-up
p51
VThis kernel is not suitable for SMP (multi-processor,\u000amulti-core or hyper-threaded) systems.
p52
sVpart-long-xen
p53
VThis kernel also runs on a Xen hypervisor.\u000aIt supports both privileged (dom0) and unprivileged (domU) operation.
p54
ss(Vpackages
p55
tp56
(dp57
Vtools-unversioned
p58
I00
sVlibc-dev
p59
I00
sVinstaller
p60
I00
ss(Vrelations
p61
tp62
(dp63
Vgcc-4.7
p64
Vgcc-4.7
p65
sVgcc-4.9
p66
Vgcc-4.9
p67
sVgcc-4.8
p68
Vgcc-4.8
p69
sVinitramfs-tools
p70
Vinitramfs-tools (>= 0.120+deb8u2)
p71
sVgcc-4.6
p72
Vgcc-4.6
p73
sVinitramfs-fallback
p74
Vlinux-initramfs-tool
p75
ss(Vimage
p76
tp77
(dp78
Vinitramfs-generators
p79
(lp80
Vinitramfs-tools
p81
aVinitramfs-fallback
p82
ass(Vabi
p83
tp84
(dp85
Vabiname
p86
V0.bpo.11
p87
sVignore-changes
p88
(lp89
V__cpuhp_*
p90
aVbpf_analyzer
p91
aVcpu_tlbstate
p92
aVcxl_*
p93
aVinet_frag_*
p94
aVinet_frags_*
p95
aVinjectm
p96
aVip6_expire_frag_queue
p97
aVip6_frag_*
p98
aVmce_*
p99
aVmm_iommu_*
p100
aVmv_mbus_*
p101
aVregister_cxl_calls
p102
aVregister_key_type
p103
aVtpm_*
p104
aVtpmm_chip_alloc
p105
aVunregister_cxl_calls
p106
aVmodule:drivers/block/loop
p107
aVmodule:drivers/crypto/ccp/*
p108
aVmodule:drivers/edac/edac_mce_amd
p109
aVmodule:drivers/hv/*
p110
aVmodule:drivers/iio/common/hid-sensors/*
p111
aVmodule:drivers/iio/common/st_sensors/**
p112
aVmodule:drivers/net/ethernet/**
p113
aVmodule:drivers/net/wireless/**
p114
aVmodule:drivers/nfc/**
p115
aVmodule:drivers/nvdimm/*
p116
aVmodule:drivers/nvme/**
p117
aVmodule:drivers/power/supply/bq27xxx_battery
p118
aVmodule:drivers/s390/net/qeth
p119
aVmodule:drivers/s390/net/qeth*
p120
aVmodule:drivers/scsi/cxgbi/*
p121
aVmodule:drivers/scsi/esp_scsi
p122
aVmodule:drivers/scsi/libiscs*
p123
aVmodule:drivers/scsi/qla2xxx/qla2xxx
p124
aVmodule:drivers/scsi/ufs/*
p125
aVmodule:drivers/target/**
p126
aVmodule:drivers/usb/chipidea/**
p127
aVmodule:drivers/usb/gadget/**
p128
aVmodule:drivers/usb/host/**
p129
aVmodule:drivers/usb/musb/**
p130
aVmodule:drivers/vhost/vhost
p131
aVmodule:fs/nfs/nfs
p132
aVmodule:net/ceph/libceph
p133
aVmodule:net/nfc/hci/hci
p134
aVmodule:net/l2tp/**
p135
aVmodule:net/vmw_vsock/*
p136
aVmodule:sound/firewire/snd-firewire-lib
p137
aVmodule:sound/pci/hda/*
p138
aVbtree_*
p139
aVvisitor*
p140
aVcan_rx_register
p141
aVip6_xmit
p142
aVmodule:net/dccp/dccp
p143
aVmodule:net/rds/rds
p144
aVdevfreq_*
p145
aVdevm_devfreq_*
p146
aVupdate_devfreq
p147
aVmodule:drivers/infiniband/**
p148
aVacpi_ec_add_query_handler
p149
aVacpi_ec_remove_query_handler
p150
aVfirst_ec
p151
aVdebugfs_create_automount
p152
aV__gfn_*
p153
aV__kvm_*
p154
aVgfn_*
p155
aVkvm_*
p156
aVmark_page_dirty
p157
aVvcpu_*
p158
aVmodule:arch/powerpc/kvm/*
p159
aVmodule:arch/s390/kvm/*
p160
aVmodule:arch/x86/kvm/*
p161
aV*_xen_*
p162
aV*_xenballooned_*
p163
aV*_xenbus_*
p164
aV*_xenstore_*
p165
aVgnttab_*
p166
aVHYPERVISOR_*
p167
aVx86_hyper_xen
p168
aVxen_*
p169
aVxenbus_*
p170
aVreturn_address
p171
aVbr_netfilter_enable
p172
ass(Vbase
p173
Valpha
p174
tp175
(dp176
Vfeaturesets
p177
(lp178
Vnone
p179
asVkernel-arch
p180
Valpha
p181
ss(Vdescription
p182
g174
NValpha-smp
p183
tp184
(dp185
Vhardware
p186
VAlpha SMP
p187
sVhardware-long
p188
VDEC Alpha SMP systems with extended kernel start address (Wildfire, Titan, Marvel)
p189
ss(Vbuild
p190
g174
tp191
(dp192
Vsigned-modules
p193
I00
sVimage-file
p194
Varch/alpha/boot/vmlinux.gz
p195
ss(Vdescription
p196
g174
NValpha-generic
p197
tp198
(dp199
Vhardware
p200
VAlpha
p201
sVhardware-long
p202
VDEC Alpha systems with extended kernel start address (Wildfire, Titan, Marvel)
p203
ss(Vimage
p204
g174
tp205
(dp206
Vsuggests
p207
Vaboot, fdutils
p208
sVinstall-stem
p209
Vvmlinuz
p210
ss(Vbase
p211
g174
g179
tp212
(dp213
Vflavours
p214
(lp215
Valpha-generic
p216
aValpha-smp
p217
asVimplicit-flavour
p218
I01
ss(Vbase
p219
Vamd64
p220
tp221
(dp222
Vfeaturesets
p223
(lp224
Vnone
p225
aVrt
p226
asVkernel-arch
p227
Vx86
p228
ss(Vdescription
p229
g220
NVamd64
p230
tp231
(dp232
Vhardware
p233
V64-bit PCs
p234
sVhardware-long
p235
VPCs with AMD64, Intel 64 or VIA Nano processors
p236
ss(Vbuild
p237
g220
tp238
(dp239
Vvdso
p240
I01
sVimage-file
p241
Varch/x86/boot/bzImage
p242
sVdebug-info
p243
I01
ss(Vrelations
p244
g220
tp245
(dp246
Vgcc-4.9
p247
Vgcc-4.9 (>= 4.9.2-10+deb7u1), gcc-4.9 (<< 4.9.2-11)
p248
sVheaders%gcc-4.9
p249
Vlinux-compiler-gcc-4.9-x86 (>= 3.16.51-3+deb8u2~), linux-compiler-gcc-4.9-x86 (<< 3.17) | linux-compiler-gcc-4.9-x86 (>= 4.9.82-1+deb9u1~)
p250
ss(Vimage
p251
g220
tp252
(dp253
Vinstall-stem
p254
Vvmlinuz
p255
sVbootloaders
p256
(lp257
Vgrub-pc
p258
aVgrub-efi-amd64
p259
aVextlinux
p260
ass(Vbase
p261
g220
Vnone
p262
tp263
(dp264
Vflavours
p265
(lp266
Vamd64
p267
ass(Vdescription
p268
g220
g262
Vamd64
p269
tp270
(dp271
Vparts
p272
(lp273
Vxen
p274
ass(Vbase
p275
g220
Vrt
p276
tp277
(dp278
Vflavours
p279
(lp280
Vamd64
p281
ass(Vbase
p282
Varm64
p283
tp284
(dp285
Vfeaturesets
p286
(lp287
Vnone
p288
asVkernel-arch
p289
Varm64
p290
ss(Vdescription
p291
g283
NVarm64
p292
tp293
(dp294
Vhardware
p295
V64-bit ARMv8 machines
p296
ss(Vbuild
p297
g283
tp298
(dp299
Vvdso
p300
I01
sVimage-file
p301
Varch/arm64/boot/Image
p302
sVdebug-info
p303
I01
ss(Vimage
p304
g283
NVarm64
p305
tp306
(dp307
s(Vimage
p308
g283
tp309
(dp310
Vbreaks
p311
Vlibmozjs185-1.0, libmozjs-24-0 (<< 24.2.0-5.1~)
p312
sVinstall-stem
p313
Vvmlinuz
p314
ss(Vbase
p315
g283
Vnone
p316
tp317
(dp318
Vflavours
p319
(lp320
Varm64
p321
ass(Vbase
p322
Varmel
p323
tp324
(dp325
g177
(lp326
g179
asVkernel-arch
p327
Varm
p328
ss(Vbuild
p329
g323
tp330
(dp331
Vsigned-modules
p332
I00
sVimage-file
p333
Varch/arm/boot/zImage
p334
ss(Vimage
p335
g323
NVmarvell
p336
tp337
(dp338
Vrecommends
p339
Vu-boot-tools
p340
sVbreaks
p341
Vflash-kernel (<< 3.57~)
p342
sVcheck-size-with-dtb
p343
I01
sVcheck-size
p344
L2097080L
ss(Vdescription
p345
g323
NVmarvell
p346
tp347
(dp348
Vhardware
p349
VMarvell Kirkwood/Orion
p350
sVhardware-long
p351
VMarvell Kirkwood based systems (SheevaPlug, QNAP TS-119/TS-219, etc)\u000aand Orion 5181, 5182 and 5281 based systems (QNAP TS-109/TS-209, etc)
p352
ss(Vrelations
p353
g323
tp354
(dp355
Vheaders%gcc-4.9
p356
Vlinux-compiler-gcc-4.9-arm
p357
ss(Vimage
p358
g323
tp359
(dp360
Vinstall-stem
p361
Vvmlinuz
p362
ss(g211
g323
g179
tp363
(dp364
g214
(lp365
Vmarvell
p366
asg218
I01
ss(Vbase
p367
Varmhf
p368
tp369
(dp370
g177
(lp371
g179
asVkernel-arch
p372
Varm
p373
ss(Vdescription
p374
g368
NVarmmp
p375
tp376
(dp377
Vhardware
p378
VARMv7 multiplatform compatible SoCs
p379
sVhardware-long
p380
VARMv7 multiplatform kernel. See\u000ahttps://wiki.debian.org/DebianKernel/ARMMP for details of supported\u000aplatforms
p381
ss(Vbuild
p382
g368
tp383
(dp384
Vvdso
p385
I01
sVimage-file
p386
Varch/arm/boot/zImage
p387
ss(Vdescription
p388
g368
NVarmmp-lpae
p389
tp390
(dp391
Vhardware
p392
VARMv7 multiplatform compatible SoCs supporting LPAE
p393
sVhardware-long
p394
VARMv7 multiplatform kernel supporting LPAE. See\u000ahttps://wiki.debian.org/DebianKernel/ARMMP for details of supported\u000aplatforms.
p395
ss(Vrelations
p396
g368
tp397
(dp398
Vheaders%gcc-4.9
p399
Vlinux-compiler-gcc-4.9-arm
p400
ss(Vimage
p401
g368
tp402
(dp403
Vinstall-stem
p404
Vvmlinuz
p405
ss(g211
g368
g179
tp406
(dp407
g214
(lp408
Varmmp
p409
aVarmmp-lpae
p410
asg218
I01
ss(Vbase
p411
Vhppa
p412
tp413
(dp414
g177
(lp415
g179
asVkernel-arch
p416
Vparisc
p417
ss(Vbuild
p418
g412
tp419
(dp420
Vsigned-modules
p421
I00
sVimage-file
p422
Vvmlinux
p423
ss(Vdescription
p424
g412
NVparisc64-smp
p425
tp426
(dp427
Vhardware
p428
Vmultiprocessor 64-bit PA-RISC
p429
sVhardware-long
p430
VHP PA-RISC 64-bit SMP systems with support for more than 4 GB RAM
p431
ss(Vbase
p432
g412
NVparisc64-smp
p433
tp434
(dp435
Vcflags
p436
V-fno-cse-follow-jumps
p437
sVoverride-host-type
p438
Vhppa64-linux-gnu
p439
ss(Vrelations
p440
g412
tp441
(dp442
Vgcc-4.9
p443
Vgcc-4.9, binutils-hppa64, gcc-4.9-hppa64
p444
ss(Vdescription
p445
g412
NVparisc
p446
tp447
(dp448
Vhardware
p449
V32-bit PA-RISC
p450
sVhardware-long
p451
VHP PA-RISC 32-bit systems with max 4 GB RAM
p452
ss(Vimage
p453
g412
tp454
(dp455
Vsuggests
p456
Vpalo
p457
sVinstall-stem
p458
Vvmlinux
p459
ss(g211
g412
g179
tp460
(dp461
g214
(lp462
Vparisc
p463
aVparisc64-smp
p464
asg218
I01
ss(Vbase
p465
Vi386
p466
tp467
(dp468
Vfeaturesets
p469
(lp470
Vnone
p471
aVrt
p472
asVkernel-arch
p473
Vx86
p474
ss(Vbuild
p475
g466
tp476
(dp477
Vvdso
p478
I01
sVimage-file
p479
Varch/x86/boot/bzImage
p480
ss(Vdescription
p481
g466
NV686-pae
p482
tp483
(dp484
Vhardware
p485
Vmodern PCs
p486
sVhardware-long
p487
VPCs with one or more processors supporting PAE
p488
sVparts
p489
(lp490
Vpae
p491
ass(Vdescription
p492
g466
tp493
(dp494
Vpart-long-pae
p495
VThis kernel requires PAE (Physical Address Extension).\u000aThis feature is supported by the Intel Pentium Pro/II/III/4/4M/D, Xeon,\u000aCore and Atom; AMD Geode NX, Athlon (K7), Duron, Opteron, Sempron,\u000aTurion or Phenom; Transmeta Efficeon; VIA C7; and some other processors.
p496
ss(Vbuild
p497
g466
NV686-pae
p498
tp499
(dp500
Vdebug-info
p501
I01
ss(Vdescription
p502
g466
NV686
p503
tp504
(dp505
Vhardware
p506
Volder PCs
p507
sVhardware-long
p508
VPCs with one or more processors not supporting PAE
p509
ss(Vrelations
p510
g466
tp511
(dp512
Vgcc-4.9
p513
Vgcc-4.9 (>= 4.9.2-10+deb7u1), gcc-4.9 (<< 4.9.2-11)
p514
sVheaders%gcc-4.9
p515
Vlinux-compiler-gcc-4.9-x86 (>= 3.16.51-3+deb8u2~), linux-compiler-gcc-4.9-x86 (<< 3.17) | linux-compiler-gcc-4.9-x86 (>= 4.9.82-1+deb9u1~)
p516
ss(Vimage
p517
g466
tp518
(dp519
Vinstall-stem
p520
Vvmlinuz
p521
sVbootloaders
p522
(lp523
Vgrub-pc
p524
aVextlinux
p525
ass(Vbase
p526
g466
Vnone
p527
tp528
(dp529
Vflavours
p530
(lp531
V686
p532
aV686-pae
p533
ass(Vdescription
p534
g466
g527
V686-pae
p535
tp536
(dp537
Vparts
p538
(lp539
Vxen
p540
ass(Vbase
p541
g466
Vrt
p542
tp543
(dp544
Vflavours
p545
(lp546
V686-pae
p547
ass(Vbase
p548
Vm68k
p549
tp550
(dp551
Vcflags
p552
V-ffreestanding
p553
sg177
(lp554
g179
asVcompiler
p555
Vgcc-4.8
p556
sVkernel-arch
p557
Vm68k
p558
ss(Vbuild
p559
g549
tp560
(dp561
Vsigned-modules
p562
I00
sVimage-file
p563
Vvmlinux.gz
p564
ss(Vdescription
p565
g549
NVm68k
p566
tp567
(dp568
Vhardware
p569
VMotorola MC68020+ family
p570
ss(Vimage
p571
g549
tp572
(dp573
Vsuggests
p574
Vvmelilo, fdutils
p575
sVinstall-stem
p576
Vvmlinuz
p577
ss(g211
g549
g179
tp578
(dp579
g214
(lp580
Vm68k
p581
asg218
I01
ss(Vbase
p582
Vmips
p583
tp584
(dp585
g177
(lp586
g179
asVkernel-arch
p587
Vmips
p588
ss(Vbuild
p589
g583
tp590
(dp591
Vsigned-modules
p592
I00
sVimage-file
p593
Vvmlinux
p594
ss(Vimage
p595
g583
NV4kc-malta
p596
tp597
(dp598
Vconfigs
p599
(lp600
Vkernelarch-mips/config.malta
p601
aVkernelarch-mips/config.mips32r2
p602
ass(Vimage
p603
g583
NV5kc-malta
p604
tp605
(dp606
Vconfigs
p607
(lp608
Vkernelarch-mips/config.malta
p609
aVkernelarch-mips/config.mips64r2
p610
ass(Vdescription
p611
g583
NVocteon
p612
tp613
(dp614
Vhardware
p615
VOcteon
p616
sVhardware-long
p617
VCavium Networks Octeon
p618
ss(Vimage
p619
g583
NVocteon
p620
tp621
(dp622
Vconfigs
p623
(lp624
Vkernelarch-mips/config.octeon
p625
ass(Vimage
p626
g583
tp627
(dp628
Vinstall-stem
p629
Vvmlinux
p630
ss(Vdescription
p631
g583
NV5kc-malta
p632
tp633
(dp634
Vhardware
p635
VMIPS Malta (64-bit)
p636
sVhardware-long
p637
VMIPS Malta boards (64-bit)
p638
ss(Vdescription
p639
g583
NV4kc-malta
p640
tp641
(dp642
Vhardware
p643
VMIPS Malta
p644
sVhardware-long
p645
VMIPS Malta boards
p646
ss(g211
g583
g179
tp647
(dp648
g214
(lp649
V4kc-malta
p650
aV5kc-malta
p651
aVocteon
p652
asg218
I01
ss(Vbase
p653
Vmipsel
p654
tp655
(dp656
g177
(lp657
g179
asVkernel-arch
p658
Vmips
p659
ss(Vimage
p660
g654
NVloongson-3
p661
tp662
(dp663
Vconfigs
p664
(lp665
Vkernelarch-mips/config.loongson-3
p666
ass(Vbuild
p667
g654
tp668
(dp669
Vsigned-modules
p670
I00
sVimage-file
p671
Vvmlinux
p672
ss(Vimage
p673
g654
NV4kc-malta
p674
tp675
(dp676
Vconfigs
p677
(lp678
Vkernelarch-mips/config.malta
p679
aVkernelarch-mips/config.mips32r2
p680
ass(Vimage
p681
g654
NV5kc-malta
p682
tp683
(dp684
Vconfigs
p685
(lp686
Vkernelarch-mips/config.malta
p687
aVkernelarch-mips/config.mips64r2
p688
ass(Vdescription
p689
g654
NVocteon
p690
tp691
(dp692
Vhardware
p693
VOcteon
p694
sVhardware-long
p695
VCavium Networks Octeon
p696
ss(Vdescription
p697
g654
NVloongson-3
p698
tp699
(dp700
Vhardware
p701
VLoongson 3A/3B
p702
sVhardware-long
p703
VLoongson 3A or 3B based systems (e.g. from Loongson or Lemote)
p704
ss(Vimage
p705
g654
NVocteon
p706
tp707
(dp708
Vconfigs
p709
(lp710
Vkernelarch-mips/config.octeon
p711
ass(Vimage
p712
g654
tp713
(dp714
Vinstall-stem
p715
Vvmlinux
p716
ss(Vdescription
p717
g654
NV5kc-malta
p718
tp719
(dp720
Vhardware
p721
VMIPS Malta (64-bit)
p722
sVhardware-long
p723
VMIPS Malta boards (64-bit)
p724
ss(Vdescription
p725
g654
NV4kc-malta
p726
tp727
(dp728
Vhardware
p729
VMIPS Malta
p730
sVhardware-long
p731
VMIPS Malta boards
p732
ss(g211
g654
g179
tp733
(dp734
g214
(lp735
V4kc-malta
p736
aV5kc-malta
p737
aVloongson-3
p738
aVocteon
p739
asg218
I01
ss(Vbase
p740
Vmipsn32
p741
tp742
(dp743
Vfeaturesets
p744
(lp745
sVkernel-arch
p746
Vmips
p747
ss(Vbase
p748
Vmipsn32el
p749
tp750
(dp751
Vfeaturesets
p752
(lp753
sVkernel-arch
p754
Vmips
p755
ss(Vbase
p756
Vmips64
p757
tp758
(dp759
g177
(lp760
g179
asVkernel-arch
p761
Vmips
p762
ss(Vbuild
p763
g757
tp764
(dp765
Vsigned-modules
p766
I00
sVimage-file
p767
Vvmlinux
p768
ss(Vimage
p769
g757
NV5kc-malta
p770
tp771
(dp772
Vconfigs
p773
(lp774
Vkernelarch-mips/config.malta
p775
aVkernelarch-mips/config.mips64r2
p776
ass(Vdescription
p777
g757
NVocteon
p778
tp779
(dp780
Vhardware
p781
VOcteon
p782
sVhardware-long
p783
VCavium Networks Octeon
p784
ss(Vimage
p785
g757
tp786
(dp787
Vinstall-stem
p788
Vvmlinux
p789
ss(Vdescription
p790
g757
NV5kc-malta
p791
tp792
(dp793
Vhardware
p794
VMIPS Malta
p795
sVhardware-long
p796
VMIPS Malta boards
p797
ss(Vimage
p798
g757
NVocteon
p799
tp800
(dp801
Vconfigs
p802
(lp803
Vkernelarch-mips/config.octeon
p804
ass(g211
g757
g179
tp805
(dp806
g214
(lp807
V5kc-malta
p808
aVocteon
p809
asg218
I01
ss(Vbase
p810
Vmips64el
p811
tp812
(dp813
g177
(lp814
g179
asVkernel-arch
p815
Vmips
p816
ss(Vimage
p817
g811
NVloongson-3
p818
tp819
(dp820
Vconfigs
p821
(lp822
Vkernelarch-mips/config.loongson-3
p823
ass(Vbuild
p824
g811
tp825
(dp826
Vsigned-modules
p827
I00
sVimage-file
p828
Vvmlinux
p829
ss(Vimage
p830
g811
NV5kc-malta
p831
tp832
(dp833
Vconfigs
p834
(lp835
Vkernelarch-mips/config.malta
p836
aVkernelarch-mips/config.mips64r2
p837
ass(Vdescription
p838
g811
NVocteon
p839
tp840
(dp841
Vhardware
p842
VOcteon
p843
sVhardware-long
p844
VCavium Networks Octeon
p845
ss(Vdescription
p846
g811
NVloongson-3
p847
tp848
(dp849
Vhardware
p850
VLoongson 3A/3B
p851
sVhardware-long
p852
VLoongson 3A or 3B based systems (e.g. from Loongson or Lemote)
p853
ss(Vimage
p854
g811
tp855
(dp856
Vinstall-stem
p857
Vvmlinux
p858
ss(Vdescription
p859
g811
NV5kc-malta
p860
tp861
(dp862
Vhardware
p863
VMIPS Malta
p864
sVhardware-long
p865
VMIPS Malta boards
p866
ss(Vimage
p867
g811
NVocteon
p868
tp869
(dp870
Vconfigs
p871
(lp872
Vkernelarch-mips/config.octeon
p873
ass(g211
g811
g179
tp874
(dp875
g214
(lp876
V5kc-malta
p877
aVloongson-3
p878
aVocteon
p879
asg218
I01
ss(Vbase
p880
Vpowerpc
p881
tp882
(dp883
g177
(lp884
g179
asVkernel-arch
p885
Vpowerpc
p886
ss(Vdescription
p887
g881
NVpowerpc64
p888
tp889
(dp890
Vhardware
p891
V64-bit PowerPC
p892
ss(Vbuild
p893
g881
tp894
(dp895
Vvdso
p896
I01
sVimage-file
p897
Vvmlinux
p898
ss(Vimage
p899
g881
NVpowerpc-smp
p900
tp901
(dp902
Vconfigs
p903
(lp904
Vpowerpc/config.powerpc
p905
aVpowerpc/config.powerpc-smp
p906
ass(Vdescription
p907
g881
NVpowerpc
p908
tp909
(dp910
Vhardware
p911
Vuniprocessor 32-bit PowerPC
p912
ss(Vimage
p913
g881
NVpowerpc64
p914
tp915
(dp916
Vconfigs
p917
(lp918
Vkernelarch-powerpc/config-arch-64
p919
aVkernelarch-powerpc/config-arch-64-be
p920
ass(Vdescription
p921
g881
NVpowerpc-smp
p922
tp923
(dp924
Vhardware
p925
Vmultiprocessor 32-bit PowerPC
p926
ss(Vimage
p927
g881
tp928
(dp929
Vsuggests
p930
Vmkvmlinuz
p931
sVinstall-stem
p932
Vvmlinux
p933
sVconfigs
p934
(lp935
ss(g211
g881
g179
tp936
(dp937
g214
(lp938
Vpowerpc
p939
aVpowerpc-smp
p940
aVpowerpc64
p941
asg218
I01
ss(Vbase
p942
Vpowerpcspe
p943
tp944
(dp945
g177
(lp946
g179
asVkernel-arch
p947
Vpowerpc
p948
ss(Vbuild
p949
g943
tp950
(dp951
Vsigned-modules
p952
I00
sVimage-file
p953
Vvmlinux
p954
sVvdso
p955
I01
ss(Vimage
p956
g943
tp957
(dp958
Vsuggests
p959
Vmkvmlinuz
p960
sVinstall-stem
p961
Vvmlinux
p962
ss(Vdescription
p963
g943
tp964
(dp965
Vhardware
p966
V32-bit PowerPC with SPE (instead of AltiVec) with SMP support
p967
ss(g211
g943
g179
tp968
(dp969
g214
(lp970
Vpowerpcspe
p971
asg218
I01
ss(Vbase
p972
Vppc64
p973
tp974
(dp975
g177
(lp976
g179
asVkernel-arch
p977
Vpowerpc
p978
ss(Vdescription
p979
g973
NVpowerpc64
p980
tp981
(dp982
Vhardware
p983
V64-bit PowerPC
p984
ss(Vbuild
p985
g973
tp986
(dp987
Vsigned-modules
p988
I00
sVimage-file
p989
Vvmlinux
p990
sVvdso
p991
I01
ss(Vimage
p992
g973
NVpowerpc64
p993
tp994
(dp995
Vconfigs
p996
(lp997
Vkernelarch-powerpc/config-arch-64
p998
aVkernelarch-powerpc/config-arch-64-be
p999
ass(Vimage
p1000
g973
tp1001
(dp1002
Vsuggests
p1003
Vmkvmlinuz
p1004
sVinstall-stem
p1005
Vvmlinux
p1006
sVconfigs
p1007
(lp1008
ss(g211
g973
g179
tp1009
(dp1010
g214
(lp1011
Vpowerpc64
p1012
asg218
I01
ss(Vbase
p1013
Vppc64el
p1014
tp1015
(dp1016
g177
(lp1017
g179
asVkernel-arch
p1018
Vpowerpc
p1019
ss(Vdescription
p1020
g1014
NVpowerpc64le
p1021
tp1022
(dp1023
Vhardware
p1024
VLittle-endian 64-bit PowerPC
p1025
ss(Vbuild
p1026
g1014
tp1027
(dp1028
Vvdso
p1029
I01
sVimage-file
p1030
Vvmlinux
p1031
ss(Vimage
p1032
g1014
tp1033
(dp1034
Vsuggests
p1035
Vmkvmlinuz
p1036
sVinstall-stem
p1037
Vvmlinux
p1038
sVconfigs
p1039
(lp1040
ss(Vimage
p1041
g1014
NVpowerpc64le
p1042
tp1043
(dp1044
Vconfigs
p1045
(lp1046
Vkernelarch-powerpc/config-arch-64
p1047
aVkernelarch-powerpc/config-arch-64-le
p1048
ass(g211
g1014
g179
tp1049
(dp1050
g214
(lp1051
Vpowerpc64le
p1052
asg218
I01
ss(Vbase
p1053
Vs390
p1054
tp1055
(dp1056
Vfeaturesets
p1057
(lp1058
sVkernel-arch
p1059
Vs390
p1060
ss(Vbase
p1061
Vs390x
p1062
tp1063
(dp1064
g177
(lp1065
g179
asVkernel-arch
p1066
Vs390
p1067
ss(Vdescription
p1068
g1062
NVs390x
p1069
tp1070
(dp1071
Vhardware
p1072
VIBM zSeries
p1073
ss(Vbuild
p1074
g1062
tp1075
(dp1076
Vvdso
p1077
I01
sVimage-file
p1078
Varch/s390/boot/image
p1079
ss(Vbuild
p1080
g1062
NVs390x
p1081
tp1082
(dp1083
Vdebug-info
p1084
I01
ss(Vrelations
p1085
g1062
tp1086
(dp1087
Vheaders%gcc-4.9
p1088
Vlinux-compiler-gcc-4.9-s390
p1089
ss(Vimage
p1090
g1062
tp1091
(dp1092
Vinstall-stem
p1093
Vvmlinuz
p1094
sVbootloaders
p1095
(lp1096
Vs390-tools
p1097
ass(g211
g1062
g179
tp1098
(dp1099
g214
(lp1100
Vs390x
p1101
asg218
I01
ss(Vbase
p1102
Vsh3
p1103
tp1104
(dp1105
Vfeaturesets
p1106
(lp1107
sVkernel-arch
p1108
Vsh
p1109
ss(Vbase
p1110
Vsh4
p1111
tp1112
(dp1113
g177
(lp1114
g179
asVkernel-arch
p1115
Vsh
p1116
ss(Vbuild
p1117
g1111
tp1118
(dp1119
Vsigned-modules
p1120
I00
sVimage-file
p1121
Varch/sh/boot/zImage
p1122
ss(Vdescription
p1123
g1111
NVsh7751r
p1124
tp1125
(dp1126
Vhardware
p1127
Vsh7751r
p1128
sVhardware-long
p1129
VRenesas SH7751R R2D plus board
p1130
ss(Vdescription
p1131
g1111
NVsh7785lcr
p1132
tp1133
(dp1134
Vhardware
p1135
Vsh7785lcr
p1136
sVhardware-long
p1137
VRenesas SH7785 reference board
p1138
ss(Vimage
p1139
g1111
tp1140
(dp1141
Vinstall-stem
p1142
Vvmlinuz
p1143
ss(Vimage
p1144
g1111
NVsh7785lcr
p1145
tp1146
(dp1147
Vrecommends
p1148
Vu-boot-tools
p1149
sVcheck-size
p1150
L4194304L
ss(g211
g1111
g179
tp1151
(dp1152
g214
(lp1153
Vsh7751r
p1154
aVsh7785lcr
p1155
asg218
I01
ss(Vbase
p1156
Vsparc
p1157
tp1158
(dp1159
Vfeaturesets
p1160
(lp1161
sVkernel-arch
p1162
Vsparc
p1163
ss(Vbase
p1164
Vsparc64
p1165
tp1166
(dp1167
g177
(lp1168
g179
asVkernel-arch
p1169
Vsparc
p1170
ss(Vbuild
p1171
g1165
tp1172
(dp1173
Vsigned-modules
p1174
I00
sVimage-file
p1175
Varch/sparc/boot/zImage
p1176
ss(Vimage
p1177
g1165
NVsparc64
p1178
tp1179
(dp1180
Vconfigs
p1181
(lp1182
Vkernelarch-sparc/config-up
p1183
ass(Vimage
p1184
g1165
NVsparc64-smp
p1185
tp1186
(dp1187
Vconfigs
p1188
(lp1189
Vkernelarch-sparc/config-smp
p1190
ass(Vimage
p1191
g1165
tp1192
(dp1193
Vsuggests
p1194
Vsilo, fdutils
p1195
sVinstall-stem
p1196
Vvmlinuz
p1197
sVconfigs
p1198
(lp1199
ss(Vdescription
p1200
g1165
NVsparc64-smp
p1201
tp1202
(dp1203
Vhardware
p1204
Vmultiprocessor 64-bit UltraSPARC
p1205
ss(Vdescription
p1206
g1165
NVsparc64
p1207
tp1208
(dp1209
Vhardware
p1210
Vuniprocessor 64-bit UltraSPARC
p1211
ss(g211
g1165
g179
tp1212
(dp1213
g214
(lp1214
Vsparc64
p1215
aVsparc64-smp
p1216
asg218
I01
ss(Vbase
p1217
Vtilegx
p1218
tp1219
(dp1220
Vfeaturesets
p1221
(lp1222
sVkernel-arch
p1223
Vtile
p1224
ss(Vbase
p1225
Vx32
p1226
tp1227
(dp1228
Vfeaturesets
p1229
(lp1230
sVkernel-arch
p1231
Vx86
p1232
ss(Vdescription
p1233
NVrt
p1234
tp1235
(dp1236
Vparts
p1237
(lp1238
Vrt
p1239
asVpart-long-rt
p1240
VThis kernel includes the PREEMPT_RT realtime patch set.
p1241
sVpart-short-rt
p1242
VPREEMPT_RT
p1243
ss(Vabi
p1244
Ng1234
tp1245
(dp1246
Vignore-changes
p1247
(lp1248
V*
p1249
ass(Vversion
p1250
tp1251
(dp1252
Vupstream
p1253
V4.9
p1254
sVsource
p1255
V4.9.189-3+deb9u1~deb8u1
p1256
sVabiname
p1257
V4.9.0-0.bpo.11
p1258
sVabiname_base
p1259
V4.9.0
p1260
ss.