cdebian_linux.config
ConfigCore
p0
(tRp1
(Vabi
p2
tp3
(dp4
Vabiname
p5
V6
p6
sVignore-changes
p7
(lp8
V__cpuhp_*
p9
aVbpf_analyzer
p10
aVcxl_*
p11
aVinet_frag_*
p12
aVinet_frags_*
p13
aVmm_iommu_*
p14
aVmv_mbus_*
p15
aVpaca
p16
aVregister_cxl_calls
p17
aVregister_key_type
p18
aVunregister_cxl_calls
p19
aVmodule:arch/x86/kvm/*
p20
aVmodule:drivers/crypto/ccp/*
p21
aVmodule:drivers/hv/*
p22
aVmodule:drivers/iio/common/hid-sensors/*
p23
aVmodule:drivers/iio/common/st_sensors/**
p24
aVmodule:drivers/net/wireless/**
p25
aVmodule:drivers/nvdimm/*
p26
aVmodule:drivers/power/supply/bq27xxx_battery
p27
aVmodule:drivers/s390/net/qeth
p28
aVmodule:drivers/s390/net/qeth*
p29
aVmodule:drivers/scsi/cxgbi/*
p30
aVmodule:drivers/scsi/libiscs*
p31
aVmodule:drivers/scsi/qla2xxx/qla2xxx
p32
aVmodule:drivers/scsi/ufs/*
p33
aVmodule:drivers/target/**
p34
aVmodule:drivers/usb/chipidea/**
p35
aVmodule:drivers/usb/gadget/**
p36
aVmodule:drivers/usb/host/**
p37
aVmodule:drivers/usb/musb/**
p38
aVmodule:fs/nfs/nfs
p39
aVmodule:net/ceph/libceph
p40
aVmodule:net/l2tp/**
p41
aVmodule:sound/firewire/snd-firewire-lib
p42
aVbtree_*
p43
aVvisitor*
p44
aVcan_rx_register
p45
aVip6_xmit
p46
aVmodule:net/dccp/dccp
p47
aVmodule:net/rds/rds
p48
aVdevfreq_*
p49
aVdevm_devfreq_*
p50
aVupdate_devfreq
p51
aVmodule:drivers/infiniband/**
p52
aVacpi_ec_add_query_handler
p53
aVacpi_ec_remove_query_handler
p54
aVfirst_ec
p55
aVdebugfs_create_automount
p56
ass(Vbase
p57
tp58
(dp59
Varches
p60
(lp61
Valpha
p62
aVamd64
p63
aVarm64
p64
aVarmel
p65
aVarmhf
p66
aVhppa
p67
aVi386
p68
aVm68k
p69
aVmips
p70
aVmipsel
p71
aVmipsn32
p72
aVmipsn32el
p73
aVmips64
p74
aVmips64el
p75
aVpowerpc
p76
aVpowerpcspe
p77
aVppc64
p78
aVppc64el
p79
aVs390
p80
aVs390x
p81
aVsh3
p82
aVsh4
p83
aVsparc
p84
aVsparc64
p85
aVtilegx
p86
aVx32
p87
asVcompiler
p88
Vgcc-4.9
p89
sVfeaturesets
p90
(lp91
Vnone
p92
aVrt
p93
ass(Vbuild
p94
tp95
(dp96
Vdebug-info
p97
I01
ss(Vbase
p98
NVrt
p99
tp100
(dp101
Venabled
p102
I01
ss(Vdescription
p103
tp104
(dp105
Vpart-long-up
p106
VThis kernel is not suitable for SMP (multi-processor,\u000amulti-core or hyper-threaded) systems.
p107
sVpart-long-xen
p108
VThis kernel also runs on a Xen hypervisor.\u000aIt supports both privileged (dom0) and unprivileged (domU) operation.
p109
ss(Vimage
p110
tp111
(dp112
Vinitramfs-generators
p113
(lp114
Vinitramfs-tools
p115
aVinitramfs-fallback
p116
ass(Vrelations
p117
tp118
(dp119
Vgcc-4.9
p120
Vgcc-4.9 <!stage1 !cross>, gcc-6-@gnu-type-package@:native <!stage1 cross>
p121
sVinitramfs-fallback
p122
Vlinux-initramfs-tool
p123
sVinitramfs-tools
p124
Vinitramfs-tools (>= 0.120+deb8u2)
p125
ss(Vbase
p126
Valpha
p127
tp128
(dp129
Vkernel-arch
p130
Valpha
p131
sVfeaturesets
p132
(lp133
Vnone
p134
ass(Vbuild
p135
g127
tp136
(dp137
Vimage-file
p138
Varch/alpha/boot/vmlinux.gz
p139
sVsigned-modules
p140
I00
ss(Vimage
p141
g127
tp142
(dp143
Vsuggests
p144
Vaboot, fdutils
p145
sVinstall-stem
p146
Vvmlinuz
p147
ss(Vdescription
p148
g127
NValpha-generic
p149
tp150
(dp151
Vhardware
p152
VAlpha
p153
sVhardware-long
p154
VDEC Alpha systems with extended kernel start address (Wildfire, Titan, Marvel)
p155
ss(Vdescription
p156
g127
NValpha-smp
p157
tp158
(dp159
Vhardware
p160
VAlpha SMP
p161
sVhardware-long
p162
VDEC Alpha SMP systems with extended kernel start address (Wildfire, Titan, Marvel)
p163
ss(Vbase
p164
g127
g134
tp165
(dp166
Vflavours
p167
(lp168
Valpha-generic
p169
aValpha-smp
p170
asVimplicit-flavour
p171
I01
ss(Vbase
p172
Vamd64
p173
tp174
(dp175
Vfeaturesets
p176
(lp177
Vnone
p178
aVrt
p179
asVkernel-arch
p180
Vx86
p181
ss(Vbuild
p182
g173
tp183
(dp184
Vdebug-info
p185
I01
sVimage-file
p186
Varch/x86/boot/bzImage
p187
sVvdso
p188
I01
ss(Vimage
p189
g173
tp190
(dp191
Vbootloaders
p192
(lp193
Vgrub-pc
p194
aVgrub-efi-amd64
p195
aVextlinux
p196
asVinstall-stem
p197
Vvmlinuz
p198
sVbreaks
p199
Vxserver-xorg-input-vmmouse (<< 1:13.0.99)
p200
ss(Vrelations
p201
g173
tp202
(dp203
Vgcc-6
p204
Vgcc-6 (>= 6.3.0-18+deb9u1~) <!stage1 !cross>, gcc-6-@gnu-type-package@ (>= 6.3.0-18+deb9u1~) <!stage1 cross>
p205
sVheaders%gcc-6
p206
Vlinux-compiler-gcc-6-x86 (>= 4.9.82-1+deb9u1~)
p207
ss(Vdescription
p208
g173
NVamd64
p209
tp210
(dp211
Vhardware
p212
V64-bit PCs
p213
sVhardware-long
p214
VPCs with AMD64, Intel 64 or VIA Nano processors
p215
ss(Vbase
p216
g173
Vnone
p217
tp218
(dp219
Vflavours
p220
(lp221
Vamd64
p222
ass(Vdescription
p223
g173
g217
Vamd64
p224
tp225
(dp226
Vparts
p227
(lp228
Vxen
p229
ass(Vbase
p230
g173
Vrt
p231
tp232
(dp233
Vflavours
p234
(lp235
Vamd64
p236
ass(Vbase
p237
Varm64
p238
tp239
(dp240
Vkernel-arch
p241
Varm64
p242
sVfeaturesets
p243
(lp244
Vnone
p245
ass(Vbuild
p246
g238
tp247
(dp248
Vdebug-info
p249
I01
sVimage-file
p250
Varch/arm64/boot/Image
p251
sVvdso
p252
I01
ss(Vimage
p253
g238
tp254
(dp255
Vinstall-stem
p256
Vvmlinuz
p257
sVbreaks
p258
Vlibmozjs185-1.0, libmozjs-24-0 (<< 24.2.0-5.1~)
p259
ss(Vdescription
p260
g238
NVarm64
p261
tp262
(dp263
Vhardware
p264
V64-bit ARMv8 machines
p265
ss(Vimage
p266
g238
NVarm64
p267
tp268
(dp269
s(Vbase
p270
g238
Vnone
p271
tp272
(dp273
Vflavours
p274
(lp275
Varm64
p276
ass(Vbase
p277
Varmel
p278
tp279
(dp280
Vkernel-arch
p281
Varm
p282
sg132
(lp283
g134
ass(Vbuild
p284
g278
tp285
(dp286
Vimage-file
p287
Varch/arm/boot/zImage
p288
sVsigned-modules
p289
I00
ss(Vimage
p290
g278
tp291
(dp292
Vinstall-stem
p293
Vvmlinuz
p294
ss(Vrelations
p295
g278
tp296
(dp297
Vheaders%gcc-6
p298
Vlinux-compiler-gcc-6-arm
p299
ss(Vdescription
p300
g278
NVmarvell
p301
tp302
(dp303
Vhardware
p304
VMarvell Kirkwood/Orion
p305
sVhardware-long
p306
VMarvell Kirkwood based systems (SheevaPlug, QNAP TS-119/TS-219, etc)\u000aand Orion 5181, 5182 and 5281 based systems (QNAP TS-109/TS-209, etc)
p307
ss(Vimage
p308
g278
NVmarvell
p309
tp310
(dp311
Vrecommends
p312
Vu-boot-tools
p313
sVcheck-size
p314
L2097080L
sVcheck-size-with-dtb
p315
I01
sVbreaks
p316
Vflash-kernel (<< 3.57~)
p317
ss(g164
g278
g134
tp318
(dp319
g167
(lp320
Vmarvell
p321
asg171
I01
ss(Vbase
p322
Varmhf
p323
tp324
(dp325
Vkernel-arch
p326
Varm
p327
sg132
(lp328
g134
ass(Vbuild
p329
g323
tp330
(dp331
Vimage-file
p332
Varch/arm/boot/zImage
p333
sVvdso
p334
I01
ss(Vimage
p335
g323
tp336
(dp337
Vinstall-stem
p338
Vvmlinuz
p339
ss(Vrelations
p340
g323
tp341
(dp342
Vheaders%gcc-4.9
p343
Vlinux-compiler-gcc-4.9-arm
p344
ss(Vdescription
p345
g323
NVarmmp
p346
tp347
(dp348
Vhardware
p349
VARMv7 multiplatform compatible SoCs
p350
sVhardware-long
p351
VARMv7 multiplatform kernel. See\u000ahttps://wiki.debian.org/DebianKernel/ARMMP for details of supported\u000aplatforms
p352
ss(Vdescription
p353
g323
NVarmmp-lpae
p354
tp355
(dp356
Vhardware
p357
VARMv7 multiplatform compatible SoCs supporting LPAE
p358
sVhardware-long
p359
VARMv7 multiplatform kernel supporting LPAE. See\u000ahttps://wiki.debian.org/DebianKernel/ARMMP for details of supported\u000aplatforms.
p360
ss(Vbuild
p361
g323
NVrpi
p362
tp363
(dp364
Vimage-file
p365
Varch/arm/boot/zImagerpdt
p366
ss(Vdescription
p367
g323
NVrpi
p368
tp369
(dp370
Vhardware
p371
VRaspberryPI
p372
sVhardware-long
p373
VRaspberry PI
p374
ss(Vimage
p375
g323
NVrpi
p376
tp377
(dp378
Vconfigs
p379
(lp380
Varmhf/config.rpix
p381
aVarmhf/config.rpi
p382
ass(Vimage
p383
g323
NVrpi2
p384
tp385
(dp386
Vconfigs
p387
(lp388
Varmhf/config.rpix
p389
aVarmhf/config.rpi2
p390
ass(Vbuild
p391
g323
NVrpi2
p392
tp393
(dp394
Vimage-file
p395
Varch/arm/boot/zImagerpdt
p396
ss(Vdescription
p397
g323
NVrpi2
p398
tp399
(dp400
Vhardware
p401
VRaspberryPI2
p402
sVhardware-long
p403
VRaspberry PI 2
p404
ss(g164
g323
g134
tp405
(dp406
g167
(lp407
Vrpi
p408
aVrpi2
p409
asg171
I01
ss(Vbase
p410
Vhppa
p411
tp412
(dp413
Vkernel-arch
p414
Vparisc
p415
sg132
(lp416
g134
ass(Vbuild
p417
g411
tp418
(dp419
Vimage-file
p420
Vvmlinux
p421
sVsigned-modules
p422
I00
ss(Vimage
p423
g411
tp424
(dp425
Vsuggests
p426
Vpalo
p427
sVinstall-stem
p428
Vvmlinux
p429
ss(Vdescription
p430
g411
NVparisc
p431
tp432
(dp433
Vhardware
p434
V32-bit PA-RISC
p435
sVhardware-long
p436
VHP PA-RISC 32-bit systems with max 4 GB RAM
p437
ss(Vbase
p438
g411
NVparisc64-smp
p439
tp440
(dp441
Vcflags
p442
V-fno-cse-follow-jumps
p443
sVoverride-host-type
p444
Vhppa64-linux-gnu
p445
ss(Vdescription
p446
g411
NVparisc64-smp
p447
tp448
(dp449
Vhardware
p450
Vmultiprocessor 64-bit PA-RISC
p451
sVhardware-long
p452
VHP PA-RISC 64-bit SMP systems with support for more than 4 GB RAM
p453
ss(Vrelations
p454
g411
tp455
(dp456
Vgcc-6
p457
Vgcc-6 <!stage1 !cross>, binutils-hppa64-linux-gnu <!stage1 !cross>, gcc-6-hppa64-linux-gnu <!stage1 !cross>, gcc-6-hppa-linux-gnu <!stage1 cross>, binutils-hppa64-linux-gnu <!stage1 cross>, gcc-6-hppa64-linux-gnu <!stage1 cross>
p458
ss(g164
g411
g134
tp459
(dp460
g167
(lp461
Vparisc
p462
aVparisc64-smp
p463
asg171
I01
ss(Vbase
p464
Vi386
p465
tp466
(dp467
Vfeaturesets
p468
(lp469
Vnone
p470
aVrt
p471
asVkernel-arch
p472
Vx86
p473
ss(Vbuild
p474
g465
tp475
(dp476
Vimage-file
p477
Varch/x86/boot/bzImage
p478
sVvdso
p479
I01
ss(Vdescription
p480
g465
tp481
(dp482
Vpart-long-pae
p483
VThis kernel requires PAE (Physical Address Extension).\u000aThis feature is supported by the Intel Pentium Pro/II/III/4/4M/D, Xeon,\u000aCore and Atom; AMD Geode NX, Athlon (K7), Duron, Opteron, Sempron,\u000aTurion or Phenom; Transmeta Efficeon; VIA C7; and some other processors.
p484
ss(Vimage
p485
g465
tp486
(dp487
Vbootloaders
p488
(lp489
Vgrub-pc
p490
aVextlinux
p491
asVinstall-stem
p492
Vvmlinuz
p493
sVbreaks
p494
Vxserver-xorg-input-vmmouse (<< 1:13.0.99)
p495
ss(Vrelations
p496
g465
tp497
(dp498
Vgcc-6
p499
Vgcc-6 (>= 6.3.0-18+deb9u1~) <!stage1 !cross>, gcc-6-@gnu-type-package@ (>= 6.3.0-18+deb9u1~) <!stage1 cross>
p500
sVheaders%gcc-6
p501
Vlinux-compiler-gcc-6-x86 (>= 4.9.82-1+deb9u1~)
p502
ss(Vdescription
p503
g465
NV686
p504
tp505
(dp506
Vhardware
p507
Volder PCs
p508
sVhardware-long
p509
VPCs with one or more processors not supporting PAE
p510
ss(Vbuild
p511
g465
NV686-pae
p512
tp513
(dp514
Vdebug-info
p515
I01
ss(Vdescription
p516
g465
NV686-pae
p517
tp518
(dp519
Vhardware
p520
Vmodern PCs
p521
sVhardware-long
p522
VPCs with one or more processors supporting PAE
p523
sVparts
p524
(lp525
Vpae
p526
ass(Vbase
p527
g465
Vnone
p528
tp529
(dp530
Vflavours
p531
(lp532
V686
p533
aV686-pae
p534
ass(Vdescription
p535
g465
g528
V686-pae
p536
tp537
(dp538
Vparts
p539
(lp540
Vxen
p541
ass(Vbase
p542
g465
Vrt
p543
tp544
(dp545
Vflavours
p546
(lp547
V686-pae
p548
ass(Vbase
p549
Vm68k
p550
tp551
(dp552
Vcflags
p553
V-ffreestanding
p554
sVkernel-arch
p555
Vm68k
p556
sg132
(lp557
g134
ass(Vbuild
p558
g550
tp559
(dp560
Vimage-file
p561
Vvmlinux.gz
p562
sVsigned-modules
p563
I00
ss(Vimage
p564
g550
tp565
(dp566
Vsuggests
p567
Vvmelilo, fdutils
p568
sVinstall-stem
p569
Vvmlinuz
p570
ss(Vdescription
p571
g550
NVm68k
p572
tp573
(dp574
Vhardware
p575
VMotorola MC68020+ family
p576
ss(g164
g550
g134
tp577
(dp578
g167
(lp579
Vm68k
p580
asg171
I01
ss(Vbase
p581
Vmips
p582
tp583
(dp584
Vkernel-arch
p585
Vmips
p586
sg132
(lp587
g134
ass(Vbuild
p588
g582
tp589
(dp590
Vimage-file
p591
Vvmlinux
p592
sVsigned-modules
p593
I00
ss(Vimage
p594
g582
tp595
(dp596
Vinstall-stem
p597
Vvmlinux
p598
ss(Vdescription
p599
g582
NV4kc-malta
p600
tp601
(dp602
Vhardware
p603
VMIPS Malta
p604
sVhardware-long
p605
VMIPS Malta boards
p606
ss(Vimage
p607
g582
NV4kc-malta
p608
tp609
(dp610
Vconfigs
p611
(lp612
Vkernelarch-mips/config.malta
p613
aVkernelarch-mips/config.mips32r2
p614
ass(Vdescription
p615
g582
NV5kc-malta
p616
tp617
(dp618
Vhardware
p619
VMIPS Malta (64-bit)
p620
sVhardware-long
p621
VMIPS Malta boards (64-bit)
p622
ss(Vimage
p623
g582
NV5kc-malta
p624
tp625
(dp626
Vconfigs
p627
(lp628
Vkernelarch-mips/config.malta
p629
aVkernelarch-mips/config.mips64r2
p630
ass(Vdescription
p631
g582
NVocteon
p632
tp633
(dp634
Vhardware
p635
VOcteon
p636
sVhardware-long
p637
VCavium Networks Octeon
p638
ss(Vimage
p639
g582
NVocteon
p640
tp641
(dp642
Vconfigs
p643
(lp644
Vkernelarch-mips/config.octeon
p645
ass(g164
g582
g134
tp646
(dp647
g167
(lp648
V4kc-malta
p649
aV5kc-malta
p650
aVocteon
p651
asg171
I01
ss(Vbase
p652
Vmipsel
p653
tp654
(dp655
Vkernel-arch
p656
Vmips
p657
sg132
(lp658
g134
ass(Vbuild
p659
g653
tp660
(dp661
Vimage-file
p662
Vvmlinux
p663
sVsigned-modules
p664
I00
ss(Vimage
p665
g653
tp666
(dp667
Vinstall-stem
p668
Vvmlinux
p669
ss(Vdescription
p670
g653
NV4kc-malta
p671
tp672
(dp673
Vhardware
p674
VMIPS Malta
p675
sVhardware-long
p676
VMIPS Malta boards
p677
ss(Vimage
p678
g653
NV4kc-malta
p679
tp680
(dp681
Vconfigs
p682
(lp683
Vkernelarch-mips/config.malta
p684
aVkernelarch-mips/config.mips32r2
p685
ass(Vdescription
p686
g653
NV5kc-malta
p687
tp688
(dp689
Vhardware
p690
VMIPS Malta (64-bit)
p691
sVhardware-long
p692
VMIPS Malta boards (64-bit)
p693
ss(Vimage
p694
g653
NV5kc-malta
p695
tp696
(dp697
Vconfigs
p698
(lp699
Vkernelarch-mips/config.malta
p700
aVkernelarch-mips/config.mips64r2
p701
ass(Vdescription
p702
g653
NVloongson-3
p703
tp704
(dp705
Vhardware
p706
VLoongson 3A/3B
p707
sVhardware-long
p708
VLoongson 3A or 3B based systems (e.g. from Loongson or Lemote)
p709
ss(Vimage
p710
g653
NVloongson-3
p711
tp712
(dp713
Vconfigs
p714
(lp715
Vkernelarch-mips/config.loongson-3
p716
ass(Vdescription
p717
g653
NVocteon
p718
tp719
(dp720
Vhardware
p721
VOcteon
p722
sVhardware-long
p723
VCavium Networks Octeon
p724
ss(Vimage
p725
g653
NVocteon
p726
tp727
(dp728
Vconfigs
p729
(lp730
Vkernelarch-mips/config.octeon
p731
ass(g164
g653
g134
tp732
(dp733
g167
(lp734
V4kc-malta
p735
aV5kc-malta
p736
aVloongson-3
p737
aVocteon
p738
asg171
I01
ss(Vbase
p739
Vmipsn32
p740
tp741
(dp742
Vkernel-arch
p743
Vmips
p744
sVfeaturesets
p745
(lp746
ss(Vbase
p747
Vmipsn32el
p748
tp749
(dp750
Vkernel-arch
p751
Vmips
p752
sVfeaturesets
p753
(lp754
ss(Vbase
p755
Vmips64
p756
tp757
(dp758
Vkernel-arch
p759
Vmips
p760
sg132
(lp761
g134
ass(Vbuild
p762
g756
tp763
(dp764
Vimage-file
p765
Vvmlinux
p766
sVsigned-modules
p767
I00
ss(Vimage
p768
g756
tp769
(dp770
Vinstall-stem
p771
Vvmlinux
p772
ss(Vdescription
p773
g756
NV5kc-malta
p774
tp775
(dp776
Vhardware
p777
VMIPS Malta
p778
sVhardware-long
p779
VMIPS Malta boards
p780
ss(Vimage
p781
g756
NV5kc-malta
p782
tp783
(dp784
Vconfigs
p785
(lp786
Vkernelarch-mips/config.malta
p787
aVkernelarch-mips/config.mips64r2
p788
ass(Vdescription
p789
g756
NVocteon
p790
tp791
(dp792
Vhardware
p793
VOcteon
p794
sVhardware-long
p795
VCavium Networks Octeon
p796
ss(Vimage
p797
g756
NVocteon
p798
tp799
(dp800
Vconfigs
p801
(lp802
Vkernelarch-mips/config.octeon
p803
ass(g164
g756
g134
tp804
(dp805
g167
(lp806
V5kc-malta
p807
aVocteon
p808
asg171
I01
ss(Vbase
p809
Vmips64el
p810
tp811
(dp812
Vkernel-arch
p813
Vmips
p814
sg132
(lp815
g134
ass(Vbuild
p816
g810
tp817
(dp818
Vimage-file
p819
Vvmlinux
p820
sVsigned-modules
p821
I00
ss(Vimage
p822
g810
tp823
(dp824
Vinstall-stem
p825
Vvmlinux
p826
ss(Vdescription
p827
g810
NV5kc-malta
p828
tp829
(dp830
Vhardware
p831
VMIPS Malta
p832
sVhardware-long
p833
VMIPS Malta boards
p834
ss(Vimage
p835
g810
NV5kc-malta
p836
tp837
(dp838
Vconfigs
p839
(lp840
Vkernelarch-mips/config.malta
p841
aVkernelarch-mips/config.mips64r2
p842
ass(Vdescription
p843
g810
NVloongson-3
p844
tp845
(dp846
Vhardware
p847
VLoongson 3A/3B
p848
sVhardware-long
p849
VLoongson 3A or 3B based systems (e.g. from Loongson or Lemote)
p850
ss(Vimage
p851
g810
NVloongson-3
p852
tp853
(dp854
Vconfigs
p855
(lp856
Vkernelarch-mips/config.loongson-3
p857
ass(Vdescription
p858
g810
NVocteon
p859
tp860
(dp861
Vhardware
p862
VOcteon
p863
sVhardware-long
p864
VCavium Networks Octeon
p865
ss(Vimage
p866
g810
NVocteon
p867
tp868
(dp869
Vconfigs
p870
(lp871
Vkernelarch-mips/config.octeon
p872
ass(g164
g810
g134
tp873
(dp874
g167
(lp875
V5kc-malta
p876
aVloongson-3
p877
aVocteon
p878
asg171
I01
ss(Vbase
p879
Vpowerpc
p880
tp881
(dp882
Vkernel-arch
p883
Vpowerpc
p884
sg132
(lp885
g134
ass(Vbuild
p886
g880
tp887
(dp888
Vimage-file
p889
Vvmlinux
p890
sVvdso
p891
I01
ss(Vimage
p892
g880
tp893
(dp894
Vconfigs
p895
(lp896
sVsuggests
p897
Vmkvmlinuz
p898
sVinstall-stem
p899
Vvmlinux
p900
ss(Vdescription
p901
g880
NVpowerpc
p902
tp903
(dp904
Vhardware
p905
Vuniprocessor 32-bit PowerPC
p906
ss(Vdescription
p907
g880
NVpowerpc-smp
p908
tp909
(dp910
Vhardware
p911
Vmultiprocessor 32-bit PowerPC
p912
ss(Vimage
p913
g880
NVpowerpc-smp
p914
tp915
(dp916
Vconfigs
p917
(lp918
Vpowerpc/config.powerpc
p919
aVpowerpc/config.powerpc-smp
p920
ass(Vdescription
p921
g880
NVpowerpc64
p922
tp923
(dp924
Vhardware
p925
V64-bit PowerPC
p926
ss(Vimage
p927
g880
NVpowerpc64
p928
tp929
(dp930
Vconfigs
p931
(lp932
Vkernelarch-powerpc/config-arch-64
p933
aVkernelarch-powerpc/config-arch-64-be
p934
ass(g164
g880
g134
tp935
(dp936
g167
(lp937
Vpowerpc
p938
aVpowerpc-smp
p939
aVpowerpc64
p940
asg171
I01
ss(Vbase
p941
Vpowerpcspe
p942
tp943
(dp944
Vkernel-arch
p945
Vpowerpc
p946
sg132
(lp947
g134
ass(Vbuild
p948
g942
tp949
(dp950
Vimage-file
p951
Vvmlinux
p952
sVsigned-modules
p953
I00
sVvdso
p954
I01
ss(Vimage
p955
g942
tp956
(dp957
Vsuggests
p958
Vmkvmlinuz
p959
sVinstall-stem
p960
Vvmlinux
p961
ss(Vdescription
p962
g942
tp963
(dp964
Vhardware
p965
V32-bit PowerPC with SPE (instead of AltiVec) with SMP support
p966
ss(g164
g942
g134
tp967
(dp968
g167
(lp969
Vpowerpcspe
p970
asg171
I01
ss(Vbase
p971
Vppc64
p972
tp973
(dp974
Vkernel-arch
p975
Vpowerpc
p976
sg132
(lp977
g134
ass(Vbuild
p978
g972
tp979
(dp980
Vimage-file
p981
Vvmlinux
p982
sVsigned-modules
p983
I00
sVvdso
p984
I01
ss(Vimage
p985
g972
tp986
(dp987
Vconfigs
p988
(lp989
sVsuggests
p990
Vmkvmlinuz
p991
sVinstall-stem
p992
Vvmlinux
p993
ss(Vdescription
p994
g972
NVpowerpc64
p995
tp996
(dp997
Vhardware
p998
V64-bit PowerPC
p999
ss(Vimage
p1000
g972
NVpowerpc64
p1001
tp1002
(dp1003
Vconfigs
p1004
(lp1005
Vkernelarch-powerpc/config-arch-64
p1006
aVkernelarch-powerpc/config-arch-64-be
p1007
ass(g164
g972
g134
tp1008
(dp1009
g167
(lp1010
Vpowerpc64
p1011
asg171
I01
ss(Vbase
p1012
Vppc64el
p1013
tp1014
(dp1015
Vkernel-arch
p1016
Vpowerpc
p1017
sg132
(lp1018
g134
ass(Vbuild
p1019
g1013
tp1020
(dp1021
Vimage-file
p1022
Vvmlinux
p1023
sVvdso
p1024
I01
ss(Vimage
p1025
g1013
tp1026
(dp1027
Vconfigs
p1028
(lp1029
sVsuggests
p1030
Vmkvmlinuz
p1031
sVinstall-stem
p1032
Vvmlinux
p1033
ss(Vdescription
p1034
g1013
NVpowerpc64le
p1035
tp1036
(dp1037
Vhardware
p1038
VLittle-endian 64-bit PowerPC
p1039
ss(Vimage
p1040
g1013
NVpowerpc64le
p1041
tp1042
(dp1043
Vconfigs
p1044
(lp1045
Vkernelarch-powerpc/config-arch-64
p1046
aVkernelarch-powerpc/config-arch-64-le
p1047
ass(g164
g1013
g134
tp1048
(dp1049
g167
(lp1050
Vpowerpc64le
p1051
asg171
I01
ss(Vbase
p1052
Vs390
p1053
tp1054
(dp1055
Vkernel-arch
p1056
Vs390
p1057
sVfeaturesets
p1058
(lp1059
ss(Vbase
p1060
Vs390x
p1061
tp1062
(dp1063
Vkernel-arch
p1064
Vs390
p1065
sg132
(lp1066
g134
ass(Vbuild
p1067
g1061
tp1068
(dp1069
Vimage-file
p1070
Varch/s390/boot/image
p1071
sVvdso
p1072
I01
ss(Vimage
p1073
g1061
tp1074
(dp1075
Vbootloaders
p1076
(lp1077
Vs390-tools
p1078
asVinstall-stem
p1079
Vvmlinuz
p1080
ss(Vrelations
p1081
g1061
tp1082
(dp1083
Vheaders%gcc-6
p1084
Vlinux-compiler-gcc-6-s390
p1085
ss(Vbuild
p1086
g1061
NVs390x
p1087
tp1088
(dp1089
Vdebug-info
p1090
I01
ss(Vdescription
p1091
g1061
NVs390x
p1092
tp1093
(dp1094
Vhardware
p1095
VIBM zSeries
p1096
ss(g164
g1061
g134
tp1097
(dp1098
g167
(lp1099
Vs390x
p1100
asg171
I01
ss(Vbase
p1101
Vsh3
p1102
tp1103
(dp1104
Vkernel-arch
p1105
Vsh
p1106
sVfeaturesets
p1107
(lp1108
ss(Vbase
p1109
Vsh4
p1110
tp1111
(dp1112
Vkernel-arch
p1113
Vsh
p1114
sg132
(lp1115
g134
ass(Vbuild
p1116
g1110
tp1117
(dp1118
Vimage-file
p1119
Varch/sh/boot/zImage
p1120
sVsigned-modules
p1121
I00
ss(Vimage
p1122
g1110
tp1123
(dp1124
Vinstall-stem
p1125
Vvmlinuz
p1126
ss(Vdescription
p1127
g1110
NVsh7751r
p1128
tp1129
(dp1130
Vhardware
p1131
Vsh7751r
p1132
sVhardware-long
p1133
VRenesas SH7751R R2D plus board
p1134
ss(Vdescription
p1135
g1110
NVsh7785lcr
p1136
tp1137
(dp1138
Vhardware
p1139
Vsh7785lcr
p1140
sVhardware-long
p1141
VRenesas SH7785 reference board
p1142
ss(Vimage
p1143
g1110
NVsh7785lcr
p1144
tp1145
(dp1146
Vrecommends
p1147
Vu-boot-tools
p1148
sVcheck-size
p1149
L4194304L
ss(g164
g1110
g134
tp1150
(dp1151
g167
(lp1152
Vsh7751r
p1153
aVsh7785lcr
p1154
asg171
I01
ss(Vbase
p1155
Vsparc
p1156
tp1157
(dp1158
Vkernel-arch
p1159
Vsparc
p1160
sVfeaturesets
p1161
(lp1162
ss(Vbase
p1163
Vsparc64
p1164
tp1165
(dp1166
Vkernel-arch
p1167
Vsparc
p1168
sg132
(lp1169
g134
ass(Vbuild
p1170
g1164
tp1171
(dp1172
Vimage-file
p1173
Varch/sparc/boot/zImage
p1174
sVsigned-modules
p1175
I00
ss(Vimage
p1176
g1164
tp1177
(dp1178
Vconfigs
p1179
(lp1180
sVsuggests
p1181
Vsilo, fdutils
p1182
sVinstall-stem
p1183
Vvmlinuz
p1184
ss(Vdescription
p1185
g1164
NVsparc64
p1186
tp1187
(dp1188
Vhardware
p1189
Vuniprocessor 64-bit UltraSPARC
p1190
ss(Vimage
p1191
g1164
NVsparc64
p1192
tp1193
(dp1194
Vconfigs
p1195
(lp1196
Vkernelarch-sparc/config-up
p1197
ass(Vdescription
p1198
g1164
NVsparc64-smp
p1199
tp1200
(dp1201
Vhardware
p1202
Vmultiprocessor 64-bit UltraSPARC
p1203
ss(Vimage
p1204
g1164
NVsparc64-smp
p1205
tp1206
(dp1207
Vconfigs
p1208
(lp1209
Vkernelarch-sparc/config-smp
p1210
ass(g164
g1164
g134
tp1211
(dp1212
g167
(lp1213
Vsparc64
p1214
aVsparc64-smp
p1215
asg171
I01
ss(Vbase
p1216
Vtilegx
p1217
tp1218
(dp1219
Vkernel-arch
p1220
Vtile
p1221
sVfeaturesets
p1222
(lp1223
ss(Vbase
p1224
Vx32
p1225
tp1226
(dp1227
Vkernel-arch
p1228
Vx86
p1229
sVfeaturesets
p1230
(lp1231
ss(Vabi
p1232
NVrt
p1233
tp1234
(dp1235
Vignore-changes
p1236
(lp1237
V*
p1238
ass(Vdescription
p1239
Ng1233
tp1240
(dp1241
Vpart-long-rt
p1242
VThis kernel includes the PREEMPT_RT realtime patch set.
p1243
sVpart-short-rt
p1244
VPREEMPT_RT
p1245
sVparts
p1246
(lp1247
Vrt
p1248
ass(Vversion
p1249
tp1250
(dp1251
Vsource
p1252
V4.9.82-1+deb9u3+rpi2
p1253
sVupstream
p1254
V4.9
p1255
sVabiname_base
p1256
V4.9.0
p1257
sVabiname
p1258
V4.9.0-6
p1259
ss.