ccopy_reg
_reconstructor
p0
(cdebian_linux.config
ConfigCore
p1
c__builtin__
dict
p2
(dp3
(S'image'
p4
S'amd64'
p5
tp6
(dp7
S'install-stem'
p8
S'vmlinuz'
p9
sS'configs'
p10
(lp11
sS'bootloaders'
p12
(lp13
S'grub-pc'
p14
aS'grub-efi'
p15
aS'extlinux'
p16
ass(S'image'
p17
S'i386'
p18
NS'586'
p19
tp20
(dp21
S'configs'
p22
(lp23
S'kernelarch-x86/config-arch-32'
p24
aS'i386/config.586'
p25
ass(S'base'
p26
g5
S'none'
p27
tp28
(dp29
S'flavours'
p30
(lp31
S'amd64'
p32
ass(S'image'
p33
S'ia64'
p34
tp35
(dp36
S'suggests'
p37
S'fdutils'
p38
sS'bootloaders'
p39
(lp40
S'elilo'
p41
asS'install-stem'
p42
S'vmlinuz'
p43
ss(S'description'
p44
g34
NS'itanium'
p45
tp46
(dp47
S'hardware'
p48
S'Itanium'
p49
ss(S'base'
p50
NS'rt'
p51
tp52
(dp53
S'enabled'
p54
I00
ss(S'version'
p55
tp56
(dp57
S'abiname'
p58
S'3.18.0-trunk'
p59
sS'source'
p60
V3.18.5-1~exp1
p61
sS'abiname_base'
p62
S'3.18.0'
p63
sS'upstream'
p64
S'3.18'
p65
ss(S'description'
p66
g5
g27
S'amd64'
p67
tp68
(dp69
S'parts'
p70
(lp71
S'xen'
p72
ass(S'base'
p73
g34
S'none'
p74
tp75
(dp76
S'implicit-flavour'
p77
I01
sS'flavours'
p78
(lp79
S'itanium'
p80
aS'mckinley'
p81
ass(S'description'
p82
S'alpha'
p83
NS'alpha-generic'
p84
tp85
(dp86
S'hardware'
p87
S'Alpha'
p88
sS'hardware-long'
p89
S'DEC Alpha systems with extended kernel start address (Wildfire, Titan, Marvel)'
p90
ss(g73
S'ppc64'
p91
g74
tp92
(dp93
g77
I01
sg78
(lp94
S'powerpc64'
p95
ass(S'base'
p96
S'hppa'
p97
NS'parisc64-smp'
p98
tp99
(dp100
S'override-host-type'
p101
S'hppa64-linux-gnu'
p102
sS'cflags'
p103
S'-fno-cse-follow-jumps'
p104
ss(S'description'
p105
g18
NS'amd64'
p106
tp107
(dp108
S'hardware'
p109
S'64-bit PCs'
p110
sS'parts'
p111
(lp112
S'xen'
p113
asS'hardware-long'
p114
S'PCs with AMD64, Intel 64 or VIA Nano processors'
p115
ss(S'image'
p116
S'mips64el'
p117
NS'loongson-3'
p118
tp119
(dp120
S'configs'
p121
(lp122
S'kernelarch-mips/config.loongson-3'
p123
ass(S'image'
p124
S's390x'
p125
NS's390x'
p126
tp127
(dp128
S'configs'
p129
(lp130
S'kernelarch-s390/config-arch-64'
p131
ass(S'image'
p132
S'sparc'
p133
NS'sparc32'
p134
tp135
(dp136
S'image-postproc'
p137
S'sparc32-image-postproc'
p138
ss(S'base'
p139
g83
tp140
(dp141
S'kernel-arch'
p142
S'alpha'
p143
sS'featuresets'
p144
(lp145
g74
ass(g73
S'armhf'
p146
g74
tp147
(dp148
g77
I01
sg78
(lp149
S'armmp'
p150
aS'armmp-lpae'
p151
ass(S'image'
p152
S'powerpc'
p153
NS'powerpc64'
p154
tp155
(dp156
S'configs'
p157
(lp158
S'kernelarch-powerpc/config-arch-64'
p159
aS'kernelarch-powerpc/config-arch-64-be'
p160
ass(S'base'
p161
g18
S'rt'
p162
tp163
(dp164
S'flavours'
p165
(lp166
S'686-pae'
p167
ass(S'description'
p168
g83
NS'alpha-smp'
p169
tp170
(dp171
S'hardware'
p172
S'Alpha SMP'
p173
sS'hardware-long'
p174
S'DEC Alpha SMP systems with extended kernel start address (Wildfire, Titan, Marvel)'
p175
ss(S'image'
p176
S'ppc64el'
p177
tp178
(dp179
S'suggests'
p180
S'mkvmlinuz'
p181
sS'configs'
p182
(lp183
sS'install-stem'
p184
S'vmlinux'
p185
ss(S'relations'
p186
g18
tp187
(dp188
S'headers%gcc-4.9'
p189
S'linux-compiler-gcc-4.9-x86'
p190
ss(S'description'
p191
g18
NS'586'
p192
tp193
(dp194
S'hardware'
p195
S'older PCs'
p196
sS'parts'
p197
(lp198
S'up'
p199
asS'hardware-long'
p200
S'PCs with a single processor not supporting PAE'
p201
ss(S'image'
p202
g153
tp203
(dp204
S'suggests'
p205
S'mkvmlinuz'
p206
sS'configs'
p207
(lp208
sS'install-stem'
p209
S'vmlinux'
p210
ss(S'image'
p211
g117
NS'5kc-malta'
p212
tp213
(dp214
S'configs'
p215
(lp216
S'kernelarch-mips/config.5kc-malta'
p217
ass(S'base'
p218
g5
S'rt'
p219
tp220
(dp221
S'flavours'
p222
(lp223
S'amd64'
p224
ass(S'build'
p225
g177
tp226
(dp227
S'image-file'
p228
S'vmlinux'
p229
ss(S'build'
p230
g91
tp231
(dp232
S'image-file'
p233
S'vmlinux'
p234
ss(S'description'
p235
g18
S'none'
p236
S'amd64'
p237
tp238
(dp239
S'parts'
p240
(lp241
S'xen'
p242
ass(S'base'
p243
S'arm64'
p244
tp245
(dp246
S'kernel-arch'
p247
S'arm64'
p248
sS'featuresets'
p249
(lp250
S'none'
p251
ass(S'base'
p252
g18
tp253
(dp254
S'kernel-arch'
p255
S'x86'
p256
sS'featuresets'
p257
(lp258
S'none'
p259
aS'rt'
p260
ass(S'base'
p261
S'mipsel'
p262
tp263
(dp264
S'kernel-arch'
p265
S'mips'
p266
sg144
(lp267
g74
ass(S'relations'
p268
g5
tp269
(dp270
S'headers%gcc-4.9'
p271
S'linux-compiler-gcc-4.9-x86'
p272
ss(S'description'
p273
S'mips64'
p274
NS'sb1-bcm91250a'
p275
tp276
(dp277
S'hardware'
p278
S'BCM91250A'
p279
sS'hardware-long'
p280
S'Broadcom BCM91250A systems (aka SWARM)'
p281
ss(S'image'
p282
g262
NS'loongson-2e'
p283
tp284
(dp285
S'configs'
p286
(lp287
S'kernelarch-mips/config.loongson-2e'
p288
ass(S'image'
p289
g18
NS'amd64'
p290
tp291
(dp292
S'configs'
p293
(lp294
S'kernelarch-x86/config-arch-64'
p295
asS'recommends'
p296
S'libc6-i686'
p297
ss(S'description'
p298
g125
NS's390x'
p299
tp300
(dp301
S'hardware'
p302
S'IBM zSeries'
p303
ss(S'image'
p304
S'mips'
p305
NS'octeon'
p306
tp307
(dp308
S'configs'
p309
(lp310
S'kernelarch-mips/config.octeon'
p311
ass(S'relations'
p312
S's390'
p313
tp314
(dp315
S'headers%gcc-4.8'
p316
S'linux-compiler-gcc-4.8-s390'
p317
ss(g73
g262
g74
tp318
(dp319
g77
I01
sg78
(lp320
S'sb1-bcm91250a'
p321
aS'4kc-malta'
p322
aS'5kc-malta'
p323
aS'loongson-2e'
p324
aS'loongson-2f'
p325
aS'loongson-3'
p326
ass(S'description'
p327
S'powerpcspe'
p328
tp329
(dp330
S'hardware'
p331
S'32-bit PowerPC with SPE (instead of AltiVec) with SMP support'
p332
ss(S'description'
p333
g262
NS'loongson-3'
p334
tp335
(dp336
S'hardware'
p337
S'Loongson 3A/3B'
p338
sS'hardware-long'
p339
S'Loongson 3A or 3B based systems (e.g. from Loongson or Lemote)'
p340
ss(S'description'
p341
S'armel'
p342
NS'versatile'
p343
tp344
(dp345
S'hardware'
p346
S'Versatile'
p347
sS'hardware-long'
p348
S'Versatile systems (PB, AB, Qemu)'
p349
ss(S'build'
p350
g83
tp351
(dp352
S'image-file'
p353
S'arch/alpha/boot/vmlinux.gz'
p354
ss(S'image'
p355
g262
NS'loongson-3'
p356
tp357
(dp358
S'configs'
p359
(lp360
S'kernelarch-mips/config.loongson-3'
p361
ass(S'image'
p362
g117
NS'sb1-bcm91250a'
p363
tp364
(dp365
S'configs'
p366
(lp367
S'kernelarch-mips/config.sb1-bcm91250a'
p368
ass(S'image'
p369
g342
NS'kirkwood'
p370
tp371
(dp372
S'check-size'
p373
I2097080
sS'check-size-with-dtb'
p374
I01
sS'breaks'
p375
S'flash-kernel (<< 3.30~)'
p376
sS'recommends'
p377
S'uboot-mkimage'
p378
sS'configs'
p379
(lp380
S'armel/config-reduced'
p381
aS'armel/config.kirkwood'
p382
ass(S'image'
p383
g262
NS'4kc-malta'
p384
tp385
(dp386
S'configs'
p387
(lp388
S'kernelarch-mips/config.4kc-malta'
p389
ass(S'description'
p390
g305
NS'r4k-ip22'
p391
tp392
(dp393
S'hardware'
p394
S'SGI IP22'
p395
sS'hardware-long'
p396
S'SGI IP22 systems (Indy, Indigo2)'
p397
ss(S'description'
p398
g305
NS'5kc-malta'
p399
tp400
(dp401
S'hardware'
p402
S'MIPS Malta (64-bit)'
p403
sS'hardware-long'
p404
S'MIPS Malta boards (64-bit)'
p405
ss(g73
g117
g74
tp406
(dp407
g77
I01
sg78
(lp408
S'sb1-bcm91250a'
p409
aS'5kc-malta'
p410
aS'loongson-3'
p411
aS'octeon'
p412
ass(S'build'
p413
g328
tp414
(dp415
S'image-file'
p416
S'vmlinux'
p417
ss(g73
S'sh4'
p418
g74
tp419
(dp420
g77
I01
sg78
(lp421
S'sh7751r'
p422
aS'sh7785lcr'
p423
ass(S'build'
p424
g97
tp425
(dp426
S'image-file'
p427
S'vmlinux'
p428
ss(S'image'
p429
g244
NS'arm64'
p430
tp431
(dp432
s(S'image'
p433
g274
NS'octeon'
p434
tp435
(dp436
S'configs'
p437
(lp438
S'kernelarch-mips/config.octeon'
p439
ass(S'description'
p440
g244
NS'arm64'
p441
tp442
(dp443
S'hardware'
p444
S'64-bit ARMv8 machines'
p445
ss(S'image'
p446
g91
NS'powerpc64'
p447
tp448
(dp449
S'configs'
p450
(lp451
S'kernelarch-powerpc/config-arch-64'
p452
aS'kernelarch-powerpc/config-arch-64-be'
p453
ass(S'base'
p454
g342
tp455
(dp456
S'kernel-arch'
p457
S'arm'
p458
sg144
(lp459
g74
ass(S'build'
p460
g146
tp461
(dp462
S'image-file'
p463
S'arch/arm/boot/zImage'
p464
ss(S'base'
p465
g133
tp466
(dp467
S'kernel-arch'
p468
S'sparc'
p469
sg144
(lp470
g74
ass(S'base'
p471
g328
tp472
(dp473
S'kernel-arch'
p474
S'powerpc'
p475
sg144
(lp476
g74
ass(S'description'
p477
g262
NS'sb1-bcm91250a'
p478
tp479
(dp480
S'hardware'
p481
S'BCM91250A'
p482
sS'hardware-long'
p483
S'Broadcom BCM91250A systems (aka SWARM)'
p484
ss(S'description'
p485
g91
NS'powerpc64'
p486
tp487
(dp488
S'hardware'
p489
S'64-bit PowerPC'
p490
ss(g73
g313
g74
tp491
(dp492
g77
I01
sg78
(lp493
S's390x'
p494
ass(S'description'
p495
S'm68k'
p496
NS'm68k'
p497
tp498
(dp499
S'hardware'
p500
S'Motorola MC68020+ family'
p501
ss(g73
g125
g74
tp502
(dp503
g77
I01
sg78
(lp504
S's390x'
p505
ass(S'base'
p506
g305
tp507
(dp508
S'kernel-arch'
p509
S'mips'
p510
sg144
(lp511
g74
ass(S'build'
p512
g5
tp513
(dp514
S'debug-info'
p515
I01
sS'image-file'
p516
S'arch/x86/boot/bzImage'
p517
ss(S'image'
p518
g262
NS'loongson-2f'
p519
tp520
(dp521
S'configs'
p522
(lp523
S'kernelarch-mips/config.loongson-2f'
p524
asS'recommends'
p525
S'libc6-loongson2f'
p526
ss(S'description'
p527
g117
NS'5kc-malta'
p528
tp529
(dp530
S'hardware'
p531
S'MIPS Malta'
p532
sS'hardware-long'
p533
S'MIPS Malta boards'
p534
ss(S'abi'
p535
NS'rt'
p536
tp537
(dp538
S'ignore-changes'
p539
(lp540
S'*'
p541
ass(S'build'
p542
g133
tp543
(dp544
S'image-file'
p545
S'arch/sparc/boot/zImage'
p546
ss(S'image'
p547
g262
tp548
(dp549
S'install-stem'
p550
S'vmlinux'
p551
ss(S'image'
p552
g418
NS'sh7785lcr'
p553
tp554
(dp555
S'check-size'
p556
I4194304
sS'recommends'
p557
S'uboot-mkimage'
p558
ss(S'description'
p559
g262
NS'loongson-2e'
p560
tp561
(dp562
S'hardware'
p563
S'Loongson 2E'
p564
sS'hardware-long'
p565
S'Lemote Loongson 2E systems'
p566
ss(S'image'
p567
g133
NS'sparc64'
p568
tp569
(dp570
S'configs'
p571
(lp572
S'kernelarch-sparc/config-up'
p573
ass(S'build'
p574
g153
tp575
(dp576
S'image-file'
p577
S'vmlinux'
p578
ss(S'build'
p579
g244
tp580
(dp581
S'debug-info'
p582
I01
sS'image-file'
p583
S'arch/arm64/boot/Image'
p584
ss(S'description'
p585
g34
NS'mckinley'
p586
tp587
(dp588
S'hardware'
p589
S'Itanium II'
p590
ss(S'build'
p591
g262
tp592
(dp593
S'image-file'
p594
S'vmlinux'
p595
ss(S'base'
p596
g274
tp597
(dp598
S'kernel-arch'
p599
S'mips'
p600
sg144
(lp601
g74
ass(S'image'
p602
g5
NS'amd64'
p603
tp604
(dp605
S'configs'
p606
(lp607
S'kernelarch-x86/config-arch-64'
p608
ass(S'base'
p609
g5
tp610
(dp611
S'kernel-arch'
p612
S'x86'
p613
sS'featuresets'
p614
(lp615
S'none'
p616
aS'rt'
p617
ass(S'base'
p618
g34
tp619
(dp620
S'kernel-arch'
p621
S'ia64'
p622
sg144
(lp623
g74
asS'compiler'
p624
S'gcc-4.6'
p625
ss(S'description'
p626
g97
NS'parisc64-smp'
p627
tp628
(dp629
S'hardware'
p630
S'multiprocessor 64-bit PA-RISC'
p631
sS'hardware-long'
p632
S'HP PA-RISC 64-bit SMP systems with support for more than 4 GB RAM'
p633
ss(g73
g342
g74
tp634
(dp635
g77
I01
sg78
(lp636
S'kirkwood'
p637
aS'orion5x'
p638
aS'versatile'
p639
ass(S'image'
p640
g274
NS'sb1-bcm91250a'
p641
tp642
(dp643
S'configs'
p644
(lp645
S'kernelarch-mips/config.sb1-bcm91250a'
p646
ass(S'description'
p647
g5
NS'amd64'
p648
tp649
(dp650
S'hardware'
p651
S'64-bit PCs'
p652
sS'hardware-long'
p653
S'PCs with AMD64, Intel 64 or VIA Nano processors'
p654
ss(S'description'
p655
g153
NS'powerpc-smp'
p656
tp657
(dp658
S'hardware'
p659
S'multiprocessor 32-bit PowerPC'
p660
ss(S'description'
p661
g153
NS'powerpc64'
p662
tp663
(dp664
S'hardware'
p665
S'64-bit PowerPC'
p666
ss(S'description'
p667
g18
tp668
(dp669
S'part-long-pae'
p670
S'This kernel requires PAE (Physical Address Extension).\nThis feature is supported by the Intel Pentium Pro/II/III/4/4M/D, Xeon,\nCore and Atom; AMD Geode NX, Athlon (K7), Duron, Opteron, Sempron,\nTurion or Phenom; Transmeta Efficeon; VIA C7; and some other processors.'
p671
ss(S'relations'
p672
tp673
(dp674
S'gcc-4.9'
p675
S'gcc-4.9'
p676
sS'gcc-4.8'
p677
S'gcc-4.8'
p678
sS'initramfs-fallback'
p679
S'linux-initramfs-tool'
p680
sS'gcc-4.7'
p681
S'gcc-4.7'
p682
sS'gcc-4.6'
p683
S'gcc-4.6'
p684
sS'initramfs-tools'
p685
S'initramfs-tools (>= 0.110~)'
p686
ss(S'description'
p687
g274
NS'5kc-malta'
p688
tp689
(dp690
S'hardware'
p691
S'MIPS Malta'
p692
sS'hardware-long'
p693
S'MIPS Malta boards'
p694
ss(S'build'
p695
g117
tp696
(dp697
S'image-file'
p698
S'vmlinux'
p699
ss(S'description'
p700
g18
NS'686-pae'
p701
tp702
(dp703
S'hardware'
p704
S'modern PCs'
p705
sS'parts'
p706
(lp707
S'pae'
p708
asS'hardware-long'
p709
S'PCs with one or more processors supporting PAE'
p710
ss(S'image'
p711
g342
tp712
(dp713
S'suggests'
p714
S'fdutils'
p715
sS'configs'
p716
(lp717
S'kernelarch-arm/config'
p718
aS'armel/config'
p719
asS'install-stem'
p720
S'vmlinuz'
p721
ss(S'image'
p722
g313
tp723
(dp724
S'install-stem'
p725
S'vmlinuz'
p726
sS'configs'
p727
(lp728
sS'bootloaders'
p729
(lp730
S's390-tools'
p731
ass(S'relations'
p732
g342
tp733
(dp734
S'headers%gcc-4.9'
p735
S'linux-compiler-gcc-4.9-arm'
p736
ss(S'image'
p737
g97
tp738
(dp739
S'suggests'
p740
S'palo'
p741
sS'install-stem'
p742
S'vmlinux'
p743
ss(g73
g274
g74
tp744
(dp745
g77
I01
sg78
(lp746
S'sb1-bcm91250a'
p747
aS'5kc-malta'
p748
aS'octeon'
p749
ass(S'relations'
p750
g97
tp751
(dp752
S'gcc-4.9'
p753
S'gcc-4.9, binutils-hppa64, gcc-4.9-hppa64'
p754
ss(S'image'
p755
g117
NS'octeon'
p756
tp757
(dp758
S'configs'
p759
(lp760
S'kernelarch-mips/config.octeon'
p761
ass(S'image'
p762
g305
NS'4kc-malta'
p763
tp764
(dp765
S'configs'
p766
(lp767
S'kernelarch-mips/config.4kc-malta'
p768
ass(S'image'
p769
g342
NS'orion5x'
p770
tp771
(dp772
S'check-size'
p773
I1572792
sS'check-size-with-dtb'
p774
I01
sS'configs'
p775
(lp776
S'armel/config-reduced'
p777
aS'armel/config.orion5x'
p778
asS'recommends'
p779
S'uboot-mkimage'
p780
ss(S'image'
p781
g91
tp782
(dp783
S'suggests'
p784
S'mkvmlinuz'
p785
sS'configs'
p786
(lp787
sS'install-stem'
p788
S'vmlinux'
p789
ss(g73
g97
g74
tp790
(dp791
g77
I01
sg78
(lp792
S'parisc'
p793
aS'parisc64-smp'
p794
ass(S'image'
p795
g83
tp796
(dp797
S'suggests'
p798
S'aboot, fdutils'
p799
sS'install-stem'
p800
S'vmlinuz'
p801
ss(S'base'
p802
S'sparc64'
p803
tp804
(dp805
S'kernel-arch'
p806
S'sparc'
p807
sg144
(lp808
g74
ass(S'image'
p809
g18
tp810
(dp811
S'install-stem'
p812
S'vmlinuz'
p813
sS'configs'
p814
(lp815
sS'bootloaders'
p816
(lp817
S'grub-pc'
p818
aS'extlinux'
p819
ass(S'base'
p820
S'or1k'
p821
tp822
(dp823
S'kernel-arch'
p824
S'openrisc'
p825
sS'featuresets'
p826
(lp827
ss(S'base'
p828
g125
tp829
(dp830
S'kernel-arch'
p831
S's390'
p832
sg144
(lp833
g74
asS'compiler'
p834
S'gcc-4.8'
p835
ss(S'image'
p836
g305
NS'sb1-bcm91250a'
p837
tp838
(dp839
S'configs'
p840
(lp841
S'kernelarch-mips/config.sb1-bcm91250a'
p842
ass(S'description'
p843
g342
NS'orion5x'
p844
tp845
(dp846
S'hardware'
p847
S'Marvell Orion'
p848
sS'hardware-long'
p849
S'Marvell Orion 5181, 5182 and 5281 based systems (QNAP TS-109/TS-209, etc)'
p850
ss(S'image'
p851
g313
NS's390x'
p852
tp853
(dp854
S'configs'
p855
(lp856
S'kernelarch-s390/config-arch-64'
p857
ass(S'image'
p858
g803
tp859
(dp860
S'suggests'
p861
S'silo, fdutils'
p862
sS'configs'
p863
(lp864
sS'install-stem'
p865
S'vmlinuz'
p866
ss(S'image'
p867
g133
NS'sparc64-smp'
p868
tp869
(dp870
S'configs'
p871
(lp872
S'kernelarch-sparc/config-smp'
p873
ass(S'image'
p874
g305
tp875
(dp876
S'install-stem'
p877
S'vmlinux'
p878
ss(S'description'
p879
g117
NS'sb1-bcm91250a'
p880
tp881
(dp882
S'hardware'
p883
S'BCM91250A'
p884
sS'hardware-long'
p885
S'Broadcom BCM91250A systems (aka SWARM)'
p886
ss(g73
g133
g74
tp887
(dp888
g77
I01
sg78
(lp889
S'sparc64'
p890
aS'sparc64-smp'
p891
ass(S'base'
p892
g91
tp893
(dp894
S'kernel-arch'
p895
S'powerpc'
p896
sg144
(lp897
g74
ass(g73
g83
g74
tp898
(dp899
g77
I01
sg78
(lp900
S'alpha-generic'
p901
aS'alpha-smp'
p902
aS'alpha-legacy'
p903
ass(S'description'
p904
g18
g236
S'686-pae'
p905
tp906
(dp907
S'parts'
p908
(lp909
S'xen'
p910
ass(S'description'
p911
g262
NS'4kc-malta'
p912
tp913
(dp914
S'hardware'
p915
S'MIPS Malta'
p916
sS'hardware-long'
p917
S'MIPS Malta boards'
p918
ss(S'base'
p919
g244
S'none'
p920
tp921
(dp922
S'flavours'
p923
(lp924
S'arm64'
p925
ass(S'build'
p926
g125
tp927
(dp928
S'image-file'
p929
S'arch/s390/boot/image'
p930
ss(g73
g305
g74
tp931
(dp932
g77
I01
sg78
(lp933
S'r4k-ip22'
p934
aS'r5k-ip32'
p935
aS'sb1-bcm91250a'
p936
aS'4kc-malta'
p937
aS'5kc-malta'
p938
aS'octeon'
p939
ass(S'build'
p940
g305
tp941
(dp942
S'image-file'
p943
S'vmlinux'
p944
ss(S'description'
p945
g274
NS'octeon'
p946
tp947
(dp948
S'hardware'
p949
S'Octeon'
p950
sS'hardware-long'
p951
S'Cavium Networks Octeon'
p952
ss(S'image'
p953
g274
tp954
(dp955
S'install-stem'
p956
S'vmlinux'
p957
ss(S'description'
p958
g153
NS'powerpc'
p959
tp960
(dp961
S'hardware'
p962
S'uniprocessor 32-bit PowerPC'
p963
ss(S'description'
p964
g117
NS'octeon'
p965
tp966
(dp967
S'hardware'
p968
S'Octeon'
p969
sS'hardware-long'
p970
S'Cavium Networks Octeon'
p971
ss(S'description'
p972
g146
NS'armmp-lpae'
p973
tp974
(dp975
S'hardware'
p976
S'ARMv7 multiplatform compatible SoCs supporting LPAE'
p977
sS'hardware-long'
p978
S'ARMv7 multiplatform kernel supporting LPAE. See\nhttps://wiki.debian.org/DebianKernel/ARMMP for details of supported\nplatforms.'
p979
ss(S'base'
p980
S'x32'
p981
tp982
(dp983
S'kernel-arch'
p984
S'x86'
p985
sS'featuresets'
p986
(lp987
ss(S'build'
p988
g418
tp989
(dp990
S'image-file'
p991
S'arch/sh/boot/zImage'
p992
ss(S'image'
p993
g496
tp994
(dp995
S'suggests'
p996
S'vmelilo, fdutils'
p997
sS'install-stem'
p998
S'vmlinuz'
p999
ss(S'description'
p1000
g305
NS'sb1-bcm91250a'
p1001
tp1002
(dp1003
S'hardware'
p1004
S'BCM91250A'
p1005
sS'hardware-long'
p1006
S'Broadcom BCM91250A systems (aka SWARM)'
p1007
ss(S'build'
p1008
g274
tp1009
(dp1010
S'image-file'
p1011
S'vmlinux'
p1012
ss(S'image'
p1013
g262
NS'sb1-bcm91250a'
p1014
tp1015
(dp1016
S'configs'
p1017
(lp1018
S'kernelarch-mips/config.sb1-bcm91250a'
p1019
ass(S'image'
p1020
g146
NS'armmp-lpae'
p1021
tp1022
(dp1023
S'configs'
p1024
(lp1025
S'armhf/config.armmp'
p1026
aS'armhf/config.lpae'
p1027
ass(S'build'
p1028
g34
tp1029
(dp1030
S'image-file'
p1031
S'vmlinux.gz'
p1032
ss(S'base'
p1033
g146
tp1034
(dp1035
S'kernel-arch'
p1036
S'arm'
p1037
sg144
(lp1038
g74
ass(S'description'
p1039
g117
NS'loongson-3'
p1040
tp1041
(dp1042
S'hardware'
p1043
S'Loongson 3A/3B'
p1044
sS'hardware-long'
p1045
S'Loongson 3A or 3B based systems (e.g. from Loongson or Lemote)'
p1046
ss(S'image'
p1047
g418
tp1048
(dp1049
S'suggests'
p1050
S'fdutils'
p1051
sS'install-stem'
p1052
S'vmlinuz'
p1053
ss(S'image'
p1054
g18
NS'686-pae'
p1055
tp1056
(dp1057
S'configs'
p1058
(lp1059
S'kernelarch-x86/config-arch-32'
p1060
aS'i386/config.686-pae'
p1061
asS'recommends'
p1062
S'libc6-i686'
p1063
ss(S'base'
p1064
g97
tp1065
(dp1066
S'kernel-arch'
p1067
S'parisc'
p1068
sg144
(lp1069
g74
ass(S'image'
p1070
g153
NS'powerpc-smp'
p1071
tp1072
(dp1073
S'configs'
p1074
(lp1075
S'powerpc/config.powerpc'
p1076
aS'powerpc/config.powerpc-smp'
p1077
ass(S'description'
p1078
g262
NS'loongson-2f'
p1079
tp1080
(dp1081
S'hardware'
p1082
S'Loongson 2F'
p1083
sS'hardware-long'
p1084
S'Lemote Loongson 2F systems'
p1085
ss(S'base'
p1086
tp1087
(dp1088
S'arches'
p1089
(lp1090
S'alpha'
p1091
aS'amd64'
p1092
aS'arm64'
p1093
aS'armel'
p1094
aS'armhf'
p1095
aS'hppa'
p1096
aS'i386'
p1097
aS'ia64'
p1098
aS'm68k'
p1099
aS'mips'
p1100
aS'mipsel'
p1101
aS'mips64'
p1102
aS'mips64el'
p1103
aS'or1k'
p1104
aS'powerpc'
p1105
aS'powerpcspe'
p1106
aS'ppc64'
p1107
aS'ppc64el'
p1108
aS's390'
p1109
aS's390x'
p1110
aS'sh4'
p1111
aS'sparc'
p1112
aS'sparc64'
p1113
aS'x32'
p1114
asS'featuresets'
p1115
(lp1116
S'none'
p1117
aS'rt'
p1118
asS'compiler'
p1119
S'gcc-4.9'
p1120
ss(S'description'
p1121
g305
NS'octeon'
p1122
tp1123
(dp1124
S'hardware'
p1125
S'Octeon'
p1126
sS'hardware-long'
p1127
S'Cavium Networks Octeon'
p1128
ss(S'description'
p1129
g133
NS'sparc32'
p1130
tp1131
(dp1132
S'hardware'
p1133
S'uniprocessor sparc32 (sun4m)'
p1134
ss(S'image'
p1135
g133
tp1136
(dp1137
S'suggests'
p1138
S'silo, fdutils'
p1139
sS'configs'
p1140
(lp1141
sS'install-stem'
p1142
S'vmlinuz'
p1143
ss(S'description'
p1144
tp1145
(dp1146
S'part-long-up'
p1147
S'This kernel is not suitable for SMP (multi-processor,\nmulti-core or hyper-threaded) systems.'
p1148
sS'part-long-xen'
p1149
S'This kernel also runs on a Xen hypervisor.\nIt supports both privileged (dom0) and unprivileged (domU) operation.'
p1150
ss(S'description'
p1151
g418
NS'sh7785lcr'
p1152
tp1153
(dp1154
S'hardware'
p1155
S'sh7785lcr'
p1156
sS'hardware-long'
p1157
S'Renesas SH7785 reference board'
p1158
ss(S'build'
p1159
g803
tp1160
(dp1161
S'image-file'
p1162
S'arch/sparc/boot/zImage'
p1163
ss(S'relations'
p1164
g146
tp1165
(dp1166
S'headers%gcc-4.9'
p1167
S'linux-compiler-gcc-4.9-arm'
p1168
ss(S'description'
p1169
g342
NS'kirkwood'
p1170
tp1171
(dp1172
S'hardware'
p1173
S'Marvell Kirkwood'
p1174
sS'hardware-long'
p1175
S'Marvell Kirkwood based systems (SheevaPlug, QNAP TS-119/TS-219, etc)'
p1176
ss(S'image'
p1177
g305
NS'r4k-ip22'
p1178
tp1179
(dp1180
S'configs'
p1181
(lp1182
S'kernelarch-mips/config.r4k-ip22'
p1183
ass(S'base'
p1184
g313
tp1185
(dp1186
S'kernel-arch'
p1187
S's390'
p1188
sg144
(lp1189
g74
asS'compiler'
p1190
S'gcc-4.8'
p1191
ss(S'description'
p1192
g133
NS'sparc64'
p1193
tp1194
(dp1195
S'hardware'
p1196
S'uniprocessor 64-bit UltraSPARC'
p1197
ss(S'relations'
p1198
g125
tp1199
(dp1200
S'headers%gcc-4.8'
p1201
S'linux-compiler-gcc-4.8-s390'
p1202
ss(S'image'
p1203
g305
NS'5kc-malta'
p1204
tp1205
(dp1206
S'configs'
p1207
(lp1208
S'kernelarch-mips/config.5kc-malta'
p1209
ass(S'base'
p1210
g153
tp1211
(dp1212
S'kernel-arch'
p1213
S'powerpc'
p1214
sg144
(lp1215
g74
ass(S'image'
p1216
g305
NS'r5k-ip32'
p1217
tp1218
(dp1219
S'configs'
p1220
(lp1221
S'kernelarch-mips/config.r5k-ip32'
p1222
ass(S'description'
p1223
g803
NS'sparc64-smp'
p1224
tp1225
(dp1226
S'hardware'
p1227
S'multiprocessor 64-bit UltraSPARC'
p1228
ss(S'description'
p1229
g83
NS'alpha-legacy'
p1230
tp1231
(dp1232
S'hardware'
p1233
S'Alpha Legacy'
p1234
sS'hardware-long'
p1235
S'DEC Alpha systems with legacy kernel start address'
p1236
ss(S'base'
p1237
g418
tp1238
(dp1239
S'kernel-arch'
p1240
S'sh'
p1241
sg144
(lp1242
g74
ass(S'build'
p1243
g313
tp1244
(dp1245
S'image-file'
p1246
S'arch/s390/boot/image'
p1247
ss(S'image'
p1248
g328
tp1249
(dp1250
S'suggests'
p1251
S'mkvmlinuz'
p1252
sS'install-stem'
p1253
S'vmlinux'
p1254
ss(S'image'
p1255
g146
tp1256
(dp1257
S'suggests'
p1258
S'fdutils'
p1259
sS'configs'
p1260
(lp1261
S'kernelarch-arm/config'
p1262
aS'armhf/config'
p1263
asS'install-stem'
p1264
S'vmlinuz'
p1265
ss(S'abi'
p1266
tp1267
(dp1268
S'abiname'
p1269
S'trunk'
p1270
ss(S'build'
p1271
g313
NS's390x'
p1272
tp1273
(dp1274
S'debug-info'
p1275
I01
ss(S'xen'
p1276
g5
g27
S'amd64'
p1277
tp1278
(dp1279
S'flavours'
p1280
(lp1281
S'amd64'
p1282
ass(g73
g328
g74
tp1283
(dp1284
g77
I01
sg78
(lp1285
S'powerpcspe'
p1286
ass(g73
g496
g74
tp1287
(dp1288
g77
I01
sg78
(lp1289
S'm68k'
p1290
ass(S'description'
p1291
g305
NS'r5k-ip32'
p1292
tp1293
(dp1294
S'hardware'
p1295
S'SGI IP32'
p1296
sS'hardware-long'
p1297
S'SGI IP32 systems (O2)'
p1298
ss(S'base'
p1299
g18
g236
tp1300
(dp1301
S'flavours'
p1302
(lp1303
S'586'
p1304
aS'686-pae'
p1305
aS'amd64'
p1306
ass(S'image'
p1307
g262
NS'5kc-malta'
p1308
tp1309
(dp1310
S'configs'
p1311
(lp1312
S'kernelarch-mips/config.5kc-malta'
p1313
ass(S'image'
p1314
g274
NS'5kc-malta'
p1315
tp1316
(dp1317
S'configs'
p1318
(lp1319
S'kernelarch-mips/config.5kc-malta'
p1320
ass(S'build'
p1321
g496
tp1322
(dp1323
S'image-file'
p1324
S'vmlinux.gz'
p1325
ss(S'description'
p1326
g262
NS'5kc-malta'
p1327
tp1328
(dp1329
S'hardware'
p1330
S'MIPS Malta (64-bit)'
p1331
sS'hardware-long'
p1332
S'MIPS Malta boards (64-bit)'
p1333
ss(S'build'
p1334
g342
tp1335
(dp1336
S'image-file'
p1337
S'arch/arm/boot/zImage'
p1338
ss(g73
g153
g74
tp1339
(dp1340
g77
I01
sg78
(lp1341
S'powerpc'
p1342
aS'powerpc-smp'
p1343
aS'powerpc64'
p1344
ass(S'image'
p1345
g117
tp1346
(dp1347
S'install-stem'
p1348
S'vmlinux'
p1349
ss(S'base'
p1350
g177
tp1351
(dp1352
S'kernel-arch'
p1353
S'powerpc'
p1354
sg144
(lp1355
g74
ass(S'base'
p1356
g117
tp1357
(dp1358
S'kernel-arch'
p1359
S'mips'
p1360
sg144
(lp1361
g74
ass(S'base'
p1362
g496
tp1363
(dp1364
S'kernel-arch'
p1365
S'm68k'
p1366
sg144
(lp1367
g74
asS'cflags'
p1368
S'-ffreestanding'
p1369
sS'compiler'
p1370
S'gcc-4.8'
p1371
ss(S'image'
p1372
tp1373
(dp1374
S'initramfs-generators'
p1375
(lp1376
S'initramfs-tools'
p1377
aS'initramfs-fallback'
p1378
asS'type'
p1379
S'plain'
p1380
ss(S'description'
p1381
g146
NS'armmp'
p1382
tp1383
(dp1384
S'hardware'
p1385
S'ARMv7 multiplatform compatible SoCs'
p1386
sS'hardware-long'
p1387
S'ARMv7 multiplatform kernel. See\nhttps://wiki.debian.org/DebianKernel/ARMMP for details of supported\nplatforms'
p1388
ss(S'description'
p1389
Ng536
tp1390
(dp1391
S'part-long-rt'
p1392
S'This kernel includes the PREEMPT_RT realtime patch set.'
p1393
sS'parts'
p1394
(lp1395
S'rt'
p1396
asS'part-short-rt'
p1397
S'PREEMPT_RT'
p1398
ss(g73
g803
g74
tp1399
(dp1400
g77
I01
sg78
(lp1401
S'sparc64'
p1402
aS'sparc64-smp'
p1403
ass(S'image'
p1404
g803
NS'sparc64'
p1405
tp1406
(dp1407
S'configs'
p1408
(lp1409
S'kernelarch-sparc/config-up'
p1410
ass(S'build'
p1411
g125
NS's390x'
p1412
tp1413
(dp1414
S'debug-info'
p1415
I01
ss(S'description'
p1416
g313
NS's390x'
p1417
tp1418
(dp1419
S'hardware'
p1420
S'IBM zSeries'
p1421
ss(S'build'
p1422
g18
NS'686-pae'
p1423
tp1424
(dp1425
S'debug-info'
p1426
I01
ss(S'image'
p1427
g177
NS'powerpc64le'
p1428
tp1429
(dp1430
S'configs'
p1431
(lp1432
S'kernelarch-powerpc/config-arch-64'
p1433
aS'kernelarch-powerpc/config-arch-64-le'
p1434
ass(S'description'
p1435
g305
NS'4kc-malta'
p1436
tp1437
(dp1438
S'hardware'
p1439
S'MIPS Malta'
p1440
sS'hardware-long'
p1441
S'MIPS Malta boards'
p1442
ss(S'description'
p1443
g133
NS'sparc64-smp'
p1444
tp1445
(dp1446
S'hardware'
p1447
S'multiprocessor 64-bit UltraSPARC'
p1448
ss(S'description'
p1449
g418
NS'sh7751r'
p1450
tp1451
(dp1452
S'hardware'
p1453
S'sh7751r'
p1454
sS'hardware-long'
p1455
S'Renesas SH7751R R2D plus board'
p1456
ss(S'description'
p1457
g177
NS'powerpc64le'
p1458
tp1459
(dp1460
S'hardware'
p1461
S'Little-endian 64-bit PowerPC'
p1462
ss(S'description'
p1463
g97
NS'parisc'
p1464
tp1465
(dp1466
S'hardware'
p1467
S'32-bit PA-RISC'
p1468
sS'hardware-long'
p1469
S'HP PA-RISC 32-bit systems with max 4 GB RAM'
p1470
ss(S'image'
p1471
g125
tp1472
(dp1473
S'install-stem'
p1474
S'vmlinuz'
p1475
sS'configs'
p1476
(lp1477
sS'bootloaders'
p1478
(lp1479
S's390-tools'
p1480
ass(S'image'
p1481
g244
tp1482
(dp1483
S'install-stem'
p1484
S'vmlinuz'
p1485
ss(S'image'
p1486
g803
NS'sparc64-smp'
p1487
tp1488
(dp1489
S'configs'
p1490
(lp1491
S'kernelarch-sparc/config-smp'
p1492
ass(S'build'
p1493
g18
tp1494
(dp1495
S'image-file'
p1496
S'arch/x86/boot/bzImage'
p1497
ss(g73
g177
g74
tp1498
(dp1499
g77
I01
sg78
(lp1500
S'powerpc64le'
p1501
ass(S'description'
p1502
g803
NS'sparc64'
p1503
tp1504
(dp1505
S'hardware'
p1506
S'uniprocessor 64-bit UltraSPARC'
p1507
sstp1508
Rp1509
.