ccopy_reg
_reconstructor
p0
(cdebian_linux.config
ConfigCore
p1
c__builtin__
dict
p2
(dp3
(S'description'
p4
S'sh4'
p5
NS'sh7785lcr'
p6
tp7
(dp8
S'hardware'
p9
S'sh7785lcr'
p10
sS'hardware-long'
p11
S'Renesas SH7785 reference board'
p12
ss(S'image'
p13
S'amd64'
p14
tp15
(dp16
S'install-stem'
p17
S'vmlinuz'
p18
sS'configs'
p19
(lp20
sS'bootloaders'
p21
(lp22
S'grub-pc'
p23
aS'grub-efi'
p24
aS'extlinux'
p25
ass(S'description'
p26
S'mipsel'
p27
NS'sb1-bcm91250a'
p28
tp29
(dp30
S'hardware'
p31
S'BCM91250A'
p32
sS'hardware-long'
p33
S'Broadcom BCM91250A systems (aka SWARM)'
p34
ss(S'base'
p35
g14
S'none'
p36
tp37
(dp38
S'flavours'
p39
(lp40
S'amd64'
p41
ass(S'description'
p42
S'mips'
p43
NS'r5k-ip32'
p44
tp45
(dp46
S'hardware'
p47
S'SGI IP32'
p48
sS'hardware-long'
p49
S'SGI IP32 systems (O2)'
p50
ss(S'image'
p51
S'sparc'
p52
NS'sparc64-smp'
p53
tp54
(dp55
S'configs'
p56
(lp57
S'kernelarch-sparc/config-smp'
p58
ass(S'description'
p59
S'i386'
p60
NS'686-pae'
p61
tp62
(dp63
S'hardware'
p64
S'modern PCs'
p65
sS'parts'
p66
(lp67
S'pae'
p68
asS'hardware-long'
p69
S'PCs with one or more processors supporting PAE'
p70
ss(S'build'
p71
S'mips64'
p72
tp73
(dp74
S'image-file'
p75
S'vmlinux'
p76
ss(S'version'
p77
tp78
(dp79
S'abiname'
p80
S'3.16.0-4'
p81
sS'source'
p82
V3.16.7-ckt4-1
p83
sS'abiname_base'
p84
S'3.16.0'
p85
sS'upstream'
p86
S'3.16'
p87
ss(S'description'
p88
g14
g36
S'amd64'
p89
tp90
(dp91
S'parts'
p92
(lp93
S'xen'
p94
ass(S'description'
p95
g72
NS'5kc-malta'
p96
tp97
(dp98
S'hardware'
p99
S'MIPS Malta'
p100
sS'hardware-long'
p101
S'MIPS Malta boards'
p102
ss(S'base'
p103
S'ppc64'
p104
S'none'
p105
tp106
(dp107
S'implicit-flavour'
p108
I01
sS'flavours'
p109
(lp110
S'powerpc64'
p111
ass(S'description'
p112
g104
NS'powerpc64'
p113
tp114
(dp115
S'hardware'
p116
S'64-bit PowerPC'
p117
ss(S'image'
p118
S'mips64el'
p119
NS'octeon'
p120
tp121
(dp122
S'configs'
p123
(lp124
S'kernelarch-mips/config.octeon'
p125
ass(S'description'
p126
g43
NS'4kc-malta'
p127
tp128
(dp129
S'hardware'
p130
S'MIPS Malta'
p131
sS'hardware-long'
p132
S'MIPS Malta boards'
p133
ss(S'build'
p134
S'ia64'
p135
tp136
(dp137
S'image-file'
p138
S'vmlinux.gz'
p139
ss(g103
S'armhf'
p140
g105
tp141
(dp142
g108
I01
sg109
(lp143
S'armmp'
p144
aS'armmp-lpae'
p145
ass(S'image'
p146
S'armel'
p147
NS'orion5x'
p148
tp149
(dp150
S'check-size'
p151
S'1572792'
p152
sS'configs'
p153
(lp154
S'armel/config-reduced'
p155
aS'armel/config.orion5x'
p156
asS'recommends'
p157
S'uboot-mkimage'
p158
ss(S'description'
p159
g119
NS'sb1-bcm91250a'
p160
tp161
(dp162
S'hardware'
p163
S'BCM91250A'
p164
sS'hardware-long'
p165
S'Broadcom BCM91250A systems (aka SWARM)'
p166
ss(S'base'
p167
g60
S'rt'
p168
tp169
(dp170
S'flavours'
p171
(lp172
S'686-pae'
p173
ass(S'image'
p174
S'ppc64el'
p175
NS'powerpc64le'
p176
tp177
(dp178
S'configs'
p179
(lp180
S'kernelarch-powerpc/config-arch-64'
p181
aS'kernelarch-powerpc/config-arch-64-le'
p182
ass(S'base'
p183
NS'rt'
p184
tp185
(dp186
S'enabled'
p187
I00
ss(S'image'
p188
g175
tp189
(dp190
S'suggests'
p191
S'mkvmlinuz'
p192
sS'configs'
p193
(lp194
sS'install-stem'
p195
S'vmlinux'
p196
ss(S'abi'
p197
g147
NS'orion5x'
p198
tp199
(dp200
S'ignore-changes'
p201
(lp202
S'__ring_buffer_alloc'
p203
aS'dcookie_register'
p204
aS'dcookie_unregister'
p205
aS'get_dcookie'
p206
aS'prof_on'
p207
aS'profile_event_register'
p208
aS'profile_event_unregister'
p209
aS'profile_hits'
p210
aS'ring_buffer_alloc_read_page'
p211
aS'ring_buffer_bytes_cpu'
p212
aS'ring_buffer_change_overwrite'
p213
aS'ring_buffer_commit_overrun_cpu'
p214
aS'ring_buffer_consume'
p215
aS'ring_buffer_discard_commit'
p216
aS'ring_buffer_dropped_events_cpu'
p217
aS'ring_buffer_empty'
p218
aS'ring_buffer_empty_cpu'
p219
aS'ring_buffer_entries'
p220
aS'ring_buffer_entries_cpu'
p221
aS'ring_buffer_event_data'
p222
aS'ring_buffer_event_length'
p223
aS'ring_buffer_free'
p224
aS'ring_buffer_free_read_page'
p225
aS'ring_buffer_iter_empty'
p226
aS'ring_buffer_iter_peek'
p227
aS'ring_buffer_iter_reset'
p228
aS'ring_buffer_lock_reserve'
p229
aS'ring_buffer_normalize_time_stamp'
p230
aS'ring_buffer_oldest_event_ts'
p231
aS'ring_buffer_overrun_cpu'
p232
aS'ring_buffer_overruns'
p233
aS'ring_buffer_peek'
p234
aS'ring_buffer_read'
p235
aS'ring_buffer_read_events_cpu'
p236
aS'ring_buffer_read_finish'
p237
aS'ring_buffer_read_page'
p238
aS'ring_buffer_read_prepare'
p239
aS'ring_buffer_read_prepare_sync'
p240
aS'ring_buffer_read_start'
p241
aS'ring_buffer_record_disable'
p242
aS'ring_buffer_record_disable_cpu'
p243
aS'ring_buffer_record_enable'
p244
aS'ring_buffer_record_enable_cpu'
p245
aS'ring_buffer_record_off'
p246
aS'ring_buffer_record_on'
p247
aS'ring_buffer_reset'
p248
aS'ring_buffer_reset_cpu'
p249
aS'ring_buffer_resize'
p250
aS'ring_buffer_size'
p251
aS'ring_buffer_swap_cpu'
p252
aS'ring_buffer_time_stamp'
p253
aS'ring_buffer_unlock_commit'
p254
aS'ring_buffer_write'
p255
aS'task_handoff_register'
p256
aS'task_handoff_unregister'
p257
aS'trace_clock_local'
p258
ass(S'relations'
p259
g60
tp260
(dp261
S'headers%gcc-4.8'
p262
S'linux-compiler-gcc-4.8-x86'
p263
ss(S'description'
p264
S'sparc64'
p265
NS'sparc64'
p266
tp267
(dp268
S'hardware'
p269
S'uniprocessor 64-bit UltraSPARC'
p270
ss(S'image'
p271
g43
NS'r5k-ip32'
p272
tp273
(dp274
S'configs'
p275
(lp276
S'kernelarch-mips/config.r5k-ip32'
p277
ass(S'image'
p278
S'powerpc'
p279
tp280
(dp281
S'suggests'
p282
S'mkvmlinuz'
p283
sS'configs'
p284
(lp285
sS'install-stem'
p286
S'vmlinux'
p287
ss(S'description'
p288
S'arm64'
p289
NS'arm64'
p290
tp291
(dp292
S'hardware'
p293
S'64-bit ARMv8 machines'
p294
ss(S'base'
p295
g14
S'rt'
p296
tp297
(dp298
S'flavours'
p299
(lp300
S'amd64'
p301
ass(S'build'
p302
g175
tp303
(dp304
S'image-file'
p305
S'vmlinux'
p306
ss(S'build'
p307
g104
tp308
(dp309
S'image-file'
p310
S'vmlinux'
p311
ss(S'description'
p312
g60
S'none'
p313
S'amd64'
p314
tp315
(dp316
S'parts'
p317
(lp318
S'xen'
p319
ass(S'base'
p320
g289
tp321
(dp322
S'kernel-arch'
p323
S'arm64'
p324
sS'featuresets'
p325
(lp326
S'none'
p327
ass(S'description'
p328
S'alpha'
p329
NS'alpha-generic'
p330
tp331
(dp332
S'hardware'
p333
S'Alpha'
p334
sS'hardware-long'
p335
S'DEC Alpha systems with extended kernel start address (Wildfire, Titan, Marvel)'
p336
ss(S'base'
p337
g60
tp338
(dp339
S'kernel-arch'
p340
S'x86'
p341
sS'featuresets'
p342
(lp343
S'none'
p344
aS'rt'
p345
ass(S'base'
p346
g27
tp347
(dp348
S'kernel-arch'
p349
S'mips'
p350
sS'featuresets'
p351
(lp352
g105
ass(S'relations'
p353
g14
tp354
(dp355
S'headers%gcc-4.8'
p356
S'linux-compiler-gcc-4.8-x86'
p357
ss(S'image'
p358
g135
tp359
(dp360
S'suggests'
p361
S'fdutils'
p362
sS'bootloaders'
p363
(lp364
S'elilo'
p365
asS'install-stem'
p366
S'vmlinuz'
p367
ss(S'description'
p368
g119
NS'5kc-malta'
p369
tp370
(dp371
S'hardware'
p372
S'MIPS Malta'
p373
sS'hardware-long'
p374
S'MIPS Malta boards'
p375
ss(S'abi'
p376
g147
NS'ixp4xx'
p377
tp378
(dp379
S'ignore-changes'
p380
(lp381
S'__ring_buffer_alloc'
p382
aS'dcookie_register'
p383
aS'dcookie_unregister'
p384
aS'get_dcookie'
p385
aS'prof_on'
p386
aS'profile_event_register'
p387
aS'profile_event_unregister'
p388
aS'profile_hits'
p389
aS'ring_buffer_alloc_read_page'
p390
aS'ring_buffer_bytes_cpu'
p391
aS'ring_buffer_change_overwrite'
p392
aS'ring_buffer_commit_overrun_cpu'
p393
aS'ring_buffer_consume'
p394
aS'ring_buffer_discard_commit'
p395
aS'ring_buffer_dropped_events_cpu'
p396
aS'ring_buffer_empty'
p397
aS'ring_buffer_empty_cpu'
p398
aS'ring_buffer_entries'
p399
aS'ring_buffer_entries_cpu'
p400
aS'ring_buffer_event_data'
p401
aS'ring_buffer_event_length'
p402
aS'ring_buffer_free'
p403
aS'ring_buffer_free_read_page'
p404
aS'ring_buffer_iter_empty'
p405
aS'ring_buffer_iter_peek'
p406
aS'ring_buffer_iter_reset'
p407
aS'ring_buffer_lock_reserve'
p408
aS'ring_buffer_normalize_time_stamp'
p409
aS'ring_buffer_oldest_event_ts'
p410
aS'ring_buffer_overrun_cpu'
p411
aS'ring_buffer_overruns'
p412
aS'ring_buffer_peek'
p413
aS'ring_buffer_read'
p414
aS'ring_buffer_read_events_cpu'
p415
aS'ring_buffer_read_finish'
p416
aS'ring_buffer_read_page'
p417
aS'ring_buffer_read_prepare'
p418
aS'ring_buffer_read_prepare_sync'
p419
aS'ring_buffer_read_start'
p420
aS'ring_buffer_record_disable'
p421
aS'ring_buffer_record_disable_cpu'
p422
aS'ring_buffer_record_enable'
p423
aS'ring_buffer_record_enable_cpu'
p424
aS'ring_buffer_record_off'
p425
aS'ring_buffer_record_on'
p426
aS'ring_buffer_reset'
p427
aS'ring_buffer_reset_cpu'
p428
aS'ring_buffer_resize'
p429
aS'ring_buffer_size'
p430
aS'ring_buffer_swap_cpu'
p431
aS'ring_buffer_time_stamp'
p432
aS'ring_buffer_unlock_commit'
p433
aS'ring_buffer_write'
p434
aS'task_handoff_register'
p435
aS'task_handoff_unregister'
p436
aS'trace_clock_local'
p437
ass(S'description'
p438
g147
NS'versatile'
p439
tp440
(dp441
S'hardware'
p442
S'Versatile'
p443
sS'hardware-long'
p444
S'Versatile systems (PB, AB, Qemu)'
p445
ss(S'relations'
p446
S's390'
p447
tp448
(dp449
S'headers%gcc-4.8'
p450
S'linux-compiler-gcc-4.8-s390'
p451
ss(S'image'
p452
g27
NS'loongson-2f'
p453
tp454
(dp455
S'configs'
p456
(lp457
S'kernelarch-mips/config.loongson-2f'
p458
asS'recommends'
p459
S'libc6-loongson2f'
p460
ss(g103
g27
g105
tp461
(dp462
g108
I01
sg109
(lp463
S'sb1-bcm91250a'
p464
aS'4kc-malta'
p465
aS'5kc-malta'
p466
aS'loongson-2e'
p467
aS'loongson-2f'
p468
aS'loongson-3'
p469
ass(S'description'
p470
g72
NS'octeon'
p471
tp472
(dp473
S'hardware'
p474
S'Octeon'
p475
sS'hardware-long'
p476
S'Cavium Networks Octeon'
p477
ss(S'description'
p478
S'powerpcspe'
p479
tp480
(dp481
S'hardware'
p482
S'32-bit PowerPC with SPE (instead of AltiVec) with SMP support'
p483
ss(S'relations'
p484
tp485
(dp486
S'gcc-4.8'
p487
S'gcc-4.8'
p488
sS'initramfs-fallback'
p489
S'linux-initramfs-tool'
p490
sS'gcc-4.7'
p491
S'gcc-4.7'
p492
sS'gcc-4.6'
p493
S'gcc-4.6'
p494
sS'gcc-4.4'
p495
S'gcc-4.4'
p496
sS'initramfs-tools'
p497
S'initramfs-tools (>= 0.110~)'
p498
ss(S'build'
p499
S'm68k'
p500
tp501
(dp502
S'image-file'
p503
S'vmlinux.gz'
p504
ss(S'image'
p505
g60
NS'686-pae'
p506
tp507
(dp508
S'configs'
p509
(lp510
S'kernelarch-x86/config-arch-32'
p511
aS'i386/config.686-pae'
p512
asS'recommends'
p513
S'libc6-i686'
p514
ss(S'description'
p515
g52
NS'sparc32'
p516
tp517
(dp518
S'hardware'
p519
S'uniprocessor sparc32 (sun4m)'
p520
ss(g103
g119
g105
tp521
(dp522
g108
I01
sg109
(lp523
S'sb1-bcm91250a'
p524
aS'5kc-malta'
p525
aS'loongson-3'
p526
aS'octeon'
p527
ass(S'build'
p528
g479
tp529
(dp530
S'image-file'
p531
S'vmlinux'
p532
ss(g103
g5
g105
tp533
(dp534
g108
I01
sg109
(lp535
S'sh7751r'
p536
aS'sh7785lcr'
p537
ass(S'build'
p538
S'hppa'
p539
tp540
(dp541
S'image-file'
p542
S'vmlinux'
p543
ss(S'image'
p544
g72
NS'octeon'
p545
tp546
(dp547
S'configs'
p548
(lp549
S'kernelarch-mips/config.octeon'
p550
ass(S'description'
p551
g119
NS'loongson-3'
p552
tp553
(dp554
S'hardware'
p555
S'Loongson 3A/3B'
p556
sS'hardware-long'
p557
S'Loongson 3A or 3B based systems (e.g. from Loongson or Lemote)'
p558
ss(S'image'
p559
g447
NS's390x'
p560
tp561
(dp562
S'configs'
p563
(lp564
S'kernelarch-s390/config-arch-64'
p565
ass(S'image'
p566
g279
NS'powerpc-smp'
p567
tp568
(dp569
S'configs'
p570
(lp571
S'powerpc/config.powerpc'
p572
aS'powerpc/config.powerpc-smp'
p573
ass(S'base'
p574
g147
tp575
(dp576
S'kernel-arch'
p577
S'arm'
p578
sg351
(lp579
g105
ass(S'image'
p580
g27
NS'5kc-malta'
p581
tp582
(dp583
S'configs'
p584
(lp585
S'kernelarch-mips/config.5kc-malta'
p586
ass(S'build'
p587
g289
tp588
(dp589
S'debug-info'
p590
I01
sS'image-file'
p591
S'arch/arm64/boot/Image'
p592
ss(S'base'
p593
g52
tp594
(dp595
S'kernel-arch'
p596
S'sparc'
p597
sg351
(lp598
g105
ass(S'description'
p599
g27
NS'5kc-malta'
p600
tp601
(dp602
S'hardware'
p603
S'MIPS Malta (64-bit)'
p604
sS'hardware-long'
p605
S'MIPS Malta boards (64-bit)'
p606
ss(S'description'
p607
g140
NS'armmp'
p608
tp609
(dp610
S'hardware'
p611
S'ARMv7 multiplatform compatible SoCs'
p612
sS'hardware-long'
p613
S'ARMv7 multiplatform kernel. See\nhttps://wiki.debian.org/DebianKernel/ARMMP for details of supported\nplatforms'
p614
ss(S'relations'
p615
g140
tp616
(dp617
S'headers%gcc-4.8'
p618
S'linux-compiler-gcc-4.8-arm'
p619
ss(g103
g447
g105
tp620
(dp621
g108
I01
sg109
(lp622
S's390x'
p623
ass(S'build'
p624
g43
tp625
(dp626
S'image-file'
p627
S'vmlinux'
p628
ss(g103
S's390x'
p629
g105
tp630
(dp631
g108
I01
sg109
(lp632
S's390x'
p633
ass(S'base'
p634
g329
tp635
(dp636
S'kernel-arch'
p637
S'alpha'
p638
sg351
(lp639
g105
ass(S'build'
p640
g14
tp641
(dp642
S'debug-info'
p643
I01
sS'image-file'
p644
S'arch/x86/boot/bzImage'
p645
ss(S'image'
p646
g27
NS'sb1-bcm91250a'
p647
tp648
(dp649
S'configs'
p650
(lp651
S'kernelarch-mips/config.sb1-bcm91250a'
p652
ass(S'build'
p653
g52
tp654
(dp655
S'image-file'
p656
S'arch/sparc/boot/zImage'
p657
ss(S'image'
p658
g27
tp659
(dp660
S'install-stem'
p661
S'vmlinux'
p662
ss(S'build'
p663
g279
tp664
(dp665
S'image-file'
p666
S'vmlinux'
p667
ss(S'description'
p668
g43
NS'r4k-ip22'
p669
tp670
(dp671
S'hardware'
p672
S'SGI IP22'
p673
sS'hardware-long'
p674
S'SGI IP22 systems (Indy, Indigo2)'
p675
ss(S'build'
p676
g27
tp677
(dp678
S'image-file'
p679
S'vmlinux'
p680
ss(S'base'
p681
g72
tp682
(dp683
S'kernel-arch'
p684
S'mips'
p685
sg351
(lp686
g105
ass(S'base'
p687
g14
tp688
(dp689
S'kernel-arch'
p690
S'x86'
p691
sS'featuresets'
p692
(lp693
S'none'
p694
aS'rt'
p695
ass(S'base'
p696
g135
tp697
(dp698
S'kernel-arch'
p699
S'ia64'
p700
sg351
(lp701
g105
asS'compiler'
p702
S'gcc-4.6'
p703
ss(S'base'
p704
g43
tp705
(dp706
S'kernel-arch'
p707
S'mips'
p708
sg351
(lp709
g105
ass(S'description'
p710
g147
NS'kirkwood'
p711
tp712
(dp713
S'hardware'
p714
S'Marvell Kirkwood'
p715
sS'hardware-long'
p716
S'Marvell Kirkwood based systems (SheevaPlug, QNAP TS-119/TS-219, etc)'
p717
ss(g103
g147
g105
tp718
(dp719
g108
I01
sg109
(lp720
S'ixp4xx'
p721
aS'kirkwood'
p722
aS'orion5x'
p723
aS'versatile'
p724
ass(S'image'
p725
g265
NS'sparc64-smp'
p726
tp727
(dp728
S'configs'
p729
(lp730
S'kernelarch-sparc/config-smp'
p731
ass(S'image'
p732
g60
NS'586'
p733
tp734
(dp735
S'configs'
p736
(lp737
S'kernelarch-x86/config-arch-32'
p738
aS'i386/config.586'
p739
ass(S'image'
p740
g27
NS'4kc-malta'
p741
tp742
(dp743
S'configs'
p744
(lp745
S'kernelarch-mips/config.4kc-malta'
p746
ass(S'description'
p747
g60
tp748
(dp749
S'part-long-pae'
p750
S'This kernel requires PAE (Physical Address Extension).\nThis feature is supported by the Intel Pentium Pro/II/III/4/4M/D, Xeon,\nCore and Atom; AMD Geode NX, Athlon (K7), Duron, Opteron, Sempron,\nTurion or Phenom; Transmeta Efficeon; VIA C7; and some other processors.'
p751
ss(S'build'
p752
g119
tp753
(dp754
S'image-file'
p755
S'vmlinux'
p756
ss(S'xen'
p757
g14
g36
S'amd64'
p758
tp759
(dp760
S'flavours'
p761
(lp762
S'amd64'
p763
ass(S'description'
p764
g72
NS'sb1-bcm91250a'
p765
tp766
(dp767
S'hardware'
p768
S'BCM91250A'
p769
sS'hardware-long'
p770
S'Broadcom BCM91250A systems (aka SWARM)'
p771
ss(S'image'
p772
g147
tp773
(dp774
S'suggests'
p775
S'fdutils'
p776
sS'configs'
p777
(lp778
S'kernelarch-arm/config'
p779
aS'armel/config'
p780
asS'install-stem'
p781
S'vmlinuz'
p782
ss(S'image'
p783
g447
tp784
(dp785
S'install-stem'
p786
S'vmlinuz'
p787
sS'configs'
p788
(lp789
sS'bootloaders'
p790
(lp791
S's390-tools'
p792
ass(S'description'
p793
g135
NS'itanium'
p794
tp795
(dp796
S'hardware'
p797
S'Itanium'
p798
ss(S'relations'
p799
g147
tp800
(dp801
S'headers%gcc-4.8'
p802
S'linux-compiler-gcc-4.8-arm'
p803
ss(S'image'
p804
g539
tp805
(dp806
S'suggests'
p807
S'palo'
p808
sS'install-stem'
p809
S'vmlinux'
p810
ss(g103
g72
g105
tp811
(dp812
g108
I01
sg109
(lp813
S'sb1-bcm91250a'
p814
aS'5kc-malta'
p815
aS'octeon'
p816
ass(S'relations'
p817
g539
tp818
(dp819
S'gcc-4.8'
p820
S'gcc-4.8, binutils-hppa64, gcc-4.8-hppa64'
p821
ss(S'image'
p822
g52
NS'sparc64'
p823
tp824
(dp825
S'configs'
p826
(lp827
S'kernelarch-sparc/config-up'
p828
ass(S'build'
p829
g60
NS'686-pae'
p830
tp831
(dp832
S'debug-info'
p833
I01
ss(S'description'
p834
g140
NS'armmp-lpae'
p835
tp836
(dp837
S'hardware'
p838
S'ARMv7 multiplatform compatible SoCs supporting LPAE'
p839
sS'hardware-long'
p840
S'ARMv7 multiplatform kernel supporting LPAE. See\nhttps://wiki.debian.org/DebianKernel/ARMMP for details of supported\nplatforms.'
p841
ss(S'description'
p842
g135
NS'mckinley'
p843
tp844
(dp845
S'hardware'
p846
S'Itanium II'
p847
ss(S'description'
p848
g279
NS'powerpc64'
p849
tp850
(dp851
S'hardware'
p852
S'64-bit PowerPC'
p853
ss(S'description'
p854
g60
NS'amd64'
p855
tp856
(dp857
S'hardware'
p858
S'64-bit PCs'
p859
sS'parts'
p860
(lp861
S'xen'
p862
asS'hardware-long'
p863
S'PCs with AMD64, Intel 64 or VIA Nano processors'
p864
ss(S'image'
p865
g279
NS'powerpc64'
p866
tp867
(dp868
S'configs'
p869
(lp870
S'kernelarch-powerpc/config-arch-64'
p871
aS'kernelarch-powerpc/config-arch-64-be'
p872
ass(S'image'
p873
g140
NS'armmp-lpae'
p874
tp875
(dp876
S'configs'
p877
(lp878
S'armhf/config.armmp'
p879
aS'armhf/config.lpae'
p880
ass(S'image'
p881
g119
NS'sb1-bcm91250a'
p882
tp883
(dp884
S'configs'
p885
(lp886
S'kernelarch-mips/config.sb1-bcm91250a'
p887
ass(g103
g539
g105
tp888
(dp889
g108
I01
sg109
(lp890
S'parisc'
p891
aS'parisc64-smp'
p892
ass(S'image'
p893
g329
tp894
(dp895
S'suggests'
p896
S'aboot, fdutils'
p897
sS'install-stem'
p898
S'vmlinuz'
p899
ss(S'description'
p900
g539
NS'parisc64-smp'
p901
tp902
(dp903
S'hardware'
p904
S'multiprocessor 64-bit PA-RISC'
p905
sS'hardware-long'
p906
S'HP PA-RISC 64-bit SMP systems with support for more than 4 GB RAM'
p907
ss(S'base'
p908
g265
tp909
(dp910
S'kernel-arch'
p911
S'sparc'
p912
sg351
(lp913
g105
ass(S'description'
p914
g60
NS'586'
p915
tp916
(dp917
S'hardware'
p918
S'older PCs'
p919
sS'parts'
p920
(lp921
S'up'
p922
asS'hardware-long'
p923
S'PCs with a single processor not supporting PAE'
p924
ss(S'image'
p925
g289
NS'arm64'
p926
tp927
(dp928
s(S'base'
p929
S'or1k'
p930
tp931
(dp932
S'kernel-arch'
p933
S'openrisc'
p934
sS'featuresets'
p935
(lp936
ss(S'base'
p937
g629
tp938
(dp939
S'kernel-arch'
p940
S's390'
p941
sg351
(lp942
g105
ass(S'base'
p943
g447
tp944
(dp945
S'kernel-arch'
p946
S's390'
p947
sg351
(lp948
g105
ass(S'description'
p949
g329
NS'alpha-smp'
p950
tp951
(dp952
S'hardware'
p953
S'Alpha SMP'
p954
sS'hardware-long'
p955
S'DEC Alpha SMP systems with extended kernel start address (Wildfire, Titan, Marvel)'
p956
ss(S'image'
p957
g72
NS'5kc-malta'
p958
tp959
(dp960
S'configs'
p961
(lp962
S'kernelarch-mips/config.5kc-malta'
p963
ass(S'image'
p964
g104
tp965
(dp966
S'suggests'
p967
S'mkvmlinuz'
p968
sS'configs'
p969
(lp970
sS'install-stem'
p971
S'vmlinux'
p972
ss(S'image'
p973
g43
tp974
(dp975
S'install-stem'
p976
S'vmlinux'
p977
ss(S'image'
p978
g60
tp979
(dp980
S'install-stem'
p981
S'vmlinuz'
p982
sS'configs'
p983
(lp984
sS'bootloaders'
p985
(lp986
S'grub-pc'
p987
aS'extlinux'
p988
ass(g103
g52
g105
tp989
(dp990
g108
I01
sg109
(lp991
S'sparc64'
p992
aS'sparc64-smp'
p993
ass(S'relations'
p994
g279
tp995
(dp996
S'gcc-4.8'
p997
S'gcc-4.8 (>= 4.8.2-21)'
p998
ss(g103
g329
g105
tp999
(dp1000
g108
I01
sg109
(lp1001
S'alpha-generic'
p1002
aS'alpha-smp'
p1003
aS'alpha-legacy'
p1004
ass(S'description'
p1005
g60
g313
S'686-pae'
p1006
tp1007
(dp1008
S'parts'
p1009
(lp1010
S'xen'
p1011
ass(g103
g135
g105
tp1012
(dp1013
g108
I01
sg109
(lp1014
S'itanium'
p1015
aS'mckinley'
p1016
ass(S'base'
p1017
g104
tp1018
(dp1019
S'kernel-arch'
p1020
S'powerpc'
p1021
sg351
(lp1022
g105
ass(S'build'
p1023
g629
tp1024
(dp1025
S'image-file'
p1026
S'arch/s390/boot/image'
p1027
ss(S'build'
p1028
g629
NS's390x'
p1029
tp1030
(dp1031
S'debug-info'
p1032
I01
ss(g103
g43
g105
tp1033
(dp1034
g108
I01
sg109
(lp1035
S'r4k-ip22'
p1036
aS'r5k-ip32'
p1037
aS'sb1-bcm91250a'
p1038
aS'4kc-malta'
p1039
aS'5kc-malta'
p1040
aS'octeon'
p1041
ass(S'base'
p1042
g539
tp1043
(dp1044
S'kernel-arch'
p1045
S'parisc'
p1046
sg351
(lp1047
g105
ass(S'build'
p1048
g329
tp1049
(dp1050
S'image-file'
p1051
S'arch/alpha/boot/vmlinux.gz'
p1052
ss(S'image'
p1053
g72
tp1054
(dp1055
S'install-stem'
p1056
S'vmlinux'
p1057
ss(S'image'
p1058
g629
NS's390x'
p1059
tp1060
(dp1061
S'configs'
p1062
(lp1063
S'kernelarch-s390/config-arch-64'
p1064
ass(S'image'
p1065
g5
NS'sh7785lcr'
p1066
tp1067
(dp1068
S'check-size'
p1069
S'4194304'
p1070
sS'recommends'
p1071
S'uboot-mkimage'
p1072
ss(S'image'
p1073
g52
NS'sparc32'
p1074
tp1075
(dp1076
S'image-postproc'
p1077
S'sparc32-image-postproc'
p1078
ss(S'image'
p1079
g60
NS'amd64'
p1080
tp1081
(dp1082
S'configs'
p1083
(lp1084
S'kernelarch-x86/config-arch-64'
p1085
asS'recommends'
p1086
S'libc6-i686'
p1087
ss(S'description'
p1088
g27
NS'4kc-malta'
p1089
tp1090
(dp1091
S'hardware'
p1092
S'MIPS Malta'
p1093
sS'hardware-long'
p1094
S'MIPS Malta boards'
p1095
ss(S'base'
p1096
S'x32'
p1097
tp1098
(dp1099
S'kernel-arch'
p1100
S'x86'
p1101
sS'featuresets'
p1102
(lp1103
ss(S'description'
p1104
g447
NS's390x'
p1105
tp1106
(dp1107
S'hardware'
p1108
S'IBM zSeries'
p1109
ss(S'image'
p1110
g500
tp1111
(dp1112
S'suggests'
p1113
S'vmelilo, fdutils'
p1114
sS'install-stem'
p1115
S'vmlinuz'
p1116
ss(S'description'
p1117
g147
NS'orion5x'
p1118
tp1119
(dp1120
S'hardware'
p1121
S'Marvell Orion'
p1122
sS'hardware-long'
p1123
S'Marvell Orion 5181, 5182 and 5281 based systems (QNAP TS-109/TS-209, etc)'
p1124
ss(S'base'
p1125
g289
S'none'
p1126
tp1127
(dp1128
S'flavours'
p1129
(lp1130
S'arm64'
p1131
ass(S'description'
p1132
g279
NS'powerpc'
p1133
tp1134
(dp1135
S'hardware'
p1136
S'uniprocessor 32-bit PowerPC'
p1137
ss(S'build'
p1138
g140
tp1139
(dp1140
S'image-file'
p1141
S'arch/arm/boot/zImage'
p1142
ss(S'image'
p1143
g119
NS'loongson-3'
p1144
tp1145
(dp1146
S'configs'
p1147
(lp1148
S'kernelarch-mips/config.loongson-3'
p1149
ass(S'description'
p1150
NS'rt'
p1151
tp1152
(dp1153
S'part-long-rt'
p1154
S'This kernel includes the PREEMPT_RT realtime patch set.'
p1155
sS'parts'
p1156
(lp1157
S'rt'
p1158
asS'part-short-rt'
p1159
S'PREEMPT_RT'
p1160
ss(S'description'
p1161
g27
NS'loongson-3'
p1162
tp1163
(dp1164
S'hardware'
p1165
S'Loongson 3A/3B'
p1166
sS'hardware-long'
p1167
S'Loongson 3A or 3B based systems (e.g. from Loongson or Lemote)'
p1168
ss(S'base'
p1169
g140
tp1170
(dp1171
S'kernel-arch'
p1172
S'arm'
p1173
sg351
(lp1174
g105
ass(S'image'
p1175
g27
NS'loongson-3'
p1176
tp1177
(dp1178
S'configs'
p1179
(lp1180
S'kernelarch-mips/config.loongson-3'
p1181
ass(S'image'
p1182
g5
tp1183
(dp1184
S'suggests'
p1185
S'fdutils'
p1186
sS'install-stem'
p1187
S'vmlinuz'
p1188
ss(S'abi'
p1189
g147
NS'kirkwood'
p1190
tp1191
(dp1192
S'ignore-changes'
p1193
(lp1194
S'zs_create_pool'
p1195
aS'zs_destroy_pool'
p1196
aS'zs_free'
p1197
aS'zs_get_total_size_bytes'
p1198
aS'zs_malloc'
p1199
aS'zs_map_object'
p1200
aS'zs_unmap_object'
p1201
aS'fips_enabled'
p1202
aS'dcookie_register'
p1203
aS'dcookie_unregister'
p1204
aS'get_dcookie'
p1205
aS'prof_on'
p1206
aS'profile_event_register'
p1207
aS'profile_event_unregister'
p1208
aS'profile_hits'
p1209
aS'ring_buffer_swap_cpu'
p1210
aS'task_handoff_register'
p1211
aS'task_handoff_unregister'
p1212
aS'disable_kprobe'
p1213
aS'enable_kprobe'
p1214
aS'jprobe_return'
p1215
aS'profile_hits'
p1216
aS'register_jprobe'
p1217
aS'register_jprobes'
p1218
aS'register_kprobe'
p1219
aS'register_kprobes'
p1220
aS'register_kretprobe'
p1221
aS'register_kretprobes'
p1222
aS'unregister_jprobe'
p1223
aS'unregister_jprobes'
p1224
aS'unregister_kprobe'
p1225
aS'unregister_kprobes'
p1226
aS'unregister_kretprobe'
p1227
aS'unregister_kretprobes'
p1228
ass(S'description'
p1229
g43
NS'5kc-malta'
p1230
tp1231
(dp1232
S'hardware'
p1233
S'MIPS Malta (64-bit)'
p1234
sS'hardware-long'
p1235
S'MIPS Malta boards (64-bit)'
p1236
ss(S'base'
p1237
g5
tp1238
(dp1239
S'kernel-arch'
p1240
S'sh'
p1241
sg351
(lp1242
g105
ass(S'image'
p1243
g52
tp1244
(dp1245
S'suggests'
p1246
S'silo, fdutils'
p1247
sS'configs'
p1248
(lp1249
sS'install-stem'
p1250
S'vmlinuz'
p1251
ss(S'description'
p1252
g14
NS'amd64'
p1253
tp1254
(dp1255
S'hardware'
p1256
S'64-bit PCs'
p1257
sS'hardware-long'
p1258
S'PCs with AMD64, Intel 64 or VIA Nano processors'
p1259
ss(S'description'
p1260
tp1261
(dp1262
S'part-long-up'
p1263
S'This kernel is not suitable for SMP (multi-processor,\nmulti-core or hyper-threaded) systems.'
p1264
sS'part-long-xen'
p1265
S'This kernel also runs on a Xen hypervisor.\nIt supports both privileged (dom0) and unprivileged (domU) operation.'
p1266
ss(S'build'
p1267
g265
tp1268
(dp1269
S'image-file'
p1270
S'arch/sparc/boot/zImage'
p1271
ss(S'image'
p1272
g147
NS'kirkwood'
p1273
tp1274
(dp1275
S'check-size'
p1276
S'2097080'
p1277
sS'recommends'
p1278
S'uboot-mkimage'
p1279
ss(S'image'
p1280
g104
NS'powerpc64'
p1281
tp1282
(dp1283
S'configs'
p1284
(lp1285
S'kernelarch-powerpc/config-arch-64'
p1286
aS'kernelarch-powerpc/config-arch-64-be'
p1287
ass(S'description'
p1288
g500
NS'm68k'
p1289
tp1290
(dp1291
S'hardware'
p1292
S'Motorola MC68020+ family'
p1293
ss(S'image'
p1294
g119
tp1295
(dp1296
S'install-stem'
p1297
S'vmlinux'
p1298
ss(S'abi'
p1299
Ng1151
tp1300
(dp1301
S'ignore-changes'
p1302
(lp1303
S'*'
p1304
ass(S'image'
p1305
g119
NS'5kc-malta'
p1306
tp1307
(dp1308
S'configs'
p1309
(lp1310
S'kernelarch-mips/config.5kc-malta'
p1311
ass(S'image'
p1312
g265
tp1313
(dp1314
S'suggests'
p1315
S'silo, fdutils'
p1316
sS'configs'
p1317
(lp1318
sS'install-stem'
p1319
S'vmlinuz'
p1320
ss(S'relations'
p1321
g629
tp1322
(dp1323
S'headers%gcc-4.8'
p1324
S'linux-compiler-gcc-4.8-s390'
p1325
ss(S'description'
p1326
g629
NS's390x'
p1327
tp1328
(dp1329
S'hardware'
p1330
S'IBM zSeries'
p1331
ss(S'base'
p1332
g279
tp1333
(dp1334
S'kernel-arch'
p1335
S'powerpc'
p1336
sg351
(lp1337
g105
ass(S'description'
p1338
g279
NS'powerpc-smp'
p1339
tp1340
(dp1341
S'hardware'
p1342
S'multiprocessor 32-bit PowerPC'
p1343
ss(S'base'
p1344
g539
NS'parisc64-smp'
p1345
tp1346
(dp1347
S'override-host-type'
p1348
S'hppa64-linux-gnu'
p1349
sS'cflags'
p1350
S'-fno-cse-follow-jumps'
p1351
ss(S'image'
p1352
g27
NS'loongson-2e'
p1353
tp1354
(dp1355
S'configs'
p1356
(lp1357
S'kernelarch-mips/config.loongson-2e'
p1358
ass(S'build'
p1359
g447
NS's390x'
p1360
tp1361
(dp1362
S'debug-info'
p1363
I01
ss(S'image'
p1364
g43
NS'octeon'
p1365
tp1366
(dp1367
S'configs'
p1368
(lp1369
S'kernelarch-mips/config.octeon'
p1370
ass(S'description'
p1371
g5
NS'sh7751r'
p1372
tp1373
(dp1374
S'hardware'
p1375
S'sh7751r'
p1376
sS'hardware-long'
p1377
S'Renesas SH7751R R2D plus board'
p1378
ss(S'build'
p1379
g447
tp1380
(dp1381
S'image-file'
p1382
S'arch/s390/boot/image'
p1383
ss(S'image'
p1384
g479
tp1385
(dp1386
S'suggests'
p1387
S'mkvmlinuz'
p1388
sS'install-stem'
p1389
S'vmlinux'
p1390
ss(S'description'
p1391
g43
NS'sb1-bcm91250a'
p1392
tp1393
(dp1394
S'hardware'
p1395
S'BCM91250A'
p1396
sS'hardware-long'
p1397
S'Broadcom BCM91250A systems (aka SWARM)'
p1398
ss(S'image'
p1399
g140
tp1400
(dp1401
S'suggests'
p1402
S'fdutils'
p1403
sS'configs'
p1404
(lp1405
S'kernelarch-arm/config'
p1406
aS'armhf/config'
p1407
asS'install-stem'
p1408
S'vmlinuz'
p1409
ss(S'abi'
p1410
tp1411
(dp1412
S'abiname'
p1413
S'4'
p1414
sS'ignore-changes'
p1415
(lp1416
S'module:arch/x86/kvm/kvm'
p1417
aS'module:drivers/mtd/spi-nor/spi-nor'
p1418
aS'module:drivers/net/wireless/iwlwifi/iwlwifi'
p1419
aS'__add_pages'
p1420
aS'__remove_pages'
p1421
aS'of_device_is_stdout_path'
p1422
aS'module:sound/soc/*'
p1423
aS'clk_divider_ro_ops'
p1424
aS'tick_nohz_idle_enter'
p1425
aS'tick_nohz_idle_exit'
p1426
ass(S'relations'
p1427
g104
tp1428
(dp1429
S'gcc-4.8'
p1430
S'gcc-4.8 (>= 4.8.2-21)'
p1431
ss(S'image'
p1432
g265
NS'sparc64'
p1433
tp1434
(dp1435
S'configs'
p1436
(lp1437
S'kernelarch-sparc/config-up'
p1438
ass(g103
g479
g105
tp1439
(dp1440
g108
I01
sg109
(lp1441
S'powerpcspe'
p1442
ass(g103
g500
g105
tp1443
(dp1444
g108
I01
sg109
(lp1445
S'm68k'
p1446
ass(S'base'
p1447
g60
g313
tp1448
(dp1449
S'flavours'
p1450
(lp1451
S'586'
p1452
aS'686-pae'
p1453
aS'amd64'
p1454
ass(S'base'
p1455
tp1456
(dp1457
S'arches'
p1458
(lp1459
S'alpha'
p1460
aS'amd64'
p1461
aS'arm64'
p1462
aS'armel'
p1463
aS'armhf'
p1464
aS'hppa'
p1465
aS'i386'
p1466
aS'ia64'
p1467
aS'm68k'
p1468
aS'mips'
p1469
aS'mipsel'
p1470
aS'mips64'
p1471
aS'mips64el'
p1472
aS'or1k'
p1473
aS'powerpc'
p1474
aS'powerpcspe'
p1475
aS'ppc64'
p1476
aS'ppc64el'
p1477
aS's390'
p1478
aS's390x'
p1479
aS'sh4'
p1480
aS'sparc'
p1481
aS'sparc64'
p1482
aS'x32'
p1483
asS'featuresets'
p1484
(lp1485
S'none'
p1486
aS'rt'
p1487
asS'compiler'
p1488
S'gcc-4.8'
p1489
ss(S'description'
p1490
g119
NS'octeon'
p1491
tp1492
(dp1493
S'hardware'
p1494
S'Octeon'
p1495
sS'hardware-long'
p1496
S'Cavium Networks Octeon'
p1497
ss(S'image'
p1498
g43
NS'r4k-ip22'
p1499
tp1500
(dp1501
S'configs'
p1502
(lp1503
S'kernelarch-mips/config.r4k-ip22'
p1504
ass(S'build'
p1505
g147
tp1506
(dp1507
S'image-file'
p1508
S'arch/arm/boot/zImage'
p1509
ss(g103
g279
g105
tp1510
(dp1511
g108
I01
sg109
(lp1512
S'powerpc'
p1513
aS'powerpc-smp'
p1514
aS'powerpc64'
p1515
ass(S'description'
p1516
g52
NS'sparc64'
p1517
tp1518
(dp1519
S'hardware'
p1520
S'uniprocessor 64-bit UltraSPARC'
p1521
ss(S'base'
p1522
g175
tp1523
(dp1524
S'kernel-arch'
p1525
S'powerpc'
p1526
sg351
(lp1527
g105
ass(S'base'
p1528
g119
tp1529
(dp1530
S'kernel-arch'
p1531
S'mips'
p1532
sg351
(lp1533
g105
ass(S'image'
p1534
g147
NS'ixp4xx'
p1535
tp1536
(dp1537
S'check-size'
p1538
S'1441760'
p1539
sS'configs'
p1540
(lp1541
S'armel/config-reduced'
p1542
aS'armel/config.ixp4xx'
p1543
ass(S'base'
p1544
g500
tp1545
(dp1546
S'kernel-arch'
p1547
S'm68k'
p1548
sg351
(lp1549
g105
asS'cflags'
p1550
S'-ffreestanding'
p1551
sS'compiler'
p1552
S'gcc-4.8'
p1553
ss(S'image'
p1554
tp1555
(dp1556
S'initramfs-generators'
p1557
(lp1558
S'initramfs-tools'
p1559
aS'initramfs-fallback'
p1560
asS'type'
p1561
S'plain'
p1562
ss(S'description'
p1563
g27
NS'loongson-2e'
p1564
tp1565
(dp1566
S'hardware'
p1567
S'Loongson 2E'
p1568
sS'hardware-long'
p1569
S'Lemote Loongson 2E systems'
p1570
ss(S'description'
p1571
g43
NS'octeon'
p1572
tp1573
(dp1574
S'hardware'
p1575
S'Octeon'
p1576
sS'hardware-long'
p1577
S'Cavium Networks Octeon'
p1578
ss(S'base'
p1579
g479
tp1580
(dp1581
S'kernel-arch'
p1582
S'powerpc'
p1583
sg351
(lp1584
g105
ass(g103
g265
g105
tp1585
(dp1586
g108
I01
sg109
(lp1587
S'sparc64'
p1588
aS'sparc64-smp'
p1589
ass(S'image'
p1590
g14
NS'amd64'
p1591
tp1592
(dp1593
S'configs'
p1594
(lp1595
S'kernelarch-x86/config-arch-64'
p1596
ass(S'image'
p1597
g72
NS'sb1-bcm91250a'
p1598
tp1599
(dp1600
S'configs'
p1601
(lp1602
S'kernelarch-mips/config.sb1-bcm91250a'
p1603
ass(S'description'
p1604
g147
NS'ixp4xx'
p1605
tp1606
(dp1607
S'hardware'
p1608
S'IXP4xx'
p1609
sS'hardware-long'
p1610
S'IXP4xx based systems (Linksys NSLU2, etc)'
p1611
ss(S'description'
p1612
g265
NS'sparc64-smp'
p1613
tp1614
(dp1615
S'hardware'
p1616
S'multiprocessor 64-bit UltraSPARC'
p1617
ss(S'image'
p1618
g43
NS'4kc-malta'
p1619
tp1620
(dp1621
S'configs'
p1622
(lp1623
S'kernelarch-mips/config.4kc-malta'
p1624
ass(S'description'
p1625
g52
NS'sparc64-smp'
p1626
tp1627
(dp1628
S'hardware'
p1629
S'multiprocessor 64-bit UltraSPARC'
p1630
ss(S'image'
p1631
g43
NS'5kc-malta'
p1632
tp1633
(dp1634
S'configs'
p1635
(lp1636
S'kernelarch-mips/config.5kc-malta'
p1637
ass(S'build'
p1638
g5
tp1639
(dp1640
S'image-file'
p1641
S'arch/sh/boot/zImage'
p1642
ss(S'description'
p1643
g539
NS'parisc'
p1644
tp1645
(dp1646
S'hardware'
p1647
S'32-bit PA-RISC'
p1648
sS'hardware-long'
p1649
S'HP PA-RISC 32-bit systems with max 4 GB RAM'
p1650
ss(S'image'
p1651
g629
tp1652
(dp1653
S'install-stem'
p1654
S'vmlinuz'
p1655
sS'configs'
p1656
(lp1657
sS'bootloaders'
p1658
(lp1659
S's390-tools'
p1660
ass(S'description'
p1661
g27
NS'loongson-2f'
p1662
tp1663
(dp1664
S'hardware'
p1665
S'Loongson 2F'
p1666
sS'hardware-long'
p1667
S'Lemote Loongson 2F systems'
p1668
ss(S'image'
p1669
g289
tp1670
(dp1671
S'install-stem'
p1672
S'vmlinuz'
p1673
ss(S'description'
p1674
g329
NS'alpha-legacy'
p1675
tp1676
(dp1677
S'hardware'
p1678
S'Alpha Legacy'
p1679
sS'hardware-long'
p1680
S'DEC Alpha systems with legacy kernel start address'
p1681
ss(S'description'
p1682
g175
NS'powerpc64le'
p1683
tp1684
(dp1685
S'hardware'
p1686
S'Little-endian 64-bit PowerPC'
p1687
ss(S'image'
p1688
g43
NS'sb1-bcm91250a'
p1689
tp1690
(dp1691
S'configs'
p1692
(lp1693
S'kernelarch-mips/config.sb1-bcm91250a'
p1694
ass(S'build'
p1695
g60
tp1696
(dp1697
S'image-file'
p1698
S'arch/x86/boot/bzImage'
p1699
ss(g103
g175
g105
tp1700
(dp1701
g108
I01
sg109
(lp1702
S'powerpc64le'
p1703
asstp1704
Rp1705
.