cdebian_linux.config
ConfigCore
p0
(tRp1
(Vbase
p2
tp3
(dp4
Varches
p5
(lp6
Valpha
p7
aVamd64
p8
aVarm64
p9
aVarmel
p10
aVarmhf
p11
aVhppa
p12
aVi386
p13
aVm68k
p14
aVmips
p15
aVmipsel
p16
aVmipsn32
p17
aVmipsn32el
p18
aVmips64
p19
aVmips64el
p20
aVpowerpc
p21
aVpowerpcspe
p22
aVppc64
p23
aVppc64el
p24
aVs390
p25
aVs390x
p26
aVsh3
p27
aVsh4
p28
aVsparc
p29
aVsparc64
p30
aVtilegx
p31
aVx32
p32
asVfeaturesets
p33
(lp34
Vnone
p35
aVrt
p36
asVcompiler
p37
Vgcc-4.9
p38
ss(Vbuild
p39
tp40
(dp41
Vdebug-info
p42
I01
ss(Vbase
p43
NVrt
p44
tp45
(dp46
Venabled
p47
I01
ss(Vdescription
p48
tp49
(dp50
Vpart-long-up
p51
VThis kernel is not suitable for SMP (multi-processor,\u000amulti-core or hyper-threaded) systems.
p52
sVpart-long-xen
p53
VThis kernel also runs on a Xen hypervisor.\u000aIt supports both privileged (dom0) and unprivileged (domU) operation.
p54
ss(Vrelations
p55
tp56
(dp57
Vgcc-4.9
p58
Vgcc-4.9 <!stage1 !cross>, gcc-6-@gnu-type-package@:native <!stage1 cross>
p59
sVinitramfs-tools
p60
Vinitramfs-tools (>= 0.120+deb8u2)
p61
sVinitramfs-fallback
p62
Vlinux-initramfs-tool
p63
ss(Vimage
p64
tp65
(dp66
Vinitramfs-generators
p67
(lp68
Vinitramfs-tools
p69
aVinitramfs-fallback
p70
ass(Vabi
p71
tp72
(dp73
Vabiname
p74
V3
p75
sVignore-changes
p76
(lp77
V__cpuhp_*
p78
aVbpf_analyzer
p79
aVcxl_*
p80
aVmm_iommu_*
p81
aVregister_cxl_calls
p82
aVunregister_cxl_calls
p83
aVmodule:arch/x86/kvm/*
p84
aVmodule:drivers/crypto/ccp/*
p85
aVmodule:drivers/hv/*
p86
aVmodule:drivers/iio/common/hid-sensors/*
p87
aVmodule:drivers/iio/common/st_sensors/**
p88
aVmodule:drivers/net/wireless/**
p89
aVmodule:drivers/nvdimm/*
p90
aVmodule:drivers/power/supply/bq27xxx_battery
p91
aVmodule:drivers/scsi/cxgbi/*
p92
aVmodule:drivers/scsi/libiscs*
p93
aVmodule:drivers/scsi/qla2xxx/qla2xxx
p94
aVmodule:drivers/scsi/ufs/*
p95
aVmodule:drivers/target/**
p96
aVmodule:drivers/usb/chipidea/**
p97
aVmodule:drivers/usb/host/**
p98
aVmodule:drivers/usb/musb/**
p99
aVmodule:net/ceph/libceph
p100
aVmodule:net/l2tp/l2tp_core
p101
aVmodule:sound/firewire/snd-firewire-lib
p102
aVbtree_*
p103
aVvisitor*
p104
aVcan_rx_register
p105
aVip6_xmit
p106
aVmodule:net/dccp/dccp
p107
aVmodule:net/rds/rds
p108
aVdevfreq_*
p109
aVdevm_devfreq_*
p110
aVupdate_devfreq
p111
aVmodule:drivers/infiniband/**
p112
aVacpi_ec_add_query_handler
p113
aVacpi_ec_remove_query_handler
p114
aVfirst_ec
p115
aVdebugfs_create_automount
p116
ass(Vbase
p117
Valpha
p118
tp119
(dp120
Vfeaturesets
p121
(lp122
Vnone
p123
asVkernel-arch
p124
Valpha
p125
ss(Vdescription
p126
g118
NValpha-smp
p127
tp128
(dp129
Vhardware
p130
VAlpha SMP
p131
sVhardware-long
p132
VDEC Alpha SMP systems with extended kernel start address (Wildfire, Titan, Marvel)
p133
ss(Vbuild
p134
g118
tp135
(dp136
Vsigned-modules
p137
I00
sVimage-file
p138
Varch/alpha/boot/vmlinux.gz
p139
ss(Vdescription
p140
g118
NValpha-generic
p141
tp142
(dp143
Vhardware
p144
VAlpha
p145
sVhardware-long
p146
VDEC Alpha systems with extended kernel start address (Wildfire, Titan, Marvel)
p147
ss(Vimage
p148
g118
tp149
(dp150
Vsuggests
p151
Vaboot, fdutils
p152
sVinstall-stem
p153
Vvmlinuz
p154
ss(Vbase
p155
g118
g123
tp156
(dp157
Vflavours
p158
(lp159
Valpha-generic
p160
aValpha-smp
p161
asVimplicit-flavour
p162
I01
ss(Vbase
p163
Vamd64
p164
tp165
(dp166
Vfeaturesets
p167
(lp168
Vnone
p169
aVrt
p170
asVkernel-arch
p171
Vx86
p172
ss(Vdescription
p173
g164
NVamd64
p174
tp175
(dp176
Vhardware
p177
V64-bit PCs
p178
sVhardware-long
p179
VPCs with AMD64, Intel 64 or VIA Nano processors
p180
ss(Vbuild
p181
g164
tp182
(dp183
Vvdso
p184
I01
sVimage-file
p185
Varch/x86/boot/bzImage
p186
sVdebug-info
p187
I01
ss(Vrelations
p188
g164
tp189
(dp190
Vheaders%gcc-6
p191
Vlinux-compiler-gcc-6-x86
p192
ss(Vimage
p193
g164
tp194
(dp195
Vbreaks
p196
Vxserver-xorg-input-vmmouse (<< 1:13.0.99)
p197
sVinstall-stem
p198
Vvmlinuz
p199
sVbootloaders
p200
(lp201
Vgrub-pc
p202
aVgrub-efi-amd64
p203
aVextlinux
p204
ass(Vbase
p205
g164
Vnone
p206
tp207
(dp208
Vflavours
p209
(lp210
Vamd64
p211
ass(Vdescription
p212
g164
g206
Vamd64
p213
tp214
(dp215
Vparts
p216
(lp217
Vxen
p218
ass(Vbase
p219
g164
Vrt
p220
tp221
(dp222
Vflavours
p223
(lp224
Vamd64
p225
ass(Vbase
p226
Varm64
p227
tp228
(dp229
Vfeaturesets
p230
(lp231
Vnone
p232
asVkernel-arch
p233
Varm64
p234
ss(Vdescription
p235
g227
NVarm64
p236
tp237
(dp238
Vhardware
p239
V64-bit ARMv8 machines
p240
ss(Vbuild
p241
g227
tp242
(dp243
Vvdso
p244
I01
sVimage-file
p245
Varch/arm64/boot/Image
p246
sVdebug-info
p247
I01
ss(Vimage
p248
g227
NVarm64
p249
tp250
(dp251
s(Vimage
p252
g227
tp253
(dp254
Vbreaks
p255
Vlibmozjs185-1.0, libmozjs-24-0 (<< 24.2.0-5.1~)
p256
sVinstall-stem
p257
Vvmlinuz
p258
ss(Vbase
p259
g227
Vnone
p260
tp261
(dp262
Vflavours
p263
(lp264
Varm64
p265
ass(Vbase
p266
Varmel
p267
tp268
(dp269
g121
(lp270
g123
asVkernel-arch
p271
Varm
p272
ss(Vbuild
p273
g267
tp274
(dp275
Vsigned-modules
p276
I00
sVimage-file
p277
Varch/arm/boot/zImage
p278
ss(Vimage
p279
g267
NVmarvell
p280
tp281
(dp282
Vrecommends
p283
Vu-boot-tools
p284
sVbreaks
p285
Vflash-kernel (<< 3.57~)
p286
sVcheck-size-with-dtb
p287
I01
sVcheck-size
p288
L2097080L
ss(Vdescription
p289
g267
NVmarvell
p290
tp291
(dp292
Vhardware
p293
VMarvell Kirkwood/Orion
p294
sVhardware-long
p295
VMarvell Kirkwood based systems (SheevaPlug, QNAP TS-119/TS-219, etc)\u000aand Orion 5181, 5182 and 5281 based systems (QNAP TS-109/TS-209, etc)
p296
ss(Vrelations
p297
g267
tp298
(dp299
Vheaders%gcc-6
p300
Vlinux-compiler-gcc-6-arm
p301
ss(Vimage
p302
g267
tp303
(dp304
Vinstall-stem
p305
Vvmlinuz
p306
ss(g155
g267
g123
tp307
(dp308
g158
(lp309
Vmarvell
p310
asg162
I01
ss(Vdescription
p311
Varmhf
p312
NVarmmp
p313
tp314
(dp315
Vhardware
p316
VARMv7 multiplatform compatible SoCs
p317
sVhardware-long
p318
VARMv7 multiplatform kernel. See\u000ahttps://wiki.debian.org/DebianKernel/ARMMP for details of supported\u000aplatforms
p319
ss(Vdescription
p320
g312
NVrpi
p321
tp322
(dp323
Vhardware
p324
VRaspberryPI
p325
sVhardware-long
p326
VRaspberry PI
p327
ss(Vdescription
p328
g312
NVarmmp-lpae
p329
tp330
(dp331
Vhardware
p332
VARMv7 multiplatform compatible SoCs supporting LPAE
p333
sVhardware-long
p334
VARMv7 multiplatform kernel supporting LPAE. See\u000ahttps://wiki.debian.org/DebianKernel/ARMMP for details of supported\u000aplatforms.
p335
ss(Vbuild
p336
g312
NVrpi
p337
tp338
(dp339
Vimage-file
p340
Varch/arm/boot/zImagerpdt
p341
ss(Vrelations
p342
g312
tp343
(dp344
Vheaders%gcc-4.9
p345
Vlinux-compiler-gcc-4.9-arm
p346
ss(Vimage
p347
g312
tp348
(dp349
Vinstall-stem
p350
Vvmlinuz
p351
ss(Vbase
p352
g312
tp353
(dp354
g121
(lp355
g123
asVkernel-arch
p356
Varm
p357
ss(Vbuild
p358
g312
tp359
(dp360
Vvdso
p361
I01
sVimage-file
p362
Varch/arm/boot/zImage
p363
ss(Vbuild
p364
g312
NVrpi2
p365
tp366
(dp367
Vimage-file
p368
Varch/arm/boot/zImagerpdt
p369
ss(Vimage
p370
g312
NVrpi2
p371
tp372
(dp373
Vconfigs
p374
(lp375
Varmhf/config.rpix
p376
aVarmhf/config.rpi2
p377
ass(Vimage
p378
g312
NVrpi
p379
tp380
(dp381
Vconfigs
p382
(lp383
Varmhf/config.rpix
p384
aVarmhf/config.rpi
p385
ass(Vdescription
p386
g312
NVrpi2
p387
tp388
(dp389
Vhardware
p390
VRaspberryPI2
p391
sVhardware-long
p392
VRaspberry PI 2
p393
ss(g155
g312
g123
tp394
(dp395
g158
(lp396
Vrpi
p397
aVrpi2
p398
asg162
I01
ss(Vbase
p399
Vhppa
p400
tp401
(dp402
g121
(lp403
g123
asVkernel-arch
p404
Vparisc
p405
ss(Vbuild
p406
g400
tp407
(dp408
Vsigned-modules
p409
I00
sVimage-file
p410
Vvmlinux
p411
ss(Vdescription
p412
g400
NVparisc64-smp
p413
tp414
(dp415
Vhardware
p416
Vmultiprocessor 64-bit PA-RISC
p417
sVhardware-long
p418
VHP PA-RISC 64-bit SMP systems with support for more than 4 GB RAM
p419
ss(Vbase
p420
g400
NVparisc64-smp
p421
tp422
(dp423
Vcflags
p424
V-fno-cse-follow-jumps
p425
sVoverride-host-type
p426
Vhppa64-linux-gnu
p427
ss(Vrelations
p428
g400
tp429
(dp430
Vgcc-6
p431
Vgcc-6 <!stage1 !cross>, binutils-hppa64-linux-gnu <!stage1 !cross>, gcc-6-hppa64-linux-gnu <!stage1 !cross>, gcc-6-hppa-linux-gnu <!stage1 cross>, binutils-hppa64-linux-gnu <!stage1 cross>, gcc-6-hppa64-linux-gnu <!stage1 cross>
p432
ss(Vdescription
p433
g400
NVparisc
p434
tp435
(dp436
Vhardware
p437
V32-bit PA-RISC
p438
sVhardware-long
p439
VHP PA-RISC 32-bit systems with max 4 GB RAM
p440
ss(Vimage
p441
g400
tp442
(dp443
Vsuggests
p444
Vpalo
p445
sVinstall-stem
p446
Vvmlinux
p447
ss(g155
g400
g123
tp448
(dp449
g158
(lp450
Vparisc
p451
aVparisc64-smp
p452
asg162
I01
ss(Vbase
p453
Vi386
p454
tp455
(dp456
Vfeaturesets
p457
(lp458
Vnone
p459
aVrt
p460
asVkernel-arch
p461
Vx86
p462
ss(Vbuild
p463
g454
tp464
(dp465
Vvdso
p466
I01
sVimage-file
p467
Varch/x86/boot/bzImage
p468
ss(Vdescription
p469
g454
NV686-pae
p470
tp471
(dp472
Vhardware
p473
Vmodern PCs
p474
sVhardware-long
p475
VPCs with one or more processors supporting PAE
p476
sVparts
p477
(lp478
Vpae
p479
ass(Vdescription
p480
g454
tp481
(dp482
Vpart-long-pae
p483
VThis kernel requires PAE (Physical Address Extension).\u000aThis feature is supported by the Intel Pentium Pro/II/III/4/4M/D, Xeon,\u000aCore and Atom; AMD Geode NX, Athlon (K7), Duron, Opteron, Sempron,\u000aTurion or Phenom; Transmeta Efficeon; VIA C7; and some other processors.
p484
ss(Vbuild
p485
g454
NV686-pae
p486
tp487
(dp488
Vdebug-info
p489
I01
ss(Vdescription
p490
g454
NV686
p491
tp492
(dp493
Vhardware
p494
Volder PCs
p495
sVhardware-long
p496
VPCs with one or more processors not supporting PAE
p497
ss(Vrelations
p498
g454
tp499
(dp500
Vheaders%gcc-6
p501
Vlinux-compiler-gcc-6-x86
p502
ss(Vimage
p503
g454
tp504
(dp505
Vbreaks
p506
Vxserver-xorg-input-vmmouse (<< 1:13.0.99)
p507
sVinstall-stem
p508
Vvmlinuz
p509
sVbootloaders
p510
(lp511
Vgrub-pc
p512
aVextlinux
p513
ass(Vbase
p514
g454
Vnone
p515
tp516
(dp517
Vflavours
p518
(lp519
V686
p520
aV686-pae
p521
ass(Vdescription
p522
g454
g515
V686-pae
p523
tp524
(dp525
Vparts
p526
(lp527
Vxen
p528
ass(Vbase
p529
g454
Vrt
p530
tp531
(dp532
Vflavours
p533
(lp534
V686-pae
p535
ass(Vbase
p536
Vm68k
p537
tp538
(dp539
Vcflags
p540
V-ffreestanding
p541
sg121
(lp542
g123
asVkernel-arch
p543
Vm68k
p544
ss(Vbuild
p545
g537
tp546
(dp547
Vsigned-modules
p548
I00
sVimage-file
p549
Vvmlinux.gz
p550
ss(Vdescription
p551
g537
NVm68k
p552
tp553
(dp554
Vhardware
p555
VMotorola MC68020+ family
p556
ss(Vimage
p557
g537
tp558
(dp559
Vsuggests
p560
Vvmelilo, fdutils
p561
sVinstall-stem
p562
Vvmlinuz
p563
ss(g155
g537
g123
tp564
(dp565
g158
(lp566
Vm68k
p567
asg162
I01
ss(Vbase
p568
Vmips
p569
tp570
(dp571
g121
(lp572
g123
asVkernel-arch
p573
Vmips
p574
ss(Vbuild
p575
g569
tp576
(dp577
Vsigned-modules
p578
I00
sVimage-file
p579
Vvmlinux
p580
ss(Vimage
p581
g569
NV4kc-malta
p582
tp583
(dp584
Vconfigs
p585
(lp586
Vkernelarch-mips/config.malta
p587
aVkernelarch-mips/config.mips32r2
p588
ass(Vimage
p589
g569
NV5kc-malta
p590
tp591
(dp592
Vconfigs
p593
(lp594
Vkernelarch-mips/config.malta
p595
aVkernelarch-mips/config.mips64r2
p596
ass(Vdescription
p597
g569
NVocteon
p598
tp599
(dp600
Vhardware
p601
VOcteon
p602
sVhardware-long
p603
VCavium Networks Octeon
p604
ss(Vimage
p605
g569
NVocteon
p606
tp607
(dp608
Vconfigs
p609
(lp610
Vkernelarch-mips/config.octeon
p611
ass(Vimage
p612
g569
tp613
(dp614
Vinstall-stem
p615
Vvmlinux
p616
ss(Vdescription
p617
g569
NV5kc-malta
p618
tp619
(dp620
Vhardware
p621
VMIPS Malta (64-bit)
p622
sVhardware-long
p623
VMIPS Malta boards (64-bit)
p624
ss(Vdescription
p625
g569
NV4kc-malta
p626
tp627
(dp628
Vhardware
p629
VMIPS Malta
p630
sVhardware-long
p631
VMIPS Malta boards
p632
ss(g155
g569
g123
tp633
(dp634
g158
(lp635
V4kc-malta
p636
aV5kc-malta
p637
aVocteon
p638
asg162
I01
ss(Vbase
p639
Vmipsel
p640
tp641
(dp642
g121
(lp643
g123
asVkernel-arch
p644
Vmips
p645
ss(Vimage
p646
g640
NVloongson-3
p647
tp648
(dp649
Vconfigs
p650
(lp651
Vkernelarch-mips/config.loongson-3
p652
ass(Vbuild
p653
g640
tp654
(dp655
Vsigned-modules
p656
I00
sVimage-file
p657
Vvmlinux
p658
ss(Vimage
p659
g640
NV4kc-malta
p660
tp661
(dp662
Vconfigs
p663
(lp664
Vkernelarch-mips/config.malta
p665
aVkernelarch-mips/config.mips32r2
p666
ass(Vimage
p667
g640
NV5kc-malta
p668
tp669
(dp670
Vconfigs
p671
(lp672
Vkernelarch-mips/config.malta
p673
aVkernelarch-mips/config.mips64r2
p674
ass(Vdescription
p675
g640
NVocteon
p676
tp677
(dp678
Vhardware
p679
VOcteon
p680
sVhardware-long
p681
VCavium Networks Octeon
p682
ss(Vdescription
p683
g640
NVloongson-3
p684
tp685
(dp686
Vhardware
p687
VLoongson 3A/3B
p688
sVhardware-long
p689
VLoongson 3A or 3B based systems (e.g. from Loongson or Lemote)
p690
ss(Vimage
p691
g640
NVocteon
p692
tp693
(dp694
Vconfigs
p695
(lp696
Vkernelarch-mips/config.octeon
p697
ass(Vimage
p698
g640
tp699
(dp700
Vinstall-stem
p701
Vvmlinux
p702
ss(Vdescription
p703
g640
NV5kc-malta
p704
tp705
(dp706
Vhardware
p707
VMIPS Malta (64-bit)
p708
sVhardware-long
p709
VMIPS Malta boards (64-bit)
p710
ss(Vdescription
p711
g640
NV4kc-malta
p712
tp713
(dp714
Vhardware
p715
VMIPS Malta
p716
sVhardware-long
p717
VMIPS Malta boards
p718
ss(g155
g640
g123
tp719
(dp720
g158
(lp721
V4kc-malta
p722
aV5kc-malta
p723
aVloongson-3
p724
aVocteon
p725
asg162
I01
ss(Vbase
p726
Vmipsn32
p727
tp728
(dp729
Vfeaturesets
p730
(lp731
sVkernel-arch
p732
Vmips
p733
ss(Vbase
p734
Vmipsn32el
p735
tp736
(dp737
Vfeaturesets
p738
(lp739
sVkernel-arch
p740
Vmips
p741
ss(Vbase
p742
Vmips64
p743
tp744
(dp745
g121
(lp746
g123
asVkernel-arch
p747
Vmips
p748
ss(Vbuild
p749
g743
tp750
(dp751
Vsigned-modules
p752
I00
sVimage-file
p753
Vvmlinux
p754
ss(Vimage
p755
g743
NV5kc-malta
p756
tp757
(dp758
Vconfigs
p759
(lp760
Vkernelarch-mips/config.malta
p761
aVkernelarch-mips/config.mips64r2
p762
ass(Vdescription
p763
g743
NVocteon
p764
tp765
(dp766
Vhardware
p767
VOcteon
p768
sVhardware-long
p769
VCavium Networks Octeon
p770
ss(Vimage
p771
g743
tp772
(dp773
Vinstall-stem
p774
Vvmlinux
p775
ss(Vdescription
p776
g743
NV5kc-malta
p777
tp778
(dp779
Vhardware
p780
VMIPS Malta
p781
sVhardware-long
p782
VMIPS Malta boards
p783
ss(Vimage
p784
g743
NVocteon
p785
tp786
(dp787
Vconfigs
p788
(lp789
Vkernelarch-mips/config.octeon
p790
ass(g155
g743
g123
tp791
(dp792
g158
(lp793
V5kc-malta
p794
aVocteon
p795
asg162
I01
ss(Vbase
p796
Vmips64el
p797
tp798
(dp799
g121
(lp800
g123
asVkernel-arch
p801
Vmips
p802
ss(Vimage
p803
g797
NVloongson-3
p804
tp805
(dp806
Vconfigs
p807
(lp808
Vkernelarch-mips/config.loongson-3
p809
ass(Vbuild
p810
g797
tp811
(dp812
Vsigned-modules
p813
I00
sVimage-file
p814
Vvmlinux
p815
ss(Vimage
p816
g797
NV5kc-malta
p817
tp818
(dp819
Vconfigs
p820
(lp821
Vkernelarch-mips/config.malta
p822
aVkernelarch-mips/config.mips64r2
p823
ass(Vdescription
p824
g797
NVocteon
p825
tp826
(dp827
Vhardware
p828
VOcteon
p829
sVhardware-long
p830
VCavium Networks Octeon
p831
ss(Vdescription
p832
g797
NVloongson-3
p833
tp834
(dp835
Vhardware
p836
VLoongson 3A/3B
p837
sVhardware-long
p838
VLoongson 3A or 3B based systems (e.g. from Loongson or Lemote)
p839
ss(Vimage
p840
g797
tp841
(dp842
Vinstall-stem
p843
Vvmlinux
p844
ss(Vdescription
p845
g797
NV5kc-malta
p846
tp847
(dp848
Vhardware
p849
VMIPS Malta
p850
sVhardware-long
p851
VMIPS Malta boards
p852
ss(Vimage
p853
g797
NVocteon
p854
tp855
(dp856
Vconfigs
p857
(lp858
Vkernelarch-mips/config.octeon
p859
ass(g155
g797
g123
tp860
(dp861
g158
(lp862
V5kc-malta
p863
aVloongson-3
p864
aVocteon
p865
asg162
I01
ss(Vbase
p866
Vpowerpc
p867
tp868
(dp869
g121
(lp870
g123
asVkernel-arch
p871
Vpowerpc
p872
ss(Vdescription
p873
g867
NVpowerpc64
p874
tp875
(dp876
Vhardware
p877
V64-bit PowerPC
p878
ss(Vbuild
p879
g867
tp880
(dp881
Vvdso
p882
I01
sVimage-file
p883
Vvmlinux
p884
ss(Vimage
p885
g867
NVpowerpc-smp
p886
tp887
(dp888
Vconfigs
p889
(lp890
Vpowerpc/config.powerpc
p891
aVpowerpc/config.powerpc-smp
p892
ass(Vdescription
p893
g867
NVpowerpc
p894
tp895
(dp896
Vhardware
p897
Vuniprocessor 32-bit PowerPC
p898
ss(Vimage
p899
g867
NVpowerpc64
p900
tp901
(dp902
Vconfigs
p903
(lp904
Vkernelarch-powerpc/config-arch-64
p905
aVkernelarch-powerpc/config-arch-64-be
p906
ass(Vdescription
p907
g867
NVpowerpc-smp
p908
tp909
(dp910
Vhardware
p911
Vmultiprocessor 32-bit PowerPC
p912
ss(Vimage
p913
g867
tp914
(dp915
Vsuggests
p916
Vmkvmlinuz
p917
sVinstall-stem
p918
Vvmlinux
p919
sVconfigs
p920
(lp921
ss(g155
g867
g123
tp922
(dp923
g158
(lp924
Vpowerpc
p925
aVpowerpc-smp
p926
aVpowerpc64
p927
asg162
I01
ss(Vbase
p928
Vpowerpcspe
p929
tp930
(dp931
g121
(lp932
g123
asVkernel-arch
p933
Vpowerpc
p934
ss(Vbuild
p935
g929
tp936
(dp937
Vsigned-modules
p938
I00
sVimage-file
p939
Vvmlinux
p940
sVvdso
p941
I01
ss(Vimage
p942
g929
tp943
(dp944
Vsuggests
p945
Vmkvmlinuz
p946
sVinstall-stem
p947
Vvmlinux
p948
ss(Vdescription
p949
g929
tp950
(dp951
Vhardware
p952
V32-bit PowerPC with SPE (instead of AltiVec) with SMP support
p953
ss(g155
g929
g123
tp954
(dp955
g158
(lp956
Vpowerpcspe
p957
asg162
I01
ss(Vbase
p958
Vppc64
p959
tp960
(dp961
g121
(lp962
g123
asVkernel-arch
p963
Vpowerpc
p964
ss(Vdescription
p965
g959
NVpowerpc64
p966
tp967
(dp968
Vhardware
p969
V64-bit PowerPC
p970
ss(Vbuild
p971
g959
tp972
(dp973
Vsigned-modules
p974
I00
sVimage-file
p975
Vvmlinux
p976
sVvdso
p977
I01
ss(Vimage
p978
g959
NVpowerpc64
p979
tp980
(dp981
Vconfigs
p982
(lp983
Vkernelarch-powerpc/config-arch-64
p984
aVkernelarch-powerpc/config-arch-64-be
p985
ass(Vimage
p986
g959
tp987
(dp988
Vsuggests
p989
Vmkvmlinuz
p990
sVinstall-stem
p991
Vvmlinux
p992
sVconfigs
p993
(lp994
ss(g155
g959
g123
tp995
(dp996
g158
(lp997
Vpowerpc64
p998
asg162
I01
ss(Vbase
p999
Vppc64el
p1000
tp1001
(dp1002
g121
(lp1003
g123
asVkernel-arch
p1004
Vpowerpc
p1005
ss(Vdescription
p1006
g1000
NVpowerpc64le
p1007
tp1008
(dp1009
Vhardware
p1010
VLittle-endian 64-bit PowerPC
p1011
ss(Vbuild
p1012
g1000
tp1013
(dp1014
Vvdso
p1015
I01
sVimage-file
p1016
Vvmlinux
p1017
ss(Vimage
p1018
g1000
tp1019
(dp1020
Vsuggests
p1021
Vmkvmlinuz
p1022
sVinstall-stem
p1023
Vvmlinux
p1024
sVconfigs
p1025
(lp1026
ss(Vimage
p1027
g1000
NVpowerpc64le
p1028
tp1029
(dp1030
Vconfigs
p1031
(lp1032
Vkernelarch-powerpc/config-arch-64
p1033
aVkernelarch-powerpc/config-arch-64-le
p1034
ass(g155
g1000
g123
tp1035
(dp1036
g158
(lp1037
Vpowerpc64le
p1038
asg162
I01
ss(Vbase
p1039
Vs390
p1040
tp1041
(dp1042
Vfeaturesets
p1043
(lp1044
sVkernel-arch
p1045
Vs390
p1046
ss(Vbase
p1047
Vs390x
p1048
tp1049
(dp1050
g121
(lp1051
g123
asVkernel-arch
p1052
Vs390
p1053
ss(Vdescription
p1054
g1048
NVs390x
p1055
tp1056
(dp1057
Vhardware
p1058
VIBM zSeries
p1059
ss(Vbuild
p1060
g1048
tp1061
(dp1062
Vvdso
p1063
I01
sVimage-file
p1064
Varch/s390/boot/image
p1065
ss(Vbuild
p1066
g1048
NVs390x
p1067
tp1068
(dp1069
Vdebug-info
p1070
I01
ss(Vrelations
p1071
g1048
tp1072
(dp1073
Vheaders%gcc-6
p1074
Vlinux-compiler-gcc-6-s390
p1075
ss(Vimage
p1076
g1048
tp1077
(dp1078
Vinstall-stem
p1079
Vvmlinuz
p1080
sVbootloaders
p1081
(lp1082
Vs390-tools
p1083
ass(g155
g1048
g123
tp1084
(dp1085
g158
(lp1086
Vs390x
p1087
asg162
I01
ss(Vbase
p1088
Vsh3
p1089
tp1090
(dp1091
Vfeaturesets
p1092
(lp1093
sVkernel-arch
p1094
Vsh
p1095
ss(Vbase
p1096
Vsh4
p1097
tp1098
(dp1099
g121
(lp1100
g123
asVkernel-arch
p1101
Vsh
p1102
ss(Vbuild
p1103
g1097
tp1104
(dp1105
Vsigned-modules
p1106
I00
sVimage-file
p1107
Varch/sh/boot/zImage
p1108
ss(Vdescription
p1109
g1097
NVsh7751r
p1110
tp1111
(dp1112
Vhardware
p1113
Vsh7751r
p1114
sVhardware-long
p1115
VRenesas SH7751R R2D plus board
p1116
ss(Vdescription
p1117
g1097
NVsh7785lcr
p1118
tp1119
(dp1120
Vhardware
p1121
Vsh7785lcr
p1122
sVhardware-long
p1123
VRenesas SH7785 reference board
p1124
ss(Vimage
p1125
g1097
tp1126
(dp1127
Vinstall-stem
p1128
Vvmlinuz
p1129
ss(Vimage
p1130
g1097
NVsh7785lcr
p1131
tp1132
(dp1133
Vrecommends
p1134
Vu-boot-tools
p1135
sVcheck-size
p1136
L4194304L
ss(g155
g1097
g123
tp1137
(dp1138
g158
(lp1139
Vsh7751r
p1140
aVsh7785lcr
p1141
asg162
I01
ss(Vbase
p1142
Vsparc
p1143
tp1144
(dp1145
Vfeaturesets
p1146
(lp1147
sVkernel-arch
p1148
Vsparc
p1149
ss(Vbase
p1150
Vsparc64
p1151
tp1152
(dp1153
g121
(lp1154
g123
asVkernel-arch
p1155
Vsparc
p1156
ss(Vbuild
p1157
g1151
tp1158
(dp1159
Vsigned-modules
p1160
I00
sVimage-file
p1161
Varch/sparc/boot/zImage
p1162
ss(Vimage
p1163
g1151
NVsparc64
p1164
tp1165
(dp1166
Vconfigs
p1167
(lp1168
Vkernelarch-sparc/config-up
p1169
ass(Vimage
p1170
g1151
NVsparc64-smp
p1171
tp1172
(dp1173
Vconfigs
p1174
(lp1175
Vkernelarch-sparc/config-smp
p1176
ass(Vimage
p1177
g1151
tp1178
(dp1179
Vsuggests
p1180
Vsilo, fdutils
p1181
sVinstall-stem
p1182
Vvmlinuz
p1183
sVconfigs
p1184
(lp1185
ss(Vdescription
p1186
g1151
NVsparc64-smp
p1187
tp1188
(dp1189
Vhardware
p1190
Vmultiprocessor 64-bit UltraSPARC
p1191
ss(Vdescription
p1192
g1151
NVsparc64
p1193
tp1194
(dp1195
Vhardware
p1196
Vuniprocessor 64-bit UltraSPARC
p1197
ss(g155
g1151
g123
tp1198
(dp1199
g158
(lp1200
Vsparc64
p1201
aVsparc64-smp
p1202
asg162
I01
ss(Vbase
p1203
Vtilegx
p1204
tp1205
(dp1206
Vfeaturesets
p1207
(lp1208
sVkernel-arch
p1209
Vtile
p1210
ss(Vbase
p1211
Vx32
p1212
tp1213
(dp1214
Vfeaturesets
p1215
(lp1216
sVkernel-arch
p1217
Vx86
p1218
ss(Vdescription
p1219
NVrt
p1220
tp1221
(dp1222
Vparts
p1223
(lp1224
Vrt
p1225
asVpart-long-rt
p1226
VThis kernel includes the PREEMPT_RT realtime patch set.
p1227
sVpart-short-rt
p1228
VPREEMPT_RT
p1229
ss(Vabi
p1230
Ng1220
tp1231
(dp1232
Vignore-changes
p1233
(lp1234
V*
p1235
ass(Vversion
p1236
tp1237
(dp1238
Vupstream
p1239
V4.9
p1240
sVsource
p1241
V4.9.30-2+deb9u2+rpi1+stretch+buster
p1242
sVabiname
p1243
V4.9.0-3
p1244
sVabiname_base
p1245
V4.9.0
p1246
ss.