ccopy_reg
_reconstructor
p0
(cdebian_linux.config
ConfigCore
p1
c__builtin__
dict
p2
(dp3
(Vbase
p4
Vmips
p5
Vnone
p6
tp7
(dp8
Vimplicit-flavour
p9
I01
sVflavours
p10
(lp11
V4kc-malta
p12
aV5kc-malta
p13
aVocteon
p14
ass(Vabi
p15
tp16
(dp17
Vignore-changes
p18
(lp19
Vceph_monc_do_statfs
p20
aVfsnotify_*_group
p21
aVfsnotify_*_mark
p22
asVabiname
p23
V1
p24
ss(Vdescription
p25
Vmipsel
p26
NVloongson-3
p27
tp28
(dp29
Vhardware-long
p30
VLoongson 3A or 3B based systems (e.g. from Loongson or Lemote)
p31
sVhardware
p32
VLoongson 3A/3B
p33
ss(Vbase
p34
Vmips64el
p35
tp36
(dp37
Vfeaturesets
p38
(lp39
g6
asVkernel-arch
p40
Vmips
p41
ss(Vdescription
p42
Vamd64
p43
Vnone
p44
Vamd64
p45
tp46
(dp47
Vparts
p48
(lp49
Vxen
p50
ass(Vbase
p51
Vpowerpc
p52
tp53
(dp54
g38
(lp55
g6
asVkernel-arch
p56
Vpowerpc
p57
ss(Vdescription
p58
Vsh4
p59
NVsh7751r
p60
tp61
(dp62
Vhardware-long
p63
VRenesas SH7751R R2D plus board
p64
sVhardware
p65
Vsh7751r
p66
ss(Vbuild
p67
Vs390x
p68
tp69
(dp70
Vimage-file
p71
Varch/s390/boot/image
p72
sVvdso
p73
I01
ss(Vimage
p74
Varm64
p75
NVarm64
p76
tp77
(dp78
s(Vbuild
p79
g68
NVs390x
p80
tp81
(dp82
Vdebug-info
p83
I01
ss(Vrelations
p84
Vhppa
p85
tp86
(dp87
Vgcc-5
p88
Vgcc-5 <!stage1 !cross>, binutils-hppa64-linux-gnu <!stage1 !cross>, gcc-5-hppa64-linux-gnu <!stage1 !cross>, gcc-5-hppa-linux-gnu:native <!stage1 cross>, binutils-hppa64-linux-gnu:native <!stage1 cross>, gcc-5-hppa64-linux-gnu:native <!stage1 cross>
p89
ss(Vdescription
p90
g85
NVparisc
p91
tp92
(dp93
Vhardware-long
p94
VHP PA-RISC 32-bit systems with max 4 GB RAM
p95
sVhardware
p96
V32-bit PA-RISC
p97
ss(Vimage
p98
Varmhf
p99
tp100
(dp101
Vinstall-stem
p102
Vvmlinuz
p103
ss(Vbuild
p104
Vmips64
p105
tp106
(dp107
Vimage-file
p108
Vvmlinux
p109
sVsigned-modules
p110
I00
ss(Vbuild
p111
Vsparc64
p112
tp113
(dp114
Vimage-file
p115
Varch/sparc/boot/zImage
p116
sVsigned-modules
p117
I00
ss(Vbuild
p118
Varmel
p119
tp120
(dp121
Vimage-file
p122
Varch/arm/boot/zImage
p123
sVsigned-modules
p124
I00
ss(Vbuild
p125
g52
tp126
(dp127
Vimage-file
p128
Vvmlinux
p129
sVvdso
p130
I01
ss(Vbase
p131
g59
tp132
(dp133
g38
(lp134
g6
asVkernel-arch
p135
Vsh
p136
ss(Vimage
p137
tp138
(dp139
Vinitramfs-generators
p140
(lp141
Vinitramfs-tools
p142
aVinitramfs-fallback
p143
ass(g4
Vm68k
p144
g6
tp145
(dp146
g9
I01
sg10
(lp147
Vm68k
p148
ass(Vimage
p149
g112
NVsparc64
p150
tp151
(dp152
Vconfigs
p153
(lp154
Vkernelarch-sparc/config-up
p155
ass(Vbase
p156
Vppc64
p157
tp158
(dp159
g38
(lp160
g6
asVkernel-arch
p161
Vpowerpc
p162
ss(Vdescription
p163
g52
NVpowerpc64
p164
tp165
(dp166
Vhardware
p167
V64-bit PowerPC
p168
ss(Vimage
p169
Vppc64el
p170
NVpowerpc64le
p171
tp172
(dp173
Vconfigs
p174
(lp175
Vkernelarch-powerpc/config-arch-64
p176
aVkernelarch-powerpc/config-arch-64-le
p177
ass(Vrelations
p178
Vi386
p179
tp180
(dp181
Vheaders%gcc-5
p182
Vlinux-compiler-gcc-5-x86
p183
ss(Vrelations
p184
g43
tp185
(dp186
Vheaders%gcc-5
p187
Vlinux-compiler-gcc-5-x86
p188
ss(Vbase
p189
Vor1k
p190
tp191
(dp192
Vfeaturesets
p193
(lp194
sVkernel-arch
p195
Vopenrisc
p196
ss(Vbuild
p197
g85
tp198
(dp199
Vimage-file
p200
Vvmlinux
p201
sVsigned-modules
p202
I00
ss(Vbase
p203
g26
tp204
(dp205
g38
(lp206
g6
asVkernel-arch
p207
Vmips
p208
ss(Vimage
p209
g157
NVpowerpc64
p210
tp211
(dp212
Vconfigs
p213
(lp214
Vkernelarch-powerpc/config-arch-64
p215
aVkernelarch-powerpc/config-arch-64-be
p216
ass(Vdescription
p217
g179
NV686
p218
tp219
(dp220
Vhardware-long
p221
VPCs with one or more processors not supporting PAE
p222
sVhardware
p223
Volder PCs
p224
ss(Vdescription
p225
g105
NV5kc-malta
p226
tp227
(dp228
Vhardware-long
p229
VMIPS Malta boards
p230
sVhardware
p231
VMIPS Malta
p232
ss(g4
g68
g6
tp233
(dp234
g9
I01
sg10
(lp235
Vs390x
p236
ass(Vimage
p237
g144
tp238
(dp239
Vinstall-stem
p240
Vvmlinuz
p241
sVsuggests
p242
Vvmelilo, fdutils
p243
ss(Vdescription
p244
g179
tp245
(dp246
Vpart-long-pae
p247
VThis kernel requires PAE (Physical Address Extension).\u000aThis feature is supported by the Intel Pentium Pro/II/III/4/4M/D, Xeon,\u000aCore and Atom; AMD Geode NX, Athlon (K7), Duron, Opteron, Sempron,\u000aTurion or Phenom; Transmeta Efficeon; VIA C7; and some other processors.
p248
ss(Vimage
p249
g68
tp250
(dp251
Vbootloaders
p252
(lp253
Vs390-tools
p254
asVinstall-stem
p255
Vvmlinuz
p256
ss(Vdescription
p257
g26
NVocteon
p258
tp259
(dp260
Vhardware-long
p261
VCavium Networks Octeon
p262
sVhardware
p263
VOcteon
p264
ss(Vimage
p265
g170
tp266
(dp267
Vinstall-stem
p268
Vvmlinux
p269
sVconfigs
p270
(lp271
sVsuggests
p272
Vmkvmlinuz
p273
ss(Vbase
p274
NVrt
p275
tp276
(dp277
Venabled
p278
I00
ss(Vdescription
p279
tp280
(dp281
Vpart-long-up
p282
VThis kernel is not suitable for SMP (multi-processor,\u000amulti-core or hyper-threaded) systems.
p283
sVpart-long-xen
p284
VThis kernel also runs on a Xen hypervisor.\u000aIt supports both privileged (dom0) and unprivileged (domU) operation.
p285
ss(Vbase
p286
g43
g44
tp287
(dp288
Vflavours
p289
(lp290
Vamd64
p291
ass(Vdescription
p292
Vpowerpcspe
p293
tp294
(dp295
Vhardware
p296
V32-bit PowerPC with SPE (instead of AltiVec) with SMP support
p297
ss(Vimage
p298
g52
NVpowerpc64
p299
tp300
(dp301
Vconfigs
p302
(lp303
Vkernelarch-powerpc/config-arch-64
p304
aVkernelarch-powerpc/config-arch-64-be
p305
ass(g4
g52
g6
tp306
(dp307
g9
I01
sg10
(lp308
Vpowerpc
p309
aVpowerpc-smp
p310
aVpowerpc64
p311
ass(Vbuild
p312
g179
NV686-pae
p313
tp314
(dp315
Vdebug-info
p316
I01
ss(Vdescription
p317
g26
NV4kc-malta
p318
tp319
(dp320
Vhardware-long
p321
VMIPS Malta boards
p322
sVhardware
p323
VMIPS Malta
p324
ss(Vdescription
p325
g52
NVpowerpc
p326
tp327
(dp328
Vhardware
p329
Vuniprocessor 32-bit PowerPC
p330
ss(Vbase
p331
g85
NVparisc64-smp
p332
tp333
(dp334
Vcflags
p335
V-fno-cse-follow-jumps
p336
sVoverride-host-type
p337
Vhppa64-linux-gnu
p338
ss(Vbase
p339
g5
tp340
(dp341
g38
(lp342
g6
asVkernel-arch
p343
Vmips
p344
ss(Vbase
p345
Vsparc
p346
tp347
(dp348
Vfeaturesets
p349
(lp350
sVkernel-arch
p351
Vsparc
p352
ss(Vbase
p353
g170
tp354
(dp355
g38
(lp356
g6
asVkernel-arch
p357
Vpowerpc
p358
ss(Vimage
p359
g43
tp360
(dp361
Vbootloaders
p362
(lp363
Vgrub-pc
p364
aVgrub-efi-amd64
p365
aVextlinux
p366
asVinstall-stem
p367
Vvmlinuz
p368
sVbreaks
p369
Vxserver-xorg-input-vmmouse (<< 1:13.0.99)
p370
ss(Vbuild
p371
Valpha
p372
tp373
(dp374
Vimage-file
p375
Varch/alpha/boot/vmlinux.gz
p376
sVsigned-modules
p377
I00
ss(Vimage
p378
g35
NV5kc-malta
p379
tp380
(dp381
Vconfigs
p382
(lp383
Vkernelarch-mips/config.malta
p384
aVkernelarch-mips/config.mips64r2
p385
ass(Vabi
p386
NVrt
p387
tp388
(dp389
Vignore-changes
p390
(lp391
V*
p392
ass(Vdescription
p393
g85
NVparisc64-smp
p394
tp395
(dp396
Vhardware-long
p397
VHP PA-RISC 64-bit SMP systems with support for more than 4 GB RAM
p398
sVhardware
p399
Vmultiprocessor 64-bit PA-RISC
p400
ss(Vdescription
p401
g372
NValpha-smp
p402
tp403
(dp404
Vhardware-long
p405
VDEC Alpha SMP systems with extended kernel start address (Wildfire, Titan, Marvel)
p406
sVhardware
p407
VAlpha SMP
p408
ss(Vbuild
p409
g179
tp410
(dp411
Vimage-file
p412
Varch/x86/boot/bzImage
p413
sVvdso
p414
I01
ss(Vbase
p415
Vmipsn32el
p416
tp417
(dp418
Vfeaturesets
p419
(lp420
sVkernel-arch
p421
Vmips
p422
ss(Vbase
p423
g372
tp424
(dp425
g38
(lp426
g6
asVkernel-arch
p427
Valpha
p428
ss(Vdescription
p429
Ng387
tp430
(dp431
Vparts
p432
(lp433
Vrt
p434
asVpart-long-rt
p435
VThis kernel includes the PREEMPT_RT realtime patch set.
p436
sVpart-short-rt
p437
VPREEMPT_RT
p438
ss(Vdescription
p439
g35
NVocteon
p440
tp441
(dp442
Vhardware-long
p443
VCavium Networks Octeon
p444
sVhardware
p445
VOcteon
p446
ss(Vbase
p447
g119
tp448
(dp449
g38
(lp450
g6
asVkernel-arch
p451
Varm
p452
ss(Vimage
p453
g75
tp454
(dp455
Vinstall-stem
p456
Vvmlinuz
p457
ss(Vbase
p458
g75
tp459
(dp460
Vfeaturesets
p461
(lp462
Vnone
p463
asVkernel-arch
p464
Varm64
p465
ss(Vbase
p466
Vx32
p467
tp468
(dp469
Vfeaturesets
p470
(lp471
sVkernel-arch
p472
Vx86
p473
ss(g4
g112
g6
tp474
(dp475
g9
I01
sg10
(lp476
Vsparc64
p477
aVsparc64-smp
p478
ass(Vimage
p479
g35
NVocteon
p480
tp481
(dp482
Vconfigs
p483
(lp484
Vkernelarch-mips/config.octeon
p485
ass(Vdescription
p486
g119
NVversatile
p487
tp488
(dp489
Vhardware-long
p490
VVersatile systems (PB, AB, Qemu)
p491
sVhardware
p492
VVersatile
p493
ss(Vimage
p494
g26
NV4kc-malta
p495
tp496
(dp497
Vconfigs
p498
(lp499
Vkernelarch-mips/config.malta
p500
aVkernelarch-mips/config.mips32r2
p501
ass(g4
g99
g6
tp502
(dp503
g9
I01
sg10
(lp504
Varmmp
p505
aVarmmp-lpae
p506
ass(Vbuild
p507
g293
tp508
(dp509
Vimage-file
p510
Vvmlinux
p511
sVsigned-modules
p512
I00
sVvdso
p513
I01
ss(Vbuild
p514
g157
tp515
(dp516
Vimage-file
p517
Vvmlinux
p518
sVsigned-modules
p519
I00
sVvdso
p520
I01
ss(Vdescription
p521
g112
NVsparc64
p522
tp523
(dp524
Vhardware
p525
Vuniprocessor 64-bit UltraSPARC
p526
ss(Vbase
p527
Vs390
p528
tp529
(dp530
Vfeaturesets
p531
(lp532
sVkernel-arch
p533
Vs390
p534
ss(Vversion
p535
tp536
(dp537
Vsource
p538
V4.7.6-1
p539
sVabiname_base
p540
V4.7.0
p541
sVupstream
p542
V4.7
p543
sVabiname
p544
V4.7.0-1
p545
ss(Vbuild
p546
g26
tp547
(dp548
Vimage-file
p549
Vvmlinux
p550
sVsigned-modules
p551
I00
ss(Vimage
p552
g105
NV5kc-malta
p553
tp554
(dp555
Vconfigs
p556
(lp557
Vkernelarch-mips/config.malta
p558
aVkernelarch-mips/config.mips64r2
p559
ass(Vbuild
p560
g75
tp561
(dp562
Vimage-file
p563
Varch/arm64/boot/Image
p564
sVvdso
p565
I01
sVdebug-info
p566
I01
ss(Vdescription
p567
g59
NVsh7785lcr
p568
tp569
(dp570
Vhardware-long
p571
VRenesas SH7785 reference board
p572
sVhardware
p573
Vsh7785lcr
p574
ss(Vbase
p575
g179
Vrt
p576
tp577
(dp578
Vflavours
p579
(lp580
V686-pae
p581
ass(Vdescription
p582
g372
NValpha-generic
p583
tp584
(dp585
Vhardware-long
p586
VDEC Alpha systems with extended kernel start address (Wildfire, Titan, Marvel)
p587
sVhardware
p588
VAlpha
p589
ss(Vimage
p590
g35
tp591
(dp592
Vinstall-stem
p593
Vvmlinux
p594
ss(Vdescription
p595
g26
NV5kc-malta
p596
tp597
(dp598
Vhardware-long
p599
VMIPS Malta boards (64-bit)
p600
sVhardware
p601
VMIPS Malta (64-bit)
p602
ss(g4
g59
g6
tp603
(dp604
g9
I01
sg10
(lp605
Vsh7751r
p606
aVsh7785lcr
p607
ass(Vdescription
p608
g99
NVarmmp
p609
tp610
(dp611
Vhardware-long
p612
VARMv7 multiplatform kernel. See\u000ahttps://wiki.debian.org/DebianKernel/ARMMP for details of supported\u000aplatforms
p613
sVhardware
p614
VARMv7 multiplatform compatible SoCs
p615
ss(Vbuild
p616
g5
tp617
(dp618
Vimage-file
p619
Vvmlinux
p620
sVsigned-modules
p621
I00
ss(g4
g170
g6
tp622
(dp623
g9
I01
sg10
(lp624
Vpowerpc64le
p625
ass(Vrelations
p626
g99
tp627
(dp628
Vheaders%gcc-5
p629
Vlinux-compiler-gcc-5-arm
p630
ss(Vimage
p631
g26
NVloongson-3
p632
tp633
(dp634
Vconfigs
p635
(lp636
Vkernelarch-mips/config.loongson-3
p637
ass(Vimage
p638
g372
tp639
(dp640
Vinstall-stem
p641
Vvmlinuz
p642
sVsuggests
p643
Vaboot, fdutils
p644
ss(Vimage
p645
g105
tp646
(dp647
Vinstall-stem
p648
Vvmlinux
p649
ss(Vbuild
p650
g170
tp651
(dp652
Vimage-file
p653
Vvmlinux
p654
sVvdso
p655
I01
ss(Vbase
p656
tp657
(dp658
Varches
p659
(lp660
Valpha
p661
aVamd64
p662
aVarm64
p663
aVarmel
p664
aVarmhf
p665
aVhppa
p666
aVi386
p667
aVm68k
p668
aVmips
p669
aVmipsel
p670
aVmipsn32
p671
aVmipsn32el
p672
aVmips64
p673
aVmips64el
p674
aVor1k
p675
aVpowerpc
p676
aVpowerpcspe
p677
aVppc64
p678
aVppc64el
p679
aVs390
p680
aVs390x
p681
aVsh4
p682
aVsparc
p683
aVsparc64
p684
aVtilegx
p685
aVx32
p686
asVfeaturesets
p687
(lp688
Vnone
p689
aVrt
p690
asVcompiler
p691
Vgcc-5
p692
ss(Vrelations
p693
g68
tp694
(dp695
Vheaders%gcc-5
p696
Vlinux-compiler-gcc-5-s390
p697
ss(Vimage
p698
g26
tp699
(dp700
Vinstall-stem
p701
Vvmlinux
p702
ss(Vbase
p703
g293
tp704
(dp705
g38
(lp706
g6
asVkernel-arch
p707
Vpowerpc
p708
ss(Vdescription
p709
g52
NVpowerpc-smp
p710
tp711
(dp712
Vhardware
p713
Vmultiprocessor 32-bit PowerPC
p714
ss(Vimage
p715
g85
tp716
(dp717
Vinstall-stem
p718
Vvmlinux
p719
sVsuggests
p720
Vpalo
p721
ss(Vdescription
p722
g35
NV5kc-malta
p723
tp724
(dp725
Vhardware-long
p726
VMIPS Malta boards
p727
sVhardware
p728
VMIPS Malta
p729
ss(Vdescription
p730
g68
NVs390x
p731
tp732
(dp733
Vhardware
p734
VIBM zSeries
p735
ss(g4
g293
g6
tp736
(dp737
g9
I01
sg10
(lp738
Vpowerpcspe
p739
ass(Vimage
p740
g119
tp741
(dp742
Vinstall-stem
p743
Vvmlinuz
p744
ss(Vdescription
p745
g105
NVocteon
p746
tp747
(dp748
Vhardware-long
p749
VCavium Networks Octeon
p750
sVhardware
p751
VOcteon
p752
ss(Vbuild
p753
g99
tp754
(dp755
Vimage-file
p756
Varch/arm/boot/zImage
p757
sVvdso
p758
I01
ss(Vbase
p759
g144
tp760
(dp761
g38
(lp762
g6
asVkernel-arch
p763
Vm68k
p764
sVcflags
p765
V-ffreestanding
p766
ss(Vbase
p767
Vtilegx
p768
tp769
(dp770
Vfeaturesets
p771
(lp772
sVkernel-arch
p773
Vtile
p774
ss(Vdescription
p775
g75
NVarm64
p776
tp777
(dp778
Vhardware
p779
V64-bit ARMv8 machines
p780
ss(Vimage
p781
g5
NV5kc-malta
p782
tp783
(dp784
Vconfigs
p785
(lp786
Vkernelarch-mips/config.malta
p787
aVkernelarch-mips/config.mips64r2
p788
ass(Vimage
p789
g59
NVsh7785lcr
p790
tp791
(dp792
Vrecommends
p793
Vu-boot-tools
p794
sVcheck-size
p795
L4194304L
ss(Vimage
p796
g52
tp797
(dp798
Vinstall-stem
p799
Vvmlinux
p800
sVconfigs
p801
(lp802
sVsuggests
p803
Vmkvmlinuz
p804
ss(Vdescription
p805
g119
NVmarvell
p806
tp807
(dp808
Vhardware-long
p809
VMarvell Kirkwood based systems (SheevaPlug, QNAP TS-119/TS-219, etc)\u000aand Orion 5181, 5182 and 5281 based systems (QNAP TS-109/TS-209, etc)
p810
sVhardware
p811
VMarvell Kirkwood/Orion
p812
ss(Vimage
p813
g293
tp814
(dp815
Vinstall-stem
p816
Vvmlinux
p817
sVsuggests
p818
Vmkvmlinuz
p819
ss(Vimage
p820
g157
tp821
(dp822
Vinstall-stem
p823
Vvmlinux
p824
sVconfigs
p825
(lp826
sVsuggests
p827
Vmkvmlinuz
p828
ss(Vimage
p829
g26
NVocteon
p830
tp831
(dp832
Vconfigs
p833
(lp834
Vkernelarch-mips/config.octeon
p835
ass(Vdescription
p836
g35
NVloongson-3
p837
tp838
(dp839
Vhardware-long
p840
VLoongson 3A or 3B based systems (e.g. from Loongson or Lemote)
p841
sVhardware
p842
VLoongson 3A/3B
p843
ss(Vbase
p844
g43
tp845
(dp846
Vfeaturesets
p847
(lp848
Vnone
p849
aVrt
p850
asVkernel-arch
p851
Vx86
p852
ss(Vimage
p853
g5
NV4kc-malta
p854
tp855
(dp856
Vconfigs
p857
(lp858
Vkernelarch-mips/config.malta
p859
aVkernelarch-mips/config.mips32r2
p860
ass(Vimage
p861
g59
tp862
(dp863
Vinstall-stem
p864
Vvmlinuz
p865
ss(Vbuild
p866
tp867
(dp868
Vsigned-modules
p869
I01
sVdebug-info
p870
I01
ss(Vdescription
p871
g179
NV686-pae
p872
tp873
(dp874
Vparts
p875
(lp876
Vpae
p877
asVhardware-long
p878
VPCs with one or more processors supporting PAE
p879
sVhardware
p880
Vmodern PCs
p881
ss(Vdescription
p882
g5
NV4kc-malta
p883
tp884
(dp885
Vhardware-long
p886
VMIPS Malta boards
p887
sVhardware
p888
VMIPS Malta
p889
ss(Vbase
p890
g105
tp891
(dp892
g38
(lp893
g6
asVkernel-arch
p894
Vmips
p895
ss(Vbase
p896
g112
tp897
(dp898
g38
(lp899
g6
asVkernel-arch
p900
Vsparc
p901
ss(Vdescription
p902
g179
Vnone
p903
V686-pae
p904
tp905
(dp906
Vparts
p907
(lp908
Vxen
p909
ass(Vbuild
p910
g43
tp911
(dp912
Vimage-file
p913
Varch/x86/boot/bzImage
p914
sVvdso
p915
I01
sVdebug-info
p916
I01
ss(Vbase
p917
g68
tp918
(dp919
g38
(lp920
g6
asVkernel-arch
p921
Vs390
p922
ss(Vbase
p923
g179
tp924
(dp925
Vfeaturesets
p926
(lp927
Vnone
p928
aVrt
p929
asVkernel-arch
p930
Vx86
p931
ss(Vimage
p932
g26
NV5kc-malta
p933
tp934
(dp935
Vconfigs
p936
(lp937
Vkernelarch-mips/config.malta
p938
aVkernelarch-mips/config.mips64r2
p939
ass(Vrelations
p940
tp941
(dp942
Vinitramfs-tools
p943
Vinitramfs-tools (>= 0.110~)
p944
sVgcc-5
p945
Vgcc-5 <!stage1 !cross>, gcc-5-@gnu-type-package@:native <!stage1 cross>
p946
sVinitramfs-fallback
p947
Vlinux-initramfs-tool
p948
ss(g4
g26
g6
tp949
(dp950
g9
I01
sg10
(lp951
V4kc-malta
p952
aV5kc-malta
p953
aVloongson-3
p954
aVocteon
p955
ass(g4
g119
g6
tp956
(dp957
g9
I01
sg10
(lp958
Vmarvell
p959
aVversatile
p960
ass(Vbuild
p961
g144
tp962
(dp963
Vimage-file
p964
Vvmlinux.gz
p965
sVsigned-modules
p966
I00
ss(g4
g372
g6
tp967
(dp968
g9
I01
sg10
(lp969
Valpha-generic
p970
aValpha-smp
p971
ass(Vbase
p972
g75
Vnone
p973
tp974
(dp975
Vflavours
p976
(lp977
Varm64
p978
ass(Vdescription
p979
g43
NVamd64
p980
tp981
(dp982
Vhardware-long
p983
VPCs with AMD64, Intel 64 or VIA Nano processors
p984
sVhardware
p985
V64-bit PCs
p986
ss(Vdescription
p987
g99
NVarmmp-lpae
p988
tp989
(dp990
Vhardware-long
p991
VARMv7 multiplatform kernel supporting LPAE. See\u000ahttps://wiki.debian.org/DebianKernel/ARMMP for details of supported\u000aplatforms.
p992
sVhardware
p993
VARMv7 multiplatform compatible SoCs supporting LPAE
p994
ss(Vdescription
p995
g5
NVocteon
p996
tp997
(dp998
Vhardware-long
p999
VCavium Networks Octeon
p1000
sVhardware
p1001
VOcteon
p1002
ss(Vbuild
p1003
g59
tp1004
(dp1005
Vimage-file
p1006
Varch/sh/boot/zImage
p1007
sVsigned-modules
p1008
I00
ss(Vimage
p1009
g52
NVpowerpc-smp
p1010
tp1011
(dp1012
Vconfigs
p1013
(lp1014
Vpowerpc/config.powerpc
p1015
aVpowerpc/config.powerpc-smp
p1016
ass(Vimage
p1017
g119
NVmarvell
p1018
tp1019
(dp1020
Vbreaks
p1021
Vflash-kernel (<< 3.57~)
p1022
sVcheck-size-with-dtb
p1023
I01
sVrecommends
p1024
Vu-boot-tools
p1025
sVcheck-size
p1026
L2097080L
ss(g4
g105
g6
tp1027
(dp1028
g9
I01
sg10
(lp1029
V5kc-malta
p1030
aVocteon
p1031
ass(Vimage
p1032
g35
NVloongson-3
p1033
tp1034
(dp1035
Vconfigs
p1036
(lp1037
Vkernelarch-mips/config.loongson-3
p1038
ass(Vimage
p1039
g105
NVocteon
p1040
tp1041
(dp1042
Vconfigs
p1043
(lp1044
Vkernelarch-mips/config.octeon
p1045
ass(Vdescription
p1046
g112
NVsparc64-smp
p1047
tp1048
(dp1049
Vhardware
p1050
Vmultiprocessor 64-bit UltraSPARC
p1051
ss(Vimage
p1052
g179
tp1053
(dp1054
Vbootloaders
p1055
(lp1056
Vgrub-pc
p1057
aVextlinux
p1058
asVinstall-stem
p1059
Vvmlinuz
p1060
sVbreaks
p1061
Vxserver-xorg-input-vmmouse (<< 1:13.0.99)
p1062
ss(Vimage
p1063
g5
NVocteon
p1064
tp1065
(dp1066
Vconfigs
p1067
(lp1068
Vkernelarch-mips/config.octeon
p1069
ass(Vbase
p1070
g179
g903
tp1071
(dp1072
Vflavours
p1073
(lp1074
V686
p1075
aV686-pae
p1076
ass(Vdescription
p1077
g144
NVm68k
p1078
tp1079
(dp1080
Vhardware
p1081
VMotorola MC68020+ family
p1082
ss(Vbase
p1083
g85
tp1084
(dp1085
g38
(lp1086
g6
asVkernel-arch
p1087
Vparisc
p1088
ss(Vimage
p1089
g112
tp1090
(dp1091
Vinstall-stem
p1092
Vvmlinuz
p1093
sVconfigs
p1094
(lp1095
sVsuggests
p1096
Vsilo, fdutils
p1097
ss(Vdescription
p1098
g170
NVpowerpc64le
p1099
tp1100
(dp1101
Vhardware
p1102
VLittle-endian 64-bit PowerPC
p1103
ss(Vxen
p1104
g43
g44
Vamd64
p1105
tp1106
(dp1107
Vflavours
p1108
(lp1109
Vamd64
p1110
ass(Vimage
p1111
g112
NVsparc64-smp
p1112
tp1113
(dp1114
Vconfigs
p1115
(lp1116
Vkernelarch-sparc/config-smp
p1117
ass(Vbase
p1118
g99
tp1119
(dp1120
g38
(lp1121
g6
asVkernel-arch
p1122
Varm
p1123
ss(g4
g35
g6
tp1124
(dp1125
g9
I01
sg10
(lp1126
V5kc-malta
p1127
aVloongson-3
p1128
aVocteon
p1129
ass(Vbuild
p1130
g35
tp1131
(dp1132
Vimage-file
p1133
Vvmlinux
p1134
sVsigned-modules
p1135
I00
ss(Vbase
p1136
Vmipsn32
p1137
tp1138
(dp1139
Vfeaturesets
p1140
(lp1141
sVkernel-arch
p1142
Vmips
p1143
ss(g4
g157
g6
tp1144
(dp1145
g9
I01
sg10
(lp1146
Vpowerpc64
p1147
ass(Vdescription
p1148
g157
NVpowerpc64
p1149
tp1150
(dp1151
Vhardware
p1152
V64-bit PowerPC
p1153
ss(g4
g85
g6
tp1154
(dp1155
g9
I01
sg10
(lp1156
Vparisc
p1157
aVparisc64-smp
p1158
ass(Vdescription
p1159
g5
NV5kc-malta
p1160
tp1161
(dp1162
Vhardware-long
p1163
VMIPS Malta boards (64-bit)
p1164
sVhardware
p1165
VMIPS Malta (64-bit)
p1166
ss(Vimage
p1167
g5
tp1168
(dp1169
Vinstall-stem
p1170
Vvmlinux
p1171
ss(Vrelations
p1172
g119
tp1173
(dp1174
Vheaders%gcc-5
p1175
Vlinux-compiler-gcc-5-arm
p1176
ss(Vbase
p1177
g43
Vrt
p1178
tp1179
(dp1180
Vflavours
p1181
(lp1182
Vamd64
p1183
asstp1184
Rp1185
.