cdebian_linux.config
ConfigCore
p0
(tRp1
(Vbase
p2
tp3
(dp4
Varches
p5
(lp6
Valpha
p7
aVamd64
p8
aVarm64
p9
aVarmel
p10
aVarmhf
p11
aVhppa
p12
aVi386
p13
aVm68k
p14
aVmips
p15
aVmipsel
p16
aVmipsn32
p17
aVmipsn32el
p18
aVmips64
p19
aVmips64el
p20
aVpowerpc
p21
aVpowerpcspe
p22
aVppc64
p23
aVppc64el
p24
aVs390
p25
aVs390x
p26
aVsh3
p27
aVsh4
p28
aVsparc
p29
aVsparc64
p30
aVtilegx
p31
aVx32
p32
asVfeaturesets
p33
(lp34
Vnone
p35
aVrt
p36
asVcompiler
p37
Vgcc-6
p38
ss(Vbuild
p39
tp40
(dp41
Vsigned-modules
p42
I01
sVdebug-info
p43
I01
ss(Vbase
p44
NVrt
p45
tp46
(dp47
Venabled
p48
I01
ss(Vdescription
p49
tp50
(dp51
Vpart-long-up
p52
VThis kernel is not suitable for SMP (multi-processor,\u000amulti-core or hyper-threaded) systems.
p53
sVpart-long-xen
p54
VThis kernel also runs on a Xen hypervisor.\u000aIt supports both privileged (dom0) and unprivileged (domU) operation.
p55
ss(Vpackages
p56
tp57
(dp58
Vlibc-dev
p59
I00
ss(Vrelations
p60
tp61
(dp62
Vinitramfs-tools
p63
Vinitramfs-tools (>= 0.120+deb8u2)
p64
sVgcc-6
p65
Vgcc-6 <!stage1 !cross>, gcc-6-@gnu-type-package@:native <!stage1 cross>
p66
sVinitramfs-fallback
p67
Vlinux-initramfs-tool
p68
ss(Vimage
p69
tp70
(dp71
Vinitramfs-generators
p72
(lp73
Vinitramfs-tools
p74
aVinitramfs-fallback
p75
ass(Vabi
p76
tp77
(dp78
Vabiname
p79
V2
p80
sVignore-changes
p81
(lp82
V__cpuhp_*
p83
aVmodule:drivers/iio/common/st_sensors/**
p84
aVmodule:drivers/net/wireless/**
p85
aVmodule:drivers/power/supply/bq27xxx_battery
p86
aVmodule:drivers/usb/host/**
p87
aVmodule:drivers/usb/musb/**
p88
aVmodule:net/ceph/libceph
p89
aVbtree_*
p90
aVvisitor*
p91
aVcan_rx_register
p92
aVip6_xmit
p93
ass(Vbase
p94
Valpha
p95
tp96
(dp97
Vfeaturesets
p98
(lp99
Vnone
p100
asVkernel-arch
p101
Valpha
p102
ss(Vdescription
p103
g95
NValpha-smp
p104
tp105
(dp106
Vhardware
p107
VAlpha SMP
p108
sVhardware-long
p109
VDEC Alpha SMP systems with extended kernel start address (Wildfire, Titan, Marvel)
p110
ss(Vbuild
p111
g95
tp112
(dp113
Vsigned-modules
p114
I00
sVimage-file
p115
Varch/alpha/boot/vmlinux.gz
p116
ss(Vdescription
p117
g95
NValpha-generic
p118
tp119
(dp120
Vhardware
p121
VAlpha
p122
sVhardware-long
p123
VDEC Alpha systems with extended kernel start address (Wildfire, Titan, Marvel)
p124
ss(Vimage
p125
g95
tp126
(dp127
Vsuggests
p128
Vaboot, fdutils
p129
sVinstall-stem
p130
Vvmlinuz
p131
ss(Vbase
p132
g95
g100
tp133
(dp134
Vflavours
p135
(lp136
Valpha-generic
p137
aValpha-smp
p138
asVimplicit-flavour
p139
I01
ss(Vbase
p140
Vamd64
p141
tp142
(dp143
Vfeaturesets
p144
(lp145
Vnone
p146
aVrt
p147
asVkernel-arch
p148
Vx86
p149
ss(Vdescription
p150
g141
NVamd64
p151
tp152
(dp153
Vhardware
p154
V64-bit PCs
p155
sVhardware-long
p156
VPCs with AMD64, Intel 64 or VIA Nano processors
p157
ss(Vbuild
p158
g141
tp159
(dp160
Vvdso
p161
I01
sVimage-file
p162
Varch/x86/boot/bzImage
p163
sVdebug-info
p164
I01
ss(Vrelations
p165
g141
tp166
(dp167
Vheaders%gcc-6
p168
Vlinux-compiler-gcc-6-x86
p169
ss(Vimage
p170
g141
tp171
(dp172
Vbreaks
p173
Vxserver-xorg-input-vmmouse (<< 1:13.0.99)
p174
sVinstall-stem
p175
Vvmlinuz
p176
sVbootloaders
p177
(lp178
Vgrub-pc
p179
aVgrub-efi-amd64
p180
aVextlinux
p181
ass(Vbase
p182
g141
Vnone
p183
tp184
(dp185
Vflavours
p186
(lp187
Vamd64
p188
ass(Vdescription
p189
g141
g183
Vamd64
p190
tp191
(dp192
Vparts
p193
(lp194
Vxen
p195
ass(Vbase
p196
g141
Vrt
p197
tp198
(dp199
Vflavours
p200
(lp201
Vamd64
p202
ass(Vbase
p203
Varm64
p204
tp205
(dp206
Vfeaturesets
p207
(lp208
Vnone
p209
asVkernel-arch
p210
Varm64
p211
ss(Vdescription
p212
g204
NVarm64
p213
tp214
(dp215
Vhardware
p216
V64-bit ARMv8 machines
p217
ss(Vbuild
p218
g204
tp219
(dp220
Vvdso
p221
I01
sVimage-file
p222
Varch/arm64/boot/Image
p223
sVdebug-info
p224
I01
ss(Vimage
p225
g204
NVarm64
p226
tp227
(dp228
s(Vimage
p229
g204
tp230
(dp231
Vbreaks
p232
Vlibmozjs185-1.0, libmozjs-24-0 (<< 24.2.0-5.1~)
p233
sVinstall-stem
p234
Vvmlinuz
p235
ss(Vbase
p236
g204
Vnone
p237
tp238
(dp239
Vflavours
p240
(lp241
Varm64
p242
ass(Vbase
p243
Varmel
p244
tp245
(dp246
g98
(lp247
g100
asVkernel-arch
p248
Varm
p249
ss(Vbuild
p250
g244
tp251
(dp252
Vsigned-modules
p253
I00
sVimage-file
p254
Varch/arm/boot/zImage
p255
ss(Vimage
p256
g244
NVmarvell
p257
tp258
(dp259
Vrecommends
p260
Vu-boot-tools
p261
sVbreaks
p262
Vflash-kernel (<< 3.57~)
p263
sVcheck-size-with-dtb
p264
I01
sVcheck-size
p265
L2097080L
ss(Vdescription
p266
g244
NVmarvell
p267
tp268
(dp269
Vhardware
p270
VMarvell Kirkwood/Orion
p271
sVhardware-long
p272
VMarvell Kirkwood based systems (SheevaPlug, QNAP TS-119/TS-219, etc)\u000aand Orion 5181, 5182 and 5281 based systems (QNAP TS-109/TS-209, etc)
p273
ss(Vrelations
p274
g244
tp275
(dp276
Vheaders%gcc-6
p277
Vlinux-compiler-gcc-6-arm
p278
ss(Vimage
p279
g244
tp280
(dp281
Vinstall-stem
p282
Vvmlinuz
p283
ss(g132
g244
g100
tp284
(dp285
g135
(lp286
Vmarvell
p287
asg139
I01
ss(Vdescription
p288
Varmhf
p289
NVarmmp
p290
tp291
(dp292
Vhardware
p293
VARMv7 multiplatform compatible SoCs
p294
sVhardware-long
p295
VARMv7 multiplatform kernel. See\u000ahttps://wiki.debian.org/DebianKernel/ARMMP for details of supported\u000aplatforms
p296
ss(Vdescription
p297
g289
NVrpi
p298
tp299
(dp300
Vhardware
p301
VRaspberryPI
p302
sVhardware-long
p303
VRaspberry PI
p304
ss(Vdescription
p305
g289
NVarmmp-lpae
p306
tp307
(dp308
Vhardware
p309
VARMv7 multiplatform compatible SoCs supporting LPAE
p310
sVhardware-long
p311
VARMv7 multiplatform kernel supporting LPAE. See\u000ahttps://wiki.debian.org/DebianKernel/ARMMP for details of supported\u000aplatforms.
p312
ss(Vbuild
p313
g289
NVrpi
p314
tp315
(dp316
Vimage-file
p317
Varch/arm/boot/zImagerpdt
p318
ss(Vrelations
p319
g289
tp320
(dp321
Vheaders%gcc-6
p322
Vlinux-compiler-gcc-6-arm
p323
ss(Vimage
p324
g289
tp325
(dp326
Vinstall-stem
p327
Vvmlinuz
p328
ss(Vbase
p329
g289
tp330
(dp331
g98
(lp332
g100
asVkernel-arch
p333
Varm
p334
ss(Vbuild
p335
g289
tp336
(dp337
Vvdso
p338
I01
sVimage-file
p339
Varch/arm/boot/zImage
p340
ss(Vbuild
p341
g289
NVrpi2
p342
tp343
(dp344
Vimage-file
p345
Varch/arm/boot/zImagerpdt
p346
ss(Vimage
p347
g289
NVrpi2
p348
tp349
(dp350
Vconfigs
p351
(lp352
Varmhf/config.rpix
p353
aVarmhf/config.rpi2
p354
ass(Vimage
p355
g289
NVrpi
p356
tp357
(dp358
Vconfigs
p359
(lp360
Varmhf/config.rpix
p361
aVarmhf/config.rpi
p362
ass(Vdescription
p363
g289
NVrpi2
p364
tp365
(dp366
Vhardware
p367
VRaspberryPI2
p368
sVhardware-long
p369
VRaspberry PI 2
p370
ss(g132
g289
g100
tp371
(dp372
g135
(lp373
Vrpi
p374
aVrpi2
p375
asg139
I01
ss(Vbase
p376
Vhppa
p377
tp378
(dp379
g98
(lp380
g100
asVkernel-arch
p381
Vparisc
p382
ss(Vbuild
p383
g377
tp384
(dp385
Vsigned-modules
p386
I00
sVimage-file
p387
Vvmlinux
p388
ss(Vdescription
p389
g377
NVparisc64-smp
p390
tp391
(dp392
Vhardware
p393
Vmultiprocessor 64-bit PA-RISC
p394
sVhardware-long
p395
VHP PA-RISC 64-bit SMP systems with support for more than 4 GB RAM
p396
ss(Vbase
p397
g377
NVparisc64-smp
p398
tp399
(dp400
Vcflags
p401
V-fno-cse-follow-jumps
p402
sVoverride-host-type
p403
Vhppa64-linux-gnu
p404
ss(Vrelations
p405
g377
tp406
(dp407
Vgcc-6
p408
Vgcc-6 <!stage1 !cross>, binutils-hppa64-linux-gnu <!stage1 !cross>, gcc-6-hppa64-linux-gnu <!stage1 !cross>, gcc-6-hppa-linux-gnu:native <!stage1 cross>, binutils-hppa64-linux-gnu:native <!stage1 cross>, gcc-6-hppa64-linux-gnu:native <!stage1 cross>
p409
ss(Vdescription
p410
g377
NVparisc
p411
tp412
(dp413
Vhardware
p414
V32-bit PA-RISC
p415
sVhardware-long
p416
VHP PA-RISC 32-bit systems with max 4 GB RAM
p417
ss(Vimage
p418
g377
tp419
(dp420
Vsuggests
p421
Vpalo
p422
sVinstall-stem
p423
Vvmlinux
p424
ss(g132
g377
g100
tp425
(dp426
g135
(lp427
Vparisc
p428
aVparisc64-smp
p429
asg139
I01
ss(Vbase
p430
Vi386
p431
tp432
(dp433
Vfeaturesets
p434
(lp435
Vnone
p436
aVrt
p437
asVkernel-arch
p438
Vx86
p439
ss(Vbuild
p440
g431
tp441
(dp442
Vvdso
p443
I01
sVimage-file
p444
Varch/x86/boot/bzImage
p445
ss(Vdescription
p446
g431
NV686-pae
p447
tp448
(dp449
Vhardware
p450
Vmodern PCs
p451
sVhardware-long
p452
VPCs with one or more processors supporting PAE
p453
sVparts
p454
(lp455
Vpae
p456
ass(Vdescription
p457
g431
tp458
(dp459
Vpart-long-pae
p460
VThis kernel requires PAE (Physical Address Extension).\u000aThis feature is supported by the Intel Pentium Pro/II/III/4/4M/D, Xeon,\u000aCore and Atom; AMD Geode NX, Athlon (K7), Duron, Opteron, Sempron,\u000aTurion or Phenom; Transmeta Efficeon; VIA C7; and some other processors.
p461
ss(Vbuild
p462
g431
NV686-pae
p463
tp464
(dp465
Vdebug-info
p466
I01
ss(Vdescription
p467
g431
NV686
p468
tp469
(dp470
Vhardware
p471
Volder PCs
p472
sVhardware-long
p473
VPCs with one or more processors not supporting PAE
p474
ss(Vrelations
p475
g431
tp476
(dp477
Vheaders%gcc-6
p478
Vlinux-compiler-gcc-6-x86
p479
ss(Vimage
p480
g431
tp481
(dp482
Vbreaks
p483
Vxserver-xorg-input-vmmouse (<< 1:13.0.99)
p484
sVinstall-stem
p485
Vvmlinuz
p486
sVbootloaders
p487
(lp488
Vgrub-pc
p489
aVextlinux
p490
ass(Vbase
p491
g431
Vnone
p492
tp493
(dp494
Vflavours
p495
(lp496
V686
p497
aV686-pae
p498
ass(Vdescription
p499
g431
g492
V686-pae
p500
tp501
(dp502
Vparts
p503
(lp504
Vxen
p505
ass(Vbase
p506
g431
Vrt
p507
tp508
(dp509
Vflavours
p510
(lp511
V686-pae
p512
ass(Vbase
p513
Vm68k
p514
tp515
(dp516
Vcflags
p517
V-ffreestanding
p518
sg98
(lp519
g100
asVkernel-arch
p520
Vm68k
p521
ss(Vbuild
p522
g514
tp523
(dp524
Vsigned-modules
p525
I00
sVimage-file
p526
Vvmlinux.gz
p527
ss(Vdescription
p528
g514
NVm68k
p529
tp530
(dp531
Vhardware
p532
VMotorola MC68020+ family
p533
ss(Vimage
p534
g514
tp535
(dp536
Vsuggests
p537
Vvmelilo, fdutils
p538
sVinstall-stem
p539
Vvmlinuz
p540
ss(g132
g514
g100
tp541
(dp542
g135
(lp543
Vm68k
p544
asg139
I01
ss(Vbase
p545
Vmips
p546
tp547
(dp548
g98
(lp549
g100
asVkernel-arch
p550
Vmips
p551
ss(Vbuild
p552
g546
tp553
(dp554
Vsigned-modules
p555
I00
sVimage-file
p556
Vvmlinux
p557
ss(Vimage
p558
g546
NV4kc-malta
p559
tp560
(dp561
Vconfigs
p562
(lp563
Vkernelarch-mips/config.malta
p564
aVkernelarch-mips/config.mips32r2
p565
ass(Vimage
p566
g546
NV5kc-malta
p567
tp568
(dp569
Vconfigs
p570
(lp571
Vkernelarch-mips/config.malta
p572
aVkernelarch-mips/config.mips64r2
p573
ass(Vdescription
p574
g546
NVocteon
p575
tp576
(dp577
Vhardware
p578
VOcteon
p579
sVhardware-long
p580
VCavium Networks Octeon
p581
ss(Vimage
p582
g546
NVocteon
p583
tp584
(dp585
Vconfigs
p586
(lp587
Vkernelarch-mips/config.octeon
p588
ass(Vimage
p589
g546
tp590
(dp591
Vinstall-stem
p592
Vvmlinux
p593
ss(Vdescription
p594
g546
NV5kc-malta
p595
tp596
(dp597
Vhardware
p598
VMIPS Malta (64-bit)
p599
sVhardware-long
p600
VMIPS Malta boards (64-bit)
p601
ss(Vdescription
p602
g546
NV4kc-malta
p603
tp604
(dp605
Vhardware
p606
VMIPS Malta
p607
sVhardware-long
p608
VMIPS Malta boards
p609
ss(g132
g546
g100
tp610
(dp611
g135
(lp612
V4kc-malta
p613
aV5kc-malta
p614
aVocteon
p615
asg139
I01
ss(Vbase
p616
Vmipsel
p617
tp618
(dp619
g98
(lp620
g100
asVkernel-arch
p621
Vmips
p622
ss(Vimage
p623
g617
NVloongson-3
p624
tp625
(dp626
Vconfigs
p627
(lp628
Vkernelarch-mips/config.loongson-3
p629
ass(Vbuild
p630
g617
tp631
(dp632
Vsigned-modules
p633
I00
sVimage-file
p634
Vvmlinux
p635
ss(Vimage
p636
g617
NV4kc-malta
p637
tp638
(dp639
Vconfigs
p640
(lp641
Vkernelarch-mips/config.malta
p642
aVkernelarch-mips/config.mips32r2
p643
ass(Vimage
p644
g617
NV5kc-malta
p645
tp646
(dp647
Vconfigs
p648
(lp649
Vkernelarch-mips/config.malta
p650
aVkernelarch-mips/config.mips64r2
p651
ass(Vdescription
p652
g617
NVocteon
p653
tp654
(dp655
Vhardware
p656
VOcteon
p657
sVhardware-long
p658
VCavium Networks Octeon
p659
ss(Vdescription
p660
g617
NVloongson-3
p661
tp662
(dp663
Vhardware
p664
VLoongson 3A/3B
p665
sVhardware-long
p666
VLoongson 3A or 3B based systems (e.g. from Loongson or Lemote)
p667
ss(Vimage
p668
g617
NVocteon
p669
tp670
(dp671
Vconfigs
p672
(lp673
Vkernelarch-mips/config.octeon
p674
ass(Vimage
p675
g617
tp676
(dp677
Vinstall-stem
p678
Vvmlinux
p679
ss(Vdescription
p680
g617
NV5kc-malta
p681
tp682
(dp683
Vhardware
p684
VMIPS Malta (64-bit)
p685
sVhardware-long
p686
VMIPS Malta boards (64-bit)
p687
ss(Vdescription
p688
g617
NV4kc-malta
p689
tp690
(dp691
Vhardware
p692
VMIPS Malta
p693
sVhardware-long
p694
VMIPS Malta boards
p695
ss(g132
g617
g100
tp696
(dp697
g135
(lp698
V4kc-malta
p699
aV5kc-malta
p700
aVloongson-3
p701
aVocteon
p702
asg139
I01
ss(Vbase
p703
Vmipsn32
p704
tp705
(dp706
Vfeaturesets
p707
(lp708
sVkernel-arch
p709
Vmips
p710
ss(Vbase
p711
Vmipsn32el
p712
tp713
(dp714
Vfeaturesets
p715
(lp716
sVkernel-arch
p717
Vmips
p718
ss(Vbase
p719
Vmips64
p720
tp721
(dp722
g98
(lp723
g100
asVkernel-arch
p724
Vmips
p725
ss(Vbuild
p726
g720
tp727
(dp728
Vsigned-modules
p729
I00
sVimage-file
p730
Vvmlinux
p731
ss(Vimage
p732
g720
NV5kc-malta
p733
tp734
(dp735
Vconfigs
p736
(lp737
Vkernelarch-mips/config.malta
p738
aVkernelarch-mips/config.mips64r2
p739
ass(Vdescription
p740
g720
NVocteon
p741
tp742
(dp743
Vhardware
p744
VOcteon
p745
sVhardware-long
p746
VCavium Networks Octeon
p747
ss(Vimage
p748
g720
tp749
(dp750
Vinstall-stem
p751
Vvmlinux
p752
ss(Vdescription
p753
g720
NV5kc-malta
p754
tp755
(dp756
Vhardware
p757
VMIPS Malta
p758
sVhardware-long
p759
VMIPS Malta boards
p760
ss(Vimage
p761
g720
NVocteon
p762
tp763
(dp764
Vconfigs
p765
(lp766
Vkernelarch-mips/config.octeon
p767
ass(g132
g720
g100
tp768
(dp769
g135
(lp770
V5kc-malta
p771
aVocteon
p772
asg139
I01
ss(Vbase
p773
Vmips64el
p774
tp775
(dp776
g98
(lp777
g100
asVkernel-arch
p778
Vmips
p779
ss(Vimage
p780
g774
NVloongson-3
p781
tp782
(dp783
Vconfigs
p784
(lp785
Vkernelarch-mips/config.loongson-3
p786
ass(Vbuild
p787
g774
tp788
(dp789
Vsigned-modules
p790
I00
sVimage-file
p791
Vvmlinux
p792
ss(Vimage
p793
g774
NV5kc-malta
p794
tp795
(dp796
Vconfigs
p797
(lp798
Vkernelarch-mips/config.malta
p799
aVkernelarch-mips/config.mips64r2
p800
ass(Vdescription
p801
g774
NVocteon
p802
tp803
(dp804
Vhardware
p805
VOcteon
p806
sVhardware-long
p807
VCavium Networks Octeon
p808
ss(Vdescription
p809
g774
NVloongson-3
p810
tp811
(dp812
Vhardware
p813
VLoongson 3A/3B
p814
sVhardware-long
p815
VLoongson 3A or 3B based systems (e.g. from Loongson or Lemote)
p816
ss(Vimage
p817
g774
tp818
(dp819
Vinstall-stem
p820
Vvmlinux
p821
ss(Vdescription
p822
g774
NV5kc-malta
p823
tp824
(dp825
Vhardware
p826
VMIPS Malta
p827
sVhardware-long
p828
VMIPS Malta boards
p829
ss(Vimage
p830
g774
NVocteon
p831
tp832
(dp833
Vconfigs
p834
(lp835
Vkernelarch-mips/config.octeon
p836
ass(g132
g774
g100
tp837
(dp838
g135
(lp839
V5kc-malta
p840
aVloongson-3
p841
aVocteon
p842
asg139
I01
ss(Vbase
p843
Vpowerpc
p844
tp845
(dp846
g98
(lp847
g100
asVkernel-arch
p848
Vpowerpc
p849
ss(Vdescription
p850
g844
NVpowerpc64
p851
tp852
(dp853
Vhardware
p854
V64-bit PowerPC
p855
ss(Vbuild
p856
g844
tp857
(dp858
Vvdso
p859
I01
sVimage-file
p860
Vvmlinux
p861
ss(Vimage
p862
g844
NVpowerpc-smp
p863
tp864
(dp865
Vconfigs
p866
(lp867
Vpowerpc/config.powerpc
p868
aVpowerpc/config.powerpc-smp
p869
ass(Vdescription
p870
g844
NVpowerpc
p871
tp872
(dp873
Vhardware
p874
Vuniprocessor 32-bit PowerPC
p875
ss(Vimage
p876
g844
NVpowerpc64
p877
tp878
(dp879
Vconfigs
p880
(lp881
Vkernelarch-powerpc/config-arch-64
p882
aVkernelarch-powerpc/config-arch-64-be
p883
ass(Vdescription
p884
g844
NVpowerpc-smp
p885
tp886
(dp887
Vhardware
p888
Vmultiprocessor 32-bit PowerPC
p889
ss(Vimage
p890
g844
tp891
(dp892
Vsuggests
p893
Vmkvmlinuz
p894
sVinstall-stem
p895
Vvmlinux
p896
sVconfigs
p897
(lp898
ss(g132
g844
g100
tp899
(dp900
g135
(lp901
Vpowerpc
p902
aVpowerpc-smp
p903
aVpowerpc64
p904
asg139
I01
ss(Vbase
p905
Vpowerpcspe
p906
tp907
(dp908
g98
(lp909
g100
asVkernel-arch
p910
Vpowerpc
p911
ss(Vbuild
p912
g906
tp913
(dp914
Vsigned-modules
p915
I00
sVimage-file
p916
Vvmlinux
p917
sVvdso
p918
I01
ss(Vimage
p919
g906
tp920
(dp921
Vsuggests
p922
Vmkvmlinuz
p923
sVinstall-stem
p924
Vvmlinux
p925
ss(Vdescription
p926
g906
tp927
(dp928
Vhardware
p929
V32-bit PowerPC with SPE (instead of AltiVec) with SMP support
p930
ss(g132
g906
g100
tp931
(dp932
g135
(lp933
Vpowerpcspe
p934
asg139
I01
ss(Vbase
p935
Vppc64
p936
tp937
(dp938
g98
(lp939
g100
asVkernel-arch
p940
Vpowerpc
p941
ss(Vdescription
p942
g936
NVpowerpc64
p943
tp944
(dp945
Vhardware
p946
V64-bit PowerPC
p947
ss(Vbuild
p948
g936
tp949
(dp950
Vsigned-modules
p951
I00
sVimage-file
p952
Vvmlinux
p953
sVvdso
p954
I01
ss(Vimage
p955
g936
NVpowerpc64
p956
tp957
(dp958
Vconfigs
p959
(lp960
Vkernelarch-powerpc/config-arch-64
p961
aVkernelarch-powerpc/config-arch-64-be
p962
ass(Vimage
p963
g936
tp964
(dp965
Vsuggests
p966
Vmkvmlinuz
p967
sVinstall-stem
p968
Vvmlinux
p969
sVconfigs
p970
(lp971
ss(g132
g936
g100
tp972
(dp973
g135
(lp974
Vpowerpc64
p975
asg139
I01
ss(Vbase
p976
Vppc64el
p977
tp978
(dp979
g98
(lp980
g100
asVkernel-arch
p981
Vpowerpc
p982
ss(Vdescription
p983
g977
NVpowerpc64le
p984
tp985
(dp986
Vhardware
p987
VLittle-endian 64-bit PowerPC
p988
ss(Vbuild
p989
g977
tp990
(dp991
Vvdso
p992
I01
sVimage-file
p993
Vvmlinux
p994
ss(Vimage
p995
g977
tp996
(dp997
Vsuggests
p998
Vmkvmlinuz
p999
sVinstall-stem
p1000
Vvmlinux
p1001
sVconfigs
p1002
(lp1003
ss(Vimage
p1004
g977
NVpowerpc64le
p1005
tp1006
(dp1007
Vconfigs
p1008
(lp1009
Vkernelarch-powerpc/config-arch-64
p1010
aVkernelarch-powerpc/config-arch-64-le
p1011
ass(g132
g977
g100
tp1012
(dp1013
g135
(lp1014
Vpowerpc64le
p1015
asg139
I01
ss(Vbase
p1016
Vs390
p1017
tp1018
(dp1019
Vfeaturesets
p1020
(lp1021
sVkernel-arch
p1022
Vs390
p1023
ss(Vbase
p1024
Vs390x
p1025
tp1026
(dp1027
g98
(lp1028
g100
asVkernel-arch
p1029
Vs390
p1030
ss(Vdescription
p1031
g1025
NVs390x
p1032
tp1033
(dp1034
Vhardware
p1035
VIBM zSeries
p1036
ss(Vbuild
p1037
g1025
tp1038
(dp1039
Vvdso
p1040
I01
sVimage-file
p1041
Varch/s390/boot/image
p1042
ss(Vbuild
p1043
g1025
NVs390x
p1044
tp1045
(dp1046
Vdebug-info
p1047
I01
ss(Vrelations
p1048
g1025
tp1049
(dp1050
Vheaders%gcc-6
p1051
Vlinux-compiler-gcc-6-s390
p1052
ss(Vimage
p1053
g1025
tp1054
(dp1055
Vinstall-stem
p1056
Vvmlinuz
p1057
sVbootloaders
p1058
(lp1059
Vs390-tools
p1060
ass(g132
g1025
g100
tp1061
(dp1062
g135
(lp1063
Vs390x
p1064
asg139
I01
ss(Vbase
p1065
Vsh3
p1066
tp1067
(dp1068
Vfeaturesets
p1069
(lp1070
sVkernel-arch
p1071
Vsh
p1072
ss(Vbase
p1073
Vsh4
p1074
tp1075
(dp1076
g98
(lp1077
g100
asVkernel-arch
p1078
Vsh
p1079
ss(Vbuild
p1080
g1074
tp1081
(dp1082
Vsigned-modules
p1083
I00
sVimage-file
p1084
Varch/sh/boot/zImage
p1085
ss(Vdescription
p1086
g1074
NVsh7751r
p1087
tp1088
(dp1089
Vhardware
p1090
Vsh7751r
p1091
sVhardware-long
p1092
VRenesas SH7751R R2D plus board
p1093
ss(Vdescription
p1094
g1074
NVsh7785lcr
p1095
tp1096
(dp1097
Vhardware
p1098
Vsh7785lcr
p1099
sVhardware-long
p1100
VRenesas SH7785 reference board
p1101
ss(Vimage
p1102
g1074
tp1103
(dp1104
Vinstall-stem
p1105
Vvmlinuz
p1106
ss(Vimage
p1107
g1074
NVsh7785lcr
p1108
tp1109
(dp1110
Vrecommends
p1111
Vu-boot-tools
p1112
sVcheck-size
p1113
L4194304L
ss(g132
g1074
g100
tp1114
(dp1115
g135
(lp1116
Vsh7751r
p1117
aVsh7785lcr
p1118
asg139
I01
ss(Vbase
p1119
Vsparc
p1120
tp1121
(dp1122
Vfeaturesets
p1123
(lp1124
sVkernel-arch
p1125
Vsparc
p1126
ss(Vbase
p1127
Vsparc64
p1128
tp1129
(dp1130
g98
(lp1131
g100
asVkernel-arch
p1132
Vsparc
p1133
ss(Vbuild
p1134
g1128
tp1135
(dp1136
Vsigned-modules
p1137
I00
sVimage-file
p1138
Varch/sparc/boot/zImage
p1139
ss(Vimage
p1140
g1128
NVsparc64
p1141
tp1142
(dp1143
Vconfigs
p1144
(lp1145
Vkernelarch-sparc/config-up
p1146
ass(Vimage
p1147
g1128
NVsparc64-smp
p1148
tp1149
(dp1150
Vconfigs
p1151
(lp1152
Vkernelarch-sparc/config-smp
p1153
ass(Vimage
p1154
g1128
tp1155
(dp1156
Vsuggests
p1157
Vsilo, fdutils
p1158
sVinstall-stem
p1159
Vvmlinuz
p1160
sVconfigs
p1161
(lp1162
ss(Vdescription
p1163
g1128
NVsparc64-smp
p1164
tp1165
(dp1166
Vhardware
p1167
Vmultiprocessor 64-bit UltraSPARC
p1168
ss(Vdescription
p1169
g1128
NVsparc64
p1170
tp1171
(dp1172
Vhardware
p1173
Vuniprocessor 64-bit UltraSPARC
p1174
ss(g132
g1128
g100
tp1175
(dp1176
g135
(lp1177
Vsparc64
p1178
aVsparc64-smp
p1179
asg139
I01
ss(Vbase
p1180
Vtilegx
p1181
tp1182
(dp1183
Vfeaturesets
p1184
(lp1185
sVkernel-arch
p1186
Vtile
p1187
ss(Vbase
p1188
Vx32
p1189
tp1190
(dp1191
Vfeaturesets
p1192
(lp1193
sVkernel-arch
p1194
Vx86
p1195
ss(Vdescription
p1196
NVrt
p1197
tp1198
(dp1199
Vparts
p1200
(lp1201
Vrt
p1202
asVpart-long-rt
p1203
VThis kernel includes the PREEMPT_RT realtime patch set.
p1204
sVpart-short-rt
p1205
VPREEMPT_RT
p1206
ss(Vabi
p1207
Ng1197
tp1208
(dp1209
Vignore-changes
p1210
(lp1211
V*
p1212
ass(Vversion
p1213
tp1214
(dp1215
Vupstream
p1216
V4.9
p1217
sVsource
p1218
V4.9.13-1+rpi1
p1219
sVabiname
p1220
V4.9.0-2
p1221
sVabiname_base
p1222
V4.9.0
p1223
ss.