cdebian_linux.config
ConfigCore
p0
(tRp1
(Vbase
p2
tp3
(dp4
Varches
p5
(lp6
Valpha
p7
aVamd64
p8
aVarm64
p9
aVarmel
p10
aVarmhf
p11
aVhppa
p12
aVi386
p13
aVm68k
p14
aVmips
p15
aVmipsel
p16
aVmipsn32
p17
aVmipsn32el
p18
aVmips64
p19
aVmips64el
p20
aVpowerpc
p21
aVpowerpcspe
p22
aVppc64
p23
aVppc64el
p24
aVs390
p25
aVs390x
p26
aVsh3
p27
aVsh4
p28
aVsparc
p29
aVsparc64
p30
aVtilegx
p31
aVx32
p32
asVfeaturesets
p33
(lp34
Vnone
p35
aVrt
p36
asVcompiler
p37
Vgcc-4.9
p38
ss(Vbuild
p39
tp40
(dp41
Vdebug-info
p42
I01
ss(Vbase
p43
NVrt
p44
tp45
(dp46
Venabled
p47
I01
ss(Vdescription
p48
tp49
(dp50
Vpart-long-up
p51
VThis kernel is not suitable for SMP (multi-processor,\u000amulti-core or hyper-threaded) systems.
p52
sVpart-long-xen
p53
VThis kernel also runs on a Xen hypervisor.\u000aIt supports both privileged (dom0) and unprivileged (domU) operation.
p54
ss(Vpackages
p55
tp56
(dp57
Vlibc-dev
p58
I00
ss(Vrelations
p59
tp60
(dp61
Vgcc-4.9
p62
Vgcc-4.9 <!stage1 !cross>, gcc-6-@gnu-type-package@:native <!stage1 cross>
p63
sVinitramfs-tools
p64
Vinitramfs-tools (>= 0.120+deb8u2)
p65
sVinitramfs-fallback
p66
Vlinux-initramfs-tool
p67
ss(Vimage
p68
tp69
(dp70
Vinitramfs-generators
p71
(lp72
Vinitramfs-tools
p73
aVinitramfs-fallback
p74
ass(Vabi
p75
tp76
(dp77
Vabiname
p78
V3
p79
sVignore-changes
p80
(lp81
V__cpuhp_*
p82
aVbpf_analyzer
p83
aVcxl_*
p84
aVmm_iommu_*
p85
aVregister_cxl_calls
p86
aVunregister_cxl_calls
p87
aVmodule:arch/x86/kvm/*
p88
aVmodule:drivers/crypto/ccp/*
p89
aVmodule:drivers/hv/*
p90
aVmodule:drivers/iio/common/hid-sensors/*
p91
aVmodule:drivers/iio/common/st_sensors/**
p92
aVmodule:drivers/net/wireless/**
p93
aVmodule:drivers/nvdimm/*
p94
aVmodule:drivers/power/supply/bq27xxx_battery
p95
aVmodule:drivers/scsi/cxgbi/*
p96
aVmodule:drivers/scsi/libiscs*
p97
aVmodule:drivers/scsi/qla2xxx/qla2xxx
p98
aVmodule:drivers/scsi/ufs/*
p99
aVmodule:drivers/target/**
p100
aVmodule:drivers/usb/chipidea/**
p101
aVmodule:drivers/usb/host/**
p102
aVmodule:drivers/usb/musb/**
p103
aVmodule:net/ceph/libceph
p104
aVmodule:net/l2tp/l2tp_core
p105
aVmodule:sound/firewire/snd-firewire-lib
p106
aVbtree_*
p107
aVvisitor*
p108
aVcan_rx_register
p109
aVip6_xmit
p110
aVmodule:net/dccp/dccp
p111
aVmodule:net/rds/rds
p112
aVdevfreq_*
p113
aVdevm_devfreq_*
p114
aVupdate_devfreq
p115
aVmodule:drivers/infiniband/**
p116
aVacpi_ec_add_query_handler
p117
aVacpi_ec_remove_query_handler
p118
aVfirst_ec
p119
aVdebugfs_create_automount
p120
ass(Vbase
p121
Valpha
p122
tp123
(dp124
Vfeaturesets
p125
(lp126
Vnone
p127
asVkernel-arch
p128
Valpha
p129
ss(Vdescription
p130
g122
NValpha-smp
p131
tp132
(dp133
Vhardware
p134
VAlpha SMP
p135
sVhardware-long
p136
VDEC Alpha SMP systems with extended kernel start address (Wildfire, Titan, Marvel)
p137
ss(Vbuild
p138
g122
tp139
(dp140
Vsigned-modules
p141
I00
sVimage-file
p142
Varch/alpha/boot/vmlinux.gz
p143
ss(Vdescription
p144
g122
NValpha-generic
p145
tp146
(dp147
Vhardware
p148
VAlpha
p149
sVhardware-long
p150
VDEC Alpha systems with extended kernel start address (Wildfire, Titan, Marvel)
p151
ss(Vimage
p152
g122
tp153
(dp154
Vsuggests
p155
Vaboot, fdutils
p156
sVinstall-stem
p157
Vvmlinuz
p158
ss(Vbase
p159
g122
g127
tp160
(dp161
Vflavours
p162
(lp163
Valpha-generic
p164
aValpha-smp
p165
asVimplicit-flavour
p166
I01
ss(Vbase
p167
Vamd64
p168
tp169
(dp170
Vfeaturesets
p171
(lp172
Vnone
p173
aVrt
p174
asVkernel-arch
p175
Vx86
p176
ss(Vdescription
p177
g168
NVamd64
p178
tp179
(dp180
Vhardware
p181
V64-bit PCs
p182
sVhardware-long
p183
VPCs with AMD64, Intel 64 or VIA Nano processors
p184
ss(Vbuild
p185
g168
tp186
(dp187
Vvdso
p188
I01
sVimage-file
p189
Varch/x86/boot/bzImage
p190
sVdebug-info
p191
I01
ss(Vrelations
p192
g168
tp193
(dp194
Vheaders%gcc-6
p195
Vlinux-compiler-gcc-6-x86
p196
ss(Vimage
p197
g168
tp198
(dp199
Vbreaks
p200
Vxserver-xorg-input-vmmouse (<< 1:13.0.99)
p201
sVinstall-stem
p202
Vvmlinuz
p203
sVbootloaders
p204
(lp205
Vgrub-pc
p206
aVgrub-efi-amd64
p207
aVextlinux
p208
ass(Vbase
p209
g168
Vnone
p210
tp211
(dp212
Vflavours
p213
(lp214
Vamd64
p215
ass(Vdescription
p216
g168
g210
Vamd64
p217
tp218
(dp219
Vparts
p220
(lp221
Vxen
p222
ass(Vbase
p223
g168
Vrt
p224
tp225
(dp226
Vflavours
p227
(lp228
Vamd64
p229
ass(Vbase
p230
Varm64
p231
tp232
(dp233
Vfeaturesets
p234
(lp235
Vnone
p236
asVkernel-arch
p237
Varm64
p238
ss(Vdescription
p239
g231
NVarm64
p240
tp241
(dp242
Vhardware
p243
V64-bit ARMv8 machines
p244
ss(Vbuild
p245
g231
tp246
(dp247
Vvdso
p248
I01
sVimage-file
p249
Varch/arm64/boot/Image
p250
sVdebug-info
p251
I01
ss(Vimage
p252
g231
NVarm64
p253
tp254
(dp255
s(Vimage
p256
g231
tp257
(dp258
Vbreaks
p259
Vlibmozjs185-1.0, libmozjs-24-0 (<< 24.2.0-5.1~)
p260
sVinstall-stem
p261
Vvmlinuz
p262
ss(Vbase
p263
g231
Vnone
p264
tp265
(dp266
Vflavours
p267
(lp268
Varm64
p269
ass(Vbase
p270
Varmel
p271
tp272
(dp273
g125
(lp274
g127
asVkernel-arch
p275
Varm
p276
ss(Vbuild
p277
g271
tp278
(dp279
Vsigned-modules
p280
I00
sVimage-file
p281
Varch/arm/boot/zImage
p282
ss(Vimage
p283
g271
NVmarvell
p284
tp285
(dp286
Vrecommends
p287
Vu-boot-tools
p288
sVbreaks
p289
Vflash-kernel (<< 3.57~)
p290
sVcheck-size-with-dtb
p291
I01
sVcheck-size
p292
L2097080L
ss(Vdescription
p293
g271
NVmarvell
p294
tp295
(dp296
Vhardware
p297
VMarvell Kirkwood/Orion
p298
sVhardware-long
p299
VMarvell Kirkwood based systems (SheevaPlug, QNAP TS-119/TS-219, etc)\u000aand Orion 5181, 5182 and 5281 based systems (QNAP TS-109/TS-209, etc)
p300
ss(Vrelations
p301
g271
tp302
(dp303
Vheaders%gcc-6
p304
Vlinux-compiler-gcc-6-arm
p305
ss(Vimage
p306
g271
tp307
(dp308
Vinstall-stem
p309
Vvmlinuz
p310
ss(g159
g271
g127
tp311
(dp312
g162
(lp313
Vmarvell
p314
asg166
I01
ss(Vdescription
p315
Varmhf
p316
NVarmmp
p317
tp318
(dp319
Vhardware
p320
VARMv7 multiplatform compatible SoCs
p321
sVhardware-long
p322
VARMv7 multiplatform kernel. See\u000ahttps://wiki.debian.org/DebianKernel/ARMMP for details of supported\u000aplatforms
p323
ss(Vdescription
p324
g316
NVrpi
p325
tp326
(dp327
Vhardware
p328
VRaspberryPI
p329
sVhardware-long
p330
VRaspberry PI
p331
ss(Vdescription
p332
g316
NVarmmp-lpae
p333
tp334
(dp335
Vhardware
p336
VARMv7 multiplatform compatible SoCs supporting LPAE
p337
sVhardware-long
p338
VARMv7 multiplatform kernel supporting LPAE. See\u000ahttps://wiki.debian.org/DebianKernel/ARMMP for details of supported\u000aplatforms.
p339
ss(Vbuild
p340
g316
NVrpi
p341
tp342
(dp343
Vimage-file
p344
Varch/arm/boot/zImagerpdt
p345
ss(Vrelations
p346
g316
tp347
(dp348
Vheaders%gcc-4.9
p349
Vlinux-compiler-gcc-4.9-arm
p350
ss(Vimage
p351
g316
tp352
(dp353
Vinstall-stem
p354
Vvmlinuz
p355
ss(Vbase
p356
g316
tp357
(dp358
g125
(lp359
g127
asVkernel-arch
p360
Varm
p361
ss(Vbuild
p362
g316
tp363
(dp364
Vvdso
p365
I01
sVimage-file
p366
Varch/arm/boot/zImage
p367
ss(Vbuild
p368
g316
NVrpi2
p369
tp370
(dp371
Vimage-file
p372
Varch/arm/boot/zImagerpdt
p373
ss(Vimage
p374
g316
NVrpi2
p375
tp376
(dp377
Vconfigs
p378
(lp379
Varmhf/config.rpix
p380
aVarmhf/config.rpi2
p381
ass(Vimage
p382
g316
NVrpi
p383
tp384
(dp385
Vconfigs
p386
(lp387
Varmhf/config.rpix
p388
aVarmhf/config.rpi
p389
ass(Vdescription
p390
g316
NVrpi2
p391
tp392
(dp393
Vhardware
p394
VRaspberryPI2
p395
sVhardware-long
p396
VRaspberry PI 2
p397
ss(g159
g316
g127
tp398
(dp399
g162
(lp400
Vrpi
p401
aVrpi2
p402
asg166
I01
ss(Vbase
p403
Vhppa
p404
tp405
(dp406
g125
(lp407
g127
asVkernel-arch
p408
Vparisc
p409
ss(Vbuild
p410
g404
tp411
(dp412
Vsigned-modules
p413
I00
sVimage-file
p414
Vvmlinux
p415
ss(Vdescription
p416
g404
NVparisc64-smp
p417
tp418
(dp419
Vhardware
p420
Vmultiprocessor 64-bit PA-RISC
p421
sVhardware-long
p422
VHP PA-RISC 64-bit SMP systems with support for more than 4 GB RAM
p423
ss(Vbase
p424
g404
NVparisc64-smp
p425
tp426
(dp427
Vcflags
p428
V-fno-cse-follow-jumps
p429
sVoverride-host-type
p430
Vhppa64-linux-gnu
p431
ss(Vrelations
p432
g404
tp433
(dp434
Vgcc-6
p435
Vgcc-6 <!stage1 !cross>, binutils-hppa64-linux-gnu <!stage1 !cross>, gcc-6-hppa64-linux-gnu <!stage1 !cross>, gcc-6-hppa-linux-gnu <!stage1 cross>, binutils-hppa64-linux-gnu <!stage1 cross>, gcc-6-hppa64-linux-gnu <!stage1 cross>
p436
ss(Vdescription
p437
g404
NVparisc
p438
tp439
(dp440
Vhardware
p441
V32-bit PA-RISC
p442
sVhardware-long
p443
VHP PA-RISC 32-bit systems with max 4 GB RAM
p444
ss(Vimage
p445
g404
tp446
(dp447
Vsuggests
p448
Vpalo
p449
sVinstall-stem
p450
Vvmlinux
p451
ss(g159
g404
g127
tp452
(dp453
g162
(lp454
Vparisc
p455
aVparisc64-smp
p456
asg166
I01
ss(Vbase
p457
Vi386
p458
tp459
(dp460
Vfeaturesets
p461
(lp462
Vnone
p463
aVrt
p464
asVkernel-arch
p465
Vx86
p466
ss(Vbuild
p467
g458
tp468
(dp469
Vvdso
p470
I01
sVimage-file
p471
Varch/x86/boot/bzImage
p472
ss(Vdescription
p473
g458
NV686-pae
p474
tp475
(dp476
Vhardware
p477
Vmodern PCs
p478
sVhardware-long
p479
VPCs with one or more processors supporting PAE
p480
sVparts
p481
(lp482
Vpae
p483
ass(Vdescription
p484
g458
tp485
(dp486
Vpart-long-pae
p487
VThis kernel requires PAE (Physical Address Extension).\u000aThis feature is supported by the Intel Pentium Pro/II/III/4/4M/D, Xeon,\u000aCore and Atom; AMD Geode NX, Athlon (K7), Duron, Opteron, Sempron,\u000aTurion or Phenom; Transmeta Efficeon; VIA C7; and some other processors.
p488
ss(Vbuild
p489
g458
NV686-pae
p490
tp491
(dp492
Vdebug-info
p493
I01
ss(Vdescription
p494
g458
NV686
p495
tp496
(dp497
Vhardware
p498
Volder PCs
p499
sVhardware-long
p500
VPCs with one or more processors not supporting PAE
p501
ss(Vrelations
p502
g458
tp503
(dp504
Vheaders%gcc-6
p505
Vlinux-compiler-gcc-6-x86
p506
ss(Vimage
p507
g458
tp508
(dp509
Vbreaks
p510
Vxserver-xorg-input-vmmouse (<< 1:13.0.99)
p511
sVinstall-stem
p512
Vvmlinuz
p513
sVbootloaders
p514
(lp515
Vgrub-pc
p516
aVextlinux
p517
ass(Vbase
p518
g458
Vnone
p519
tp520
(dp521
Vflavours
p522
(lp523
V686
p524
aV686-pae
p525
ass(Vdescription
p526
g458
g519
V686-pae
p527
tp528
(dp529
Vparts
p530
(lp531
Vxen
p532
ass(Vbase
p533
g458
Vrt
p534
tp535
(dp536
Vflavours
p537
(lp538
V686-pae
p539
ass(Vbase
p540
Vm68k
p541
tp542
(dp543
Vcflags
p544
V-ffreestanding
p545
sg125
(lp546
g127
asVkernel-arch
p547
Vm68k
p548
ss(Vbuild
p549
g541
tp550
(dp551
Vsigned-modules
p552
I00
sVimage-file
p553
Vvmlinux.gz
p554
ss(Vdescription
p555
g541
NVm68k
p556
tp557
(dp558
Vhardware
p559
VMotorola MC68020+ family
p560
ss(Vimage
p561
g541
tp562
(dp563
Vsuggests
p564
Vvmelilo, fdutils
p565
sVinstall-stem
p566
Vvmlinuz
p567
ss(g159
g541
g127
tp568
(dp569
g162
(lp570
Vm68k
p571
asg166
I01
ss(Vbase
p572
Vmips
p573
tp574
(dp575
g125
(lp576
g127
asVkernel-arch
p577
Vmips
p578
ss(Vbuild
p579
g573
tp580
(dp581
Vsigned-modules
p582
I00
sVimage-file
p583
Vvmlinux
p584
ss(Vimage
p585
g573
NV4kc-malta
p586
tp587
(dp588
Vconfigs
p589
(lp590
Vkernelarch-mips/config.malta
p591
aVkernelarch-mips/config.mips32r2
p592
ass(Vimage
p593
g573
NV5kc-malta
p594
tp595
(dp596
Vconfigs
p597
(lp598
Vkernelarch-mips/config.malta
p599
aVkernelarch-mips/config.mips64r2
p600
ass(Vdescription
p601
g573
NVocteon
p602
tp603
(dp604
Vhardware
p605
VOcteon
p606
sVhardware-long
p607
VCavium Networks Octeon
p608
ss(Vimage
p609
g573
NVocteon
p610
tp611
(dp612
Vconfigs
p613
(lp614
Vkernelarch-mips/config.octeon
p615
ass(Vimage
p616
g573
tp617
(dp618
Vinstall-stem
p619
Vvmlinux
p620
ss(Vdescription
p621
g573
NV5kc-malta
p622
tp623
(dp624
Vhardware
p625
VMIPS Malta (64-bit)
p626
sVhardware-long
p627
VMIPS Malta boards (64-bit)
p628
ss(Vdescription
p629
g573
NV4kc-malta
p630
tp631
(dp632
Vhardware
p633
VMIPS Malta
p634
sVhardware-long
p635
VMIPS Malta boards
p636
ss(g159
g573
g127
tp637
(dp638
g162
(lp639
V4kc-malta
p640
aV5kc-malta
p641
aVocteon
p642
asg166
I01
ss(Vbase
p643
Vmipsel
p644
tp645
(dp646
g125
(lp647
g127
asVkernel-arch
p648
Vmips
p649
ss(Vimage
p650
g644
NVloongson-3
p651
tp652
(dp653
Vconfigs
p654
(lp655
Vkernelarch-mips/config.loongson-3
p656
ass(Vbuild
p657
g644
tp658
(dp659
Vsigned-modules
p660
I00
sVimage-file
p661
Vvmlinux
p662
ss(Vimage
p663
g644
NV4kc-malta
p664
tp665
(dp666
Vconfigs
p667
(lp668
Vkernelarch-mips/config.malta
p669
aVkernelarch-mips/config.mips32r2
p670
ass(Vimage
p671
g644
NV5kc-malta
p672
tp673
(dp674
Vconfigs
p675
(lp676
Vkernelarch-mips/config.malta
p677
aVkernelarch-mips/config.mips64r2
p678
ass(Vdescription
p679
g644
NVocteon
p680
tp681
(dp682
Vhardware
p683
VOcteon
p684
sVhardware-long
p685
VCavium Networks Octeon
p686
ss(Vdescription
p687
g644
NVloongson-3
p688
tp689
(dp690
Vhardware
p691
VLoongson 3A/3B
p692
sVhardware-long
p693
VLoongson 3A or 3B based systems (e.g. from Loongson or Lemote)
p694
ss(Vimage
p695
g644
NVocteon
p696
tp697
(dp698
Vconfigs
p699
(lp700
Vkernelarch-mips/config.octeon
p701
ass(Vimage
p702
g644
tp703
(dp704
Vinstall-stem
p705
Vvmlinux
p706
ss(Vdescription
p707
g644
NV5kc-malta
p708
tp709
(dp710
Vhardware
p711
VMIPS Malta (64-bit)
p712
sVhardware-long
p713
VMIPS Malta boards (64-bit)
p714
ss(Vdescription
p715
g644
NV4kc-malta
p716
tp717
(dp718
Vhardware
p719
VMIPS Malta
p720
sVhardware-long
p721
VMIPS Malta boards
p722
ss(g159
g644
g127
tp723
(dp724
g162
(lp725
V4kc-malta
p726
aV5kc-malta
p727
aVloongson-3
p728
aVocteon
p729
asg166
I01
ss(Vbase
p730
Vmipsn32
p731
tp732
(dp733
Vfeaturesets
p734
(lp735
sVkernel-arch
p736
Vmips
p737
ss(Vbase
p738
Vmipsn32el
p739
tp740
(dp741
Vfeaturesets
p742
(lp743
sVkernel-arch
p744
Vmips
p745
ss(Vbase
p746
Vmips64
p747
tp748
(dp749
g125
(lp750
g127
asVkernel-arch
p751
Vmips
p752
ss(Vbuild
p753
g747
tp754
(dp755
Vsigned-modules
p756
I00
sVimage-file
p757
Vvmlinux
p758
ss(Vimage
p759
g747
NV5kc-malta
p760
tp761
(dp762
Vconfigs
p763
(lp764
Vkernelarch-mips/config.malta
p765
aVkernelarch-mips/config.mips64r2
p766
ass(Vdescription
p767
g747
NVocteon
p768
tp769
(dp770
Vhardware
p771
VOcteon
p772
sVhardware-long
p773
VCavium Networks Octeon
p774
ss(Vimage
p775
g747
tp776
(dp777
Vinstall-stem
p778
Vvmlinux
p779
ss(Vdescription
p780
g747
NV5kc-malta
p781
tp782
(dp783
Vhardware
p784
VMIPS Malta
p785
sVhardware-long
p786
VMIPS Malta boards
p787
ss(Vimage
p788
g747
NVocteon
p789
tp790
(dp791
Vconfigs
p792
(lp793
Vkernelarch-mips/config.octeon
p794
ass(g159
g747
g127
tp795
(dp796
g162
(lp797
V5kc-malta
p798
aVocteon
p799
asg166
I01
ss(Vbase
p800
Vmips64el
p801
tp802
(dp803
g125
(lp804
g127
asVkernel-arch
p805
Vmips
p806
ss(Vimage
p807
g801
NVloongson-3
p808
tp809
(dp810
Vconfigs
p811
(lp812
Vkernelarch-mips/config.loongson-3
p813
ass(Vbuild
p814
g801
tp815
(dp816
Vsigned-modules
p817
I00
sVimage-file
p818
Vvmlinux
p819
ss(Vimage
p820
g801
NV5kc-malta
p821
tp822
(dp823
Vconfigs
p824
(lp825
Vkernelarch-mips/config.malta
p826
aVkernelarch-mips/config.mips64r2
p827
ass(Vdescription
p828
g801
NVocteon
p829
tp830
(dp831
Vhardware
p832
VOcteon
p833
sVhardware-long
p834
VCavium Networks Octeon
p835
ss(Vdescription
p836
g801
NVloongson-3
p837
tp838
(dp839
Vhardware
p840
VLoongson 3A/3B
p841
sVhardware-long
p842
VLoongson 3A or 3B based systems (e.g. from Loongson or Lemote)
p843
ss(Vimage
p844
g801
tp845
(dp846
Vinstall-stem
p847
Vvmlinux
p848
ss(Vdescription
p849
g801
NV5kc-malta
p850
tp851
(dp852
Vhardware
p853
VMIPS Malta
p854
sVhardware-long
p855
VMIPS Malta boards
p856
ss(Vimage
p857
g801
NVocteon
p858
tp859
(dp860
Vconfigs
p861
(lp862
Vkernelarch-mips/config.octeon
p863
ass(g159
g801
g127
tp864
(dp865
g162
(lp866
V5kc-malta
p867
aVloongson-3
p868
aVocteon
p869
asg166
I01
ss(Vbase
p870
Vpowerpc
p871
tp872
(dp873
g125
(lp874
g127
asVkernel-arch
p875
Vpowerpc
p876
ss(Vdescription
p877
g871
NVpowerpc64
p878
tp879
(dp880
Vhardware
p881
V64-bit PowerPC
p882
ss(Vbuild
p883
g871
tp884
(dp885
Vvdso
p886
I01
sVimage-file
p887
Vvmlinux
p888
ss(Vimage
p889
g871
NVpowerpc-smp
p890
tp891
(dp892
Vconfigs
p893
(lp894
Vpowerpc/config.powerpc
p895
aVpowerpc/config.powerpc-smp
p896
ass(Vdescription
p897
g871
NVpowerpc
p898
tp899
(dp900
Vhardware
p901
Vuniprocessor 32-bit PowerPC
p902
ss(Vimage
p903
g871
NVpowerpc64
p904
tp905
(dp906
Vconfigs
p907
(lp908
Vkernelarch-powerpc/config-arch-64
p909
aVkernelarch-powerpc/config-arch-64-be
p910
ass(Vdescription
p911
g871
NVpowerpc-smp
p912
tp913
(dp914
Vhardware
p915
Vmultiprocessor 32-bit PowerPC
p916
ss(Vimage
p917
g871
tp918
(dp919
Vsuggests
p920
Vmkvmlinuz
p921
sVinstall-stem
p922
Vvmlinux
p923
sVconfigs
p924
(lp925
ss(g159
g871
g127
tp926
(dp927
g162
(lp928
Vpowerpc
p929
aVpowerpc-smp
p930
aVpowerpc64
p931
asg166
I01
ss(Vbase
p932
Vpowerpcspe
p933
tp934
(dp935
g125
(lp936
g127
asVkernel-arch
p937
Vpowerpc
p938
ss(Vbuild
p939
g933
tp940
(dp941
Vsigned-modules
p942
I00
sVimage-file
p943
Vvmlinux
p944
sVvdso
p945
I01
ss(Vimage
p946
g933
tp947
(dp948
Vsuggests
p949
Vmkvmlinuz
p950
sVinstall-stem
p951
Vvmlinux
p952
ss(Vdescription
p953
g933
tp954
(dp955
Vhardware
p956
V32-bit PowerPC with SPE (instead of AltiVec) with SMP support
p957
ss(g159
g933
g127
tp958
(dp959
g162
(lp960
Vpowerpcspe
p961
asg166
I01
ss(Vbase
p962
Vppc64
p963
tp964
(dp965
g125
(lp966
g127
asVkernel-arch
p967
Vpowerpc
p968
ss(Vdescription
p969
g963
NVpowerpc64
p970
tp971
(dp972
Vhardware
p973
V64-bit PowerPC
p974
ss(Vbuild
p975
g963
tp976
(dp977
Vsigned-modules
p978
I00
sVimage-file
p979
Vvmlinux
p980
sVvdso
p981
I01
ss(Vimage
p982
g963
NVpowerpc64
p983
tp984
(dp985
Vconfigs
p986
(lp987
Vkernelarch-powerpc/config-arch-64
p988
aVkernelarch-powerpc/config-arch-64-be
p989
ass(Vimage
p990
g963
tp991
(dp992
Vsuggests
p993
Vmkvmlinuz
p994
sVinstall-stem
p995
Vvmlinux
p996
sVconfigs
p997
(lp998
ss(g159
g963
g127
tp999
(dp1000
g162
(lp1001
Vpowerpc64
p1002
asg166
I01
ss(Vbase
p1003
Vppc64el
p1004
tp1005
(dp1006
g125
(lp1007
g127
asVkernel-arch
p1008
Vpowerpc
p1009
ss(Vdescription
p1010
g1004
NVpowerpc64le
p1011
tp1012
(dp1013
Vhardware
p1014
VLittle-endian 64-bit PowerPC
p1015
ss(Vbuild
p1016
g1004
tp1017
(dp1018
Vvdso
p1019
I01
sVimage-file
p1020
Vvmlinux
p1021
ss(Vimage
p1022
g1004
tp1023
(dp1024
Vsuggests
p1025
Vmkvmlinuz
p1026
sVinstall-stem
p1027
Vvmlinux
p1028
sVconfigs
p1029
(lp1030
ss(Vimage
p1031
g1004
NVpowerpc64le
p1032
tp1033
(dp1034
Vconfigs
p1035
(lp1036
Vkernelarch-powerpc/config-arch-64
p1037
aVkernelarch-powerpc/config-arch-64-le
p1038
ass(g159
g1004
g127
tp1039
(dp1040
g162
(lp1041
Vpowerpc64le
p1042
asg166
I01
ss(Vbase
p1043
Vs390
p1044
tp1045
(dp1046
Vfeaturesets
p1047
(lp1048
sVkernel-arch
p1049
Vs390
p1050
ss(Vbase
p1051
Vs390x
p1052
tp1053
(dp1054
g125
(lp1055
g127
asVkernel-arch
p1056
Vs390
p1057
ss(Vdescription
p1058
g1052
NVs390x
p1059
tp1060
(dp1061
Vhardware
p1062
VIBM zSeries
p1063
ss(Vbuild
p1064
g1052
tp1065
(dp1066
Vvdso
p1067
I01
sVimage-file
p1068
Varch/s390/boot/image
p1069
ss(Vbuild
p1070
g1052
NVs390x
p1071
tp1072
(dp1073
Vdebug-info
p1074
I01
ss(Vrelations
p1075
g1052
tp1076
(dp1077
Vheaders%gcc-6
p1078
Vlinux-compiler-gcc-6-s390
p1079
ss(Vimage
p1080
g1052
tp1081
(dp1082
Vinstall-stem
p1083
Vvmlinuz
p1084
sVbootloaders
p1085
(lp1086
Vs390-tools
p1087
ass(g159
g1052
g127
tp1088
(dp1089
g162
(lp1090
Vs390x
p1091
asg166
I01
ss(Vbase
p1092
Vsh3
p1093
tp1094
(dp1095
Vfeaturesets
p1096
(lp1097
sVkernel-arch
p1098
Vsh
p1099
ss(Vbase
p1100
Vsh4
p1101
tp1102
(dp1103
g125
(lp1104
g127
asVkernel-arch
p1105
Vsh
p1106
ss(Vbuild
p1107
g1101
tp1108
(dp1109
Vsigned-modules
p1110
I00
sVimage-file
p1111
Varch/sh/boot/zImage
p1112
ss(Vdescription
p1113
g1101
NVsh7751r
p1114
tp1115
(dp1116
Vhardware
p1117
Vsh7751r
p1118
sVhardware-long
p1119
VRenesas SH7751R R2D plus board
p1120
ss(Vdescription
p1121
g1101
NVsh7785lcr
p1122
tp1123
(dp1124
Vhardware
p1125
Vsh7785lcr
p1126
sVhardware-long
p1127
VRenesas SH7785 reference board
p1128
ss(Vimage
p1129
g1101
tp1130
(dp1131
Vinstall-stem
p1132
Vvmlinuz
p1133
ss(Vimage
p1134
g1101
NVsh7785lcr
p1135
tp1136
(dp1137
Vrecommends
p1138
Vu-boot-tools
p1139
sVcheck-size
p1140
L4194304L
ss(g159
g1101
g127
tp1141
(dp1142
g162
(lp1143
Vsh7751r
p1144
aVsh7785lcr
p1145
asg166
I01
ss(Vbase
p1146
Vsparc
p1147
tp1148
(dp1149
Vfeaturesets
p1150
(lp1151
sVkernel-arch
p1152
Vsparc
p1153
ss(Vbase
p1154
Vsparc64
p1155
tp1156
(dp1157
g125
(lp1158
g127
asVkernel-arch
p1159
Vsparc
p1160
ss(Vbuild
p1161
g1155
tp1162
(dp1163
Vsigned-modules
p1164
I00
sVimage-file
p1165
Varch/sparc/boot/zImage
p1166
ss(Vimage
p1167
g1155
NVsparc64
p1168
tp1169
(dp1170
Vconfigs
p1171
(lp1172
Vkernelarch-sparc/config-up
p1173
ass(Vimage
p1174
g1155
NVsparc64-smp
p1175
tp1176
(dp1177
Vconfigs
p1178
(lp1179
Vkernelarch-sparc/config-smp
p1180
ass(Vimage
p1181
g1155
tp1182
(dp1183
Vsuggests
p1184
Vsilo, fdutils
p1185
sVinstall-stem
p1186
Vvmlinuz
p1187
sVconfigs
p1188
(lp1189
ss(Vdescription
p1190
g1155
NVsparc64-smp
p1191
tp1192
(dp1193
Vhardware
p1194
Vmultiprocessor 64-bit UltraSPARC
p1195
ss(Vdescription
p1196
g1155
NVsparc64
p1197
tp1198
(dp1199
Vhardware
p1200
Vuniprocessor 64-bit UltraSPARC
p1201
ss(g159
g1155
g127
tp1202
(dp1203
g162
(lp1204
Vsparc64
p1205
aVsparc64-smp
p1206
asg166
I01
ss(Vbase
p1207
Vtilegx
p1208
tp1209
(dp1210
Vfeaturesets
p1211
(lp1212
sVkernel-arch
p1213
Vtile
p1214
ss(Vbase
p1215
Vx32
p1216
tp1217
(dp1218
Vfeaturesets
p1219
(lp1220
sVkernel-arch
p1221
Vx86
p1222
ss(Vdescription
p1223
NVrt
p1224
tp1225
(dp1226
Vparts
p1227
(lp1228
Vrt
p1229
asVpart-long-rt
p1230
VThis kernel includes the PREEMPT_RT realtime patch set.
p1231
sVpart-short-rt
p1232
VPREEMPT_RT
p1233
ss(Vabi
p1234
Ng1224
tp1235
(dp1236
Vignore-changes
p1237
(lp1238
V*
p1239
ass(Vversion
p1240
tp1241
(dp1242
Vupstream
p1243
V4.9
p1244
sVsource
p1245
V4.9.30-2+deb9u2+rpi1
p1246
sVabiname
p1247
V4.9.0-3
p1248
sVabiname_base
p1249
V4.9.0
p1250
ss.